SF:/Users/d072013/SAPDevelop/gql_parser/src/analysis/expression_info.rs
FN:154,_RNvXs1_NtNtCs6qJP7SanZgw_10gql_parser8analysis15expression_infoNtNtNtB9_3ast10expression12FunctionNameNtNtCsezyhsC6CBT9_4core3fmt7Display3fmt
FN:163,_RNvXs2_NtNtCs6qJP7SanZgw_10gql_parser8analysis15expression_infoNtNtNtB9_3ast10expression22GeneralSetFunctionTypeNtNtCsezyhsC6CBT9_4core3fmt7Display3fmt
FN:179,_RNvXs3_NtNtCs6qJP7SanZgw_10gql_parser8analysis15expression_infoNtNtNtB9_3ast10expression21BinarySetFunctionTypeNtNtCsezyhsC6CBT9_4core3fmt7Display3fmt
FN:194,_RNvNtNtNtCs6qJP7SanZgw_10gql_parser8analysis15expression_info5testss_59expression_info_collects_variables_properties_and_functions
FN:227,_RNCNvNtNtNtCs6qJP7SanZgw_10gql_parser8analysis15expression_info5testss_59expression_info_collects_variables_properties_and_functions0B9_
FN:231,_RNCNvNtNtNtCs6qJP7SanZgw_10gql_parser8analysis15expression_info5testss_59expression_info_collects_variables_properties_and_functionss_0B9_
FN:57,_RNvMNtNtCs6qJP7SanZgw_10gql_parser8analysis15expression_infoNtB2_14ExpressionInfo7analyze
FN:74,_RNvMs_NtNtCs6qJP7SanZgw_10gql_parser8analysis15expression_infoNtB4_23ExpressionInfoCollector12push_literal
FN:93,_RNvMs_NtNtCs6qJP7SanZgw_10gql_parser8analysis15expression_infoNtB4_23ExpressionInfoCollector18push_function_name
FN:70,_RNvMs_NtNtCs6qJP7SanZgw_10gql_parser8analysis15expression_infoNtB4_23ExpressionInfoCollector9into_info
FN:134,_RNvNtNtCs6qJP7SanZgw_10gql_parser8analysis15expression_info21function_name_to_smol
FN:141,_RNvNtNtCs6qJP7SanZgw_10gql_parser8analysis15expression_info23aggregate_function_name
FN:101,_RNvXs0_NtNtCs6qJP7SanZgw_10gql_parser8analysis15expression_infoNtB5_23ExpressionInfoCollectorNtNtNtB9_3ast7visitor10AstVisitor16visit_expression
FN:57,_RNvMNtNtCs87GxMFlPkU4_10gql_parser8analysis15expression_infoNtB2_14ExpressionInfo7analyze
FN:74,_RNvMs_NtNtCs87GxMFlPkU4_10gql_parser8analysis15expression_infoNtB4_23ExpressionInfoCollector12push_literal
FN:93,_RNvMs_NtNtCs87GxMFlPkU4_10gql_parser8analysis15expression_infoNtB4_23ExpressionInfoCollector18push_function_name
FN:70,_RNvMs_NtNtCs87GxMFlPkU4_10gql_parser8analysis15expression_infoNtB4_23ExpressionInfoCollector9into_info
FN:134,_RNvNtNtCs87GxMFlPkU4_10gql_parser8analysis15expression_info21function_name_to_smol
FN:141,_RNvNtNtCs87GxMFlPkU4_10gql_parser8analysis15expression_info23aggregate_function_name
FN:101,_RNvXs0_NtNtCs87GxMFlPkU4_10gql_parser8analysis15expression_infoNtB5_23ExpressionInfoCollectorNtNtNtB9_3ast7visitor10AstVisitor16visit_expression
FN:154,_RNvXs1_NtNtCs87GxMFlPkU4_10gql_parser8analysis15expression_infoNtNtNtB9_3ast10expression12FunctionNameNtNtCsezyhsC6CBT9_4core3fmt7Display3fmt
FN:163,_RNvXs2_NtNtCs87GxMFlPkU4_10gql_parser8analysis15expression_infoNtNtNtB9_3ast10expression22GeneralSetFunctionTypeNtNtCsezyhsC6CBT9_4core3fmt7Display3fmt
FN:179,_RNvXs3_NtNtCs87GxMFlPkU4_10gql_parser8analysis15expression_infoNtNtNtB9_3ast10expression21BinarySetFunctionTypeNtNtCsezyhsC6CBT9_4core3fmt7Display3fmt
FNDA:0,_RNvXs1_NtNtCs6qJP7SanZgw_10gql_parser8analysis15expression_infoNtNtNtB9_3ast10expression12FunctionNameNtNtCsezyhsC6CBT9_4core3fmt7Display3fmt
FNDA:2,_RNvXs2_NtNtCs6qJP7SanZgw_10gql_parser8analysis15expression_infoNtNtNtB9_3ast10expression22GeneralSetFunctionTypeNtNtCsezyhsC6CBT9_4core3fmt7Display3fmt
FNDA:0,_RNvXs3_NtNtCs6qJP7SanZgw_10gql_parser8analysis15expression_infoNtNtNtB9_3ast10expression21BinarySetFunctionTypeNtNtCsezyhsC6CBT9_4core3fmt7Display3fmt
FNDA:1,_RNvNtNtNtCs6qJP7SanZgw_10gql_parser8analysis15expression_info5testss_59expression_info_collects_variables_properties_and_functions
FNDA:1,_RNCNvNtNtNtCs6qJP7SanZgw_10gql_parser8analysis15expression_info5testss_59expression_info_collects_variables_properties_and_functions0B9_
FNDA:1,_RNCNvNtNtNtCs6qJP7SanZgw_10gql_parser8analysis15expression_info5testss_59expression_info_collects_variables_properties_and_functionss_0B9_
FNDA:11,_RNvMNtNtCs6qJP7SanZgw_10gql_parser8analysis15expression_infoNtB2_14ExpressionInfo7analyze
FNDA:1,_RNvMs_NtNtCs6qJP7SanZgw_10gql_parser8analysis15expression_infoNtB4_23ExpressionInfoCollector12push_literal
FNDA:3,_RNvMs_NtNtCs6qJP7SanZgw_10gql_parser8analysis15expression_infoNtB4_23ExpressionInfoCollector18push_function_name
FNDA:11,_RNvMs_NtNtCs6qJP7SanZgw_10gql_parser8analysis15expression_infoNtB4_23ExpressionInfoCollector9into_info
FNDA:1,_RNvNtNtCs6qJP7SanZgw_10gql_parser8analysis15expression_info21function_name_to_smol
FNDA:2,_RNvNtNtCs6qJP7SanZgw_10gql_parser8analysis15expression_info23aggregate_function_name
FNDA:27,_RNvXs0_NtNtCs6qJP7SanZgw_10gql_parser8analysis15expression_infoNtB5_23ExpressionInfoCollectorNtNtNtB9_3ast7visitor10AstVisitor16visit_expression
FNDA:0,_RNvMNtNtCs87GxMFlPkU4_10gql_parser8analysis15expression_infoNtB2_14ExpressionInfo7analyze
FNDA:0,_RNvMs_NtNtCs87GxMFlPkU4_10gql_parser8analysis15expression_infoNtB4_23ExpressionInfoCollector12push_literal
FNDA:0,_RNvMs_NtNtCs87GxMFlPkU4_10gql_parser8analysis15expression_infoNtB4_23ExpressionInfoCollector18push_function_name
FNDA:0,_RNvMs_NtNtCs87GxMFlPkU4_10gql_parser8analysis15expression_infoNtB4_23ExpressionInfoCollector9into_info
FNDA:0,_RNvNtNtCs87GxMFlPkU4_10gql_parser8analysis15expression_info21function_name_to_smol
FNDA:0,_RNvNtNtCs87GxMFlPkU4_10gql_parser8analysis15expression_info23aggregate_function_name
FNDA:0,_RNvXs0_NtNtCs87GxMFlPkU4_10gql_parser8analysis15expression_infoNtB5_23ExpressionInfoCollectorNtNtNtB9_3ast7visitor10AstVisitor16visit_expression
FNDA:0,_RNvXs1_NtNtCs87GxMFlPkU4_10gql_parser8analysis15expression_infoNtNtNtB9_3ast10expression12FunctionNameNtNtCsezyhsC6CBT9_4core3fmt7Display3fmt
FNDA:0,_RNvXs2_NtNtCs87GxMFlPkU4_10gql_parser8analysis15expression_infoNtNtNtB9_3ast10expression22GeneralSetFunctionTypeNtNtCsezyhsC6CBT9_4core3fmt7Display3fmt
FNDA:0,_RNvXs3_NtNtCs87GxMFlPkU4_10gql_parser8analysis15expression_infoNtNtNtB9_3ast10expression21BinarySetFunctionTypeNtNtCsezyhsC6CBT9_4core3fmt7Display3fmt
FNF:13
FNH:11
DA:57,11
DA:58,11
DA:59,11
DA:60,11
DA:61,11
DA:70,11
DA:71,11
DA:72,11
DA:74,1
DA:75,1
DA:76,0
DA:77,0
DA:78,1
DA:79,0
DA:80,0
DA:81,0
DA:82,0
DA:83,0
DA:84,0
DA:85,0
DA:86,0
DA:87,0
DA:90,1
DA:91,1
DA:93,3
DA:94,3
DA:95,3
DA:101,27
DA:102,27
DA:103,13
DA:104,13
DA:105,13
DA:106,7
DA:107,7
DA:108,7
DA:109,0
DA:111,7
DA:112,7
DA:113,7
DA:114,7
DA:115,7
DA:117,1
DA:118,1
DA:119,1
DA:120,2
DA:121,2
DA:122,2
DA:123,2
DA:124,1
DA:125,1
DA:126,1
DA:127,3
DA:130,27
DA:131,27
DA:134,1
DA:135,1
DA:136,1
DA:137,0
DA:139,1
DA:141,2
DA:142,2
DA:143,0
DA:144,2
DA:145,2
DA:147,0
DA:148,0
DA:151,2
DA:154,0
DA:155,0
DA:156,0
DA:157,0
DA:159,0
DA:163,2
DA:164,2
DA:165,0
DA:166,1
DA:167,0
DA:168,0
DA:169,1
DA:170,0
DA:171,0
DA:172,0
DA:174,2
DA:175,2
DA:179,0
DA:180,0
DA:181,0
DA:182,0
DA:184,0
DA:185,0
DA:194,1
DA:195,1
DA:196,1
DA:198,1
DA:199,1
DA:201,1
DA:202,1
DA:204,0
DA:207,1
DA:208,1
DA:210,0
DA:213,1
DA:215,0
DA:218,1
DA:220,0
DA:223,1
DA:225,1
DA:226,1
DA:227,1
DA:228,1
DA:229,1
DA:230,1
DA:231,1
DA:233,1
BRF:0
BRH:0
LF:116
LH:79
end_of_record
SF:/Users/d072013/SAPDevelop/gql_parser/src/analysis/pattern_info.rs
FN:53,_RNvMNtNtCs6qJP7SanZgw_10gql_parser8analysis12pattern_infoNtB2_11PatternInfo7analyze
FN:86,_RNvMs_NtNtCs6qJP7SanZgw_10gql_parser8analysis12pattern_infoNtB4_15PatternAnalyzer15analyze_pattern
FN:120,_RNvMs_NtNtCs6qJP7SanZgw_10gql_parser8analysis12pattern_infoNtB4_15PatternAnalyzer17analyze_path_term
FN:126,_RNvMs_NtNtCs6qJP7SanZgw_10gql_parser8analysis12pattern_infoNtB4_15PatternAnalyzer19analyze_path_factor
FN:92,_RNvMs_NtNtCs6qJP7SanZgw_10gql_parser8analysis12pattern_infoNtB4_15PatternAnalyzer20analyze_path_pattern
FN:211,_RNvMs_NtNtCs6qJP7SanZgw_10gql_parser8analysis12pattern_infoNtB4_15PatternAnalyzer20ensure_node_variable
FN:221,_RNvMs_NtNtCs6qJP7SanZgw_10gql_parser8analysis12pattern_infoNtB4_15PatternAnalyzer22connect_path_variables
FN:174,_RNvMs_NtNtCs6qJP7SanZgw_10gql_parser8analysis12pattern_infoNtB4_15PatternAnalyzer23analyze_element_pattern
FN:99,_RNvMs_NtNtCs6qJP7SanZgw_10gql_parser8analysis12pattern_infoNtB4_15PatternAnalyzer23analyze_path_expression
FN:204,_RNvMs_NtNtCs6qJP7SanZgw_10gql_parser8analysis12pattern_infoNtB4_15PatternAnalyzer24observe_label_expression
FN:250,_RNvMs_NtNtCs6qJP7SanZgw_10gql_parser8analysis12pattern_infoNtB4_15PatternAnalyzer25connected_component_count
FN:140,_RNvMs_NtNtCs6qJP7SanZgw_10gql_parser8analysis12pattern_infoNtB4_15PatternAnalyzer29analyze_simplified_expression
FN:241,_RNvMs_NtNtCs6qJP7SanZgw_10gql_parser8analysis12pattern_infoNtB4_15PatternAnalyzer5union
FN:234,_RNvMs_NtNtCs6qJP7SanZgw_10gql_parser8analysis12pattern_infoNtB4_15PatternAnalyzer9find_root
FN:71,_RNvMs_NtNtCs6qJP7SanZgw_10gql_parser8analysis12pattern_infoNtB4_15PatternAnalyzer9into_info
FN:259,_RNvNtNtCs6qJP7SanZgw_10gql_parser8analysis12pattern_info25classify_label_expression
FN:332,_RNvNtNtCs6qJP7SanZgw_10gql_parser8analysis12pattern_info29collect_path_expression_roots
FN:319,_RNvNtNtCs6qJP7SanZgw_10gql_parser8analysis12pattern_info31collect_prefix_expression_roots
FN:371,_RNvNtNtCs6qJP7SanZgw_10gql_parser8analysis12pattern_info32collect_element_expression_roots
FN:289,_RNvNtNtCs6qJP7SanZgw_10gql_parser8analysis12pattern_info32collect_pattern_expression_roots
FN:352,_RNvNtNtCs6qJP7SanZgw_10gql_parser8analysis12pattern_info34collect_path_term_expression_roots
FN:358,_RNvNtNtCs6qJP7SanZgw_10gql_parser8analysis12pattern_info36collect_path_factor_expression_roots
FN:308,_RNvNtNtCs6qJP7SanZgw_10gql_parser8analysis12pattern_info37collect_path_pattern_expression_roots
FN:411,_RNvNtNtNtCs6qJP7SanZgw_10gql_parser8analysis12pattern_info5tests19first_graph_pattern
FN:438,_RNvNtNtNtCs6qJP7SanZgw_10gql_parser8analysis12pattern_info5testss_47pattern_info_reports_structure_and_connectivity
FN:472,_RNvNtNtNtCs6qJP7SanZgw_10gql_parser8analysis12pattern_info5testss_58collect_pattern_expression_roots_covers_pattern_conditions
FN:457,_RNvNtNtNtCs6qJP7SanZgw_10gql_parser8analysis12pattern_info5testss_63pattern_info_detects_disconnected_components_and_complex_labels
FN:53,_RNvMNtNtCs87GxMFlPkU4_10gql_parser8analysis12pattern_infoNtB2_11PatternInfo7analyze
FN:86,_RNvMs_NtNtCs87GxMFlPkU4_10gql_parser8analysis12pattern_infoNtB4_15PatternAnalyzer15analyze_pattern
FN:120,_RNvMs_NtNtCs87GxMFlPkU4_10gql_parser8analysis12pattern_infoNtB4_15PatternAnalyzer17analyze_path_term
FN:126,_RNvMs_NtNtCs87GxMFlPkU4_10gql_parser8analysis12pattern_infoNtB4_15PatternAnalyzer19analyze_path_factor
FN:92,_RNvMs_NtNtCs87GxMFlPkU4_10gql_parser8analysis12pattern_infoNtB4_15PatternAnalyzer20analyze_path_pattern
FN:211,_RNvMs_NtNtCs87GxMFlPkU4_10gql_parser8analysis12pattern_infoNtB4_15PatternAnalyzer20ensure_node_variable
FN:221,_RNvMs_NtNtCs87GxMFlPkU4_10gql_parser8analysis12pattern_infoNtB4_15PatternAnalyzer22connect_path_variables
FN:174,_RNvMs_NtNtCs87GxMFlPkU4_10gql_parser8analysis12pattern_infoNtB4_15PatternAnalyzer23analyze_element_pattern
FN:99,_RNvMs_NtNtCs87GxMFlPkU4_10gql_parser8analysis12pattern_infoNtB4_15PatternAnalyzer23analyze_path_expression
FN:204,_RNvMs_NtNtCs87GxMFlPkU4_10gql_parser8analysis12pattern_infoNtB4_15PatternAnalyzer24observe_label_expression
FN:250,_RNvMs_NtNtCs87GxMFlPkU4_10gql_parser8analysis12pattern_infoNtB4_15PatternAnalyzer25connected_component_count
FN:140,_RNvMs_NtNtCs87GxMFlPkU4_10gql_parser8analysis12pattern_infoNtB4_15PatternAnalyzer29analyze_simplified_expression
FN:241,_RNvMs_NtNtCs87GxMFlPkU4_10gql_parser8analysis12pattern_infoNtB4_15PatternAnalyzer5union
FN:234,_RNvMs_NtNtCs87GxMFlPkU4_10gql_parser8analysis12pattern_infoNtB4_15PatternAnalyzer9find_root
FN:71,_RNvMs_NtNtCs87GxMFlPkU4_10gql_parser8analysis12pattern_infoNtB4_15PatternAnalyzer9into_info
FN:259,_RNvNtNtCs87GxMFlPkU4_10gql_parser8analysis12pattern_info25classify_label_expression
FN:332,_RNvNtNtCs87GxMFlPkU4_10gql_parser8analysis12pattern_info29collect_path_expression_roots
FN:319,_RNvNtNtCs87GxMFlPkU4_10gql_parser8analysis12pattern_info31collect_prefix_expression_roots
FN:371,_RNvNtNtCs87GxMFlPkU4_10gql_parser8analysis12pattern_info32collect_element_expression_roots
FN:289,_RNvNtNtCs87GxMFlPkU4_10gql_parser8analysis12pattern_info32collect_pattern_expression_roots
FN:352,_RNvNtNtCs87GxMFlPkU4_10gql_parser8analysis12pattern_info34collect_path_term_expression_roots
FN:358,_RNvNtNtCs87GxMFlPkU4_10gql_parser8analysis12pattern_info36collect_path_factor_expression_roots
FN:308,_RNvNtNtCs87GxMFlPkU4_10gql_parser8analysis12pattern_info37collect_path_pattern_expression_roots
FNDA:2,_RNvMNtNtCs6qJP7SanZgw_10gql_parser8analysis12pattern_infoNtB2_11PatternInfo7analyze
FNDA:2,_RNvMs_NtNtCs6qJP7SanZgw_10gql_parser8analysis12pattern_infoNtB4_15PatternAnalyzer15analyze_pattern
FNDA:4,_RNvMs_NtNtCs6qJP7SanZgw_10gql_parser8analysis12pattern_infoNtB4_15PatternAnalyzer17analyze_path_term
FNDA:8,_RNvMs_NtNtCs6qJP7SanZgw_10gql_parser8analysis12pattern_infoNtB4_15PatternAnalyzer19analyze_path_factor
FNDA:4,_RNvMs_NtNtCs6qJP7SanZgw_10gql_parser8analysis12pattern_infoNtB4_15PatternAnalyzer20analyze_path_pattern
FNDA:6,_RNvMs_NtNtCs6qJP7SanZgw_10gql_parser8analysis12pattern_infoNtB4_15PatternAnalyzer20ensure_node_variable
FNDA:4,_RNvMs_NtNtCs6qJP7SanZgw_10gql_parser8analysis12pattern_infoNtB4_15PatternAnalyzer22connect_path_variables
FNDA:8,_RNvMs_NtNtCs6qJP7SanZgw_10gql_parser8analysis12pattern_infoNtB4_15PatternAnalyzer23analyze_element_pattern
FNDA:4,_RNvMs_NtNtCs6qJP7SanZgw_10gql_parser8analysis12pattern_infoNtB4_15PatternAnalyzer23analyze_path_expression
FNDA:7,_RNvMs_NtNtCs6qJP7SanZgw_10gql_parser8analysis12pattern_infoNtB4_15PatternAnalyzer24observe_label_expression
FNDA:2,_RNvMs_NtNtCs6qJP7SanZgw_10gql_parser8analysis12pattern_infoNtB4_15PatternAnalyzer25connected_component_count
FNDA:0,_RNvMs_NtNtCs6qJP7SanZgw_10gql_parser8analysis12pattern_infoNtB4_15PatternAnalyzer29analyze_simplified_expression
FNDA:2,_RNvMs_NtNtCs6qJP7SanZgw_10gql_parser8analysis12pattern_infoNtB4_15PatternAnalyzer5union
FNDA:9,_RNvMs_NtNtCs6qJP7SanZgw_10gql_parser8analysis12pattern_infoNtB4_15PatternAnalyzer9find_root
FNDA:2,_RNvMs_NtNtCs6qJP7SanZgw_10gql_parser8analysis12pattern_infoNtB4_15PatternAnalyzer9into_info
FNDA:13,_RNvNtNtCs6qJP7SanZgw_10gql_parser8analysis12pattern_info25classify_label_expression
FNDA:5,_RNvNtNtCs6qJP7SanZgw_10gql_parser8analysis12pattern_info29collect_path_expression_roots
FNDA:0,_RNvNtNtCs6qJP7SanZgw_10gql_parser8analysis12pattern_info31collect_prefix_expression_roots
FNDA:9,_RNvNtNtCs6qJP7SanZgw_10gql_parser8analysis12pattern_info32collect_element_expression_roots
FNDA:5,_RNvNtNtCs6qJP7SanZgw_10gql_parser8analysis12pattern_info32collect_pattern_expression_roots
FNDA:5,_RNvNtNtCs6qJP7SanZgw_10gql_parser8analysis12pattern_info34collect_path_term_expression_roots
FNDA:9,_RNvNtNtCs6qJP7SanZgw_10gql_parser8analysis12pattern_info36collect_path_factor_expression_roots
FNDA:5,_RNvNtNtCs6qJP7SanZgw_10gql_parser8analysis12pattern_info37collect_path_pattern_expression_roots
FNDA:3,_RNvNtNtNtCs6qJP7SanZgw_10gql_parser8analysis12pattern_info5tests19first_graph_pattern
FNDA:1,_RNvNtNtNtCs6qJP7SanZgw_10gql_parser8analysis12pattern_info5testss_47pattern_info_reports_structure_and_connectivity
FNDA:1,_RNvNtNtNtCs6qJP7SanZgw_10gql_parser8analysis12pattern_info5testss_58collect_pattern_expression_roots_covers_pattern_conditions
FNDA:1,_RNvNtNtNtCs6qJP7SanZgw_10gql_parser8analysis12pattern_info5testss_63pattern_info_detects_disconnected_components_and_complex_labels
FNDA:0,_RNvMNtNtCs87GxMFlPkU4_10gql_parser8analysis12pattern_infoNtB2_11PatternInfo7analyze
FNDA:0,_RNvMs_NtNtCs87GxMFlPkU4_10gql_parser8analysis12pattern_infoNtB4_15PatternAnalyzer15analyze_pattern
FNDA:0,_RNvMs_NtNtCs87GxMFlPkU4_10gql_parser8analysis12pattern_infoNtB4_15PatternAnalyzer17analyze_path_term
FNDA:0,_RNvMs_NtNtCs87GxMFlPkU4_10gql_parser8analysis12pattern_infoNtB4_15PatternAnalyzer19analyze_path_factor
FNDA:0,_RNvMs_NtNtCs87GxMFlPkU4_10gql_parser8analysis12pattern_infoNtB4_15PatternAnalyzer20analyze_path_pattern
FNDA:0,_RNvMs_NtNtCs87GxMFlPkU4_10gql_parser8analysis12pattern_infoNtB4_15PatternAnalyzer20ensure_node_variable
FNDA:0,_RNvMs_NtNtCs87GxMFlPkU4_10gql_parser8analysis12pattern_infoNtB4_15PatternAnalyzer22connect_path_variables
FNDA:0,_RNvMs_NtNtCs87GxMFlPkU4_10gql_parser8analysis12pattern_infoNtB4_15PatternAnalyzer23analyze_element_pattern
FNDA:0,_RNvMs_NtNtCs87GxMFlPkU4_10gql_parser8analysis12pattern_infoNtB4_15PatternAnalyzer23analyze_path_expression
FNDA:0,_RNvMs_NtNtCs87GxMFlPkU4_10gql_parser8analysis12pattern_infoNtB4_15PatternAnalyzer24observe_label_expression
FNDA:0,_RNvMs_NtNtCs87GxMFlPkU4_10gql_parser8analysis12pattern_infoNtB4_15PatternAnalyzer25connected_component_count
FNDA:0,_RNvMs_NtNtCs87GxMFlPkU4_10gql_parser8analysis12pattern_infoNtB4_15PatternAnalyzer29analyze_simplified_expression
FNDA:0,_RNvMs_NtNtCs87GxMFlPkU4_10gql_parser8analysis12pattern_infoNtB4_15PatternAnalyzer5union
FNDA:0,_RNvMs_NtNtCs87GxMFlPkU4_10gql_parser8analysis12pattern_infoNtB4_15PatternAnalyzer9find_root
FNDA:0,_RNvMs_NtNtCs87GxMFlPkU4_10gql_parser8analysis12pattern_infoNtB4_15PatternAnalyzer9into_info
FNDA:0,_RNvNtNtCs87GxMFlPkU4_10gql_parser8analysis12pattern_info25classify_label_expression
FNDA:0,_RNvNtNtCs87GxMFlPkU4_10gql_parser8analysis12pattern_info29collect_path_expression_roots
FNDA:0,_RNvNtNtCs87GxMFlPkU4_10gql_parser8analysis12pattern_info31collect_prefix_expression_roots
FNDA:0,_RNvNtNtCs87GxMFlPkU4_10gql_parser8analysis12pattern_info32collect_element_expression_roots
FNDA:0,_RNvNtNtCs87GxMFlPkU4_10gql_parser8analysis12pattern_info32collect_pattern_expression_roots
FNDA:0,_RNvNtNtCs87GxMFlPkU4_10gql_parser8analysis12pattern_info34collect_path_term_expression_roots
FNDA:0,_RNvNtNtCs87GxMFlPkU4_10gql_parser8analysis12pattern_info36collect_path_factor_expression_roots
FNDA:0,_RNvNtNtCs87GxMFlPkU4_10gql_parser8analysis12pattern_info37collect_path_pattern_expression_roots
FNF:27
FNH:25
DA:53,2
DA:54,2
DA:55,2
DA:56,2
DA:57,2
DA:71,2
DA:72,2
DA:74,2
DA:75,2
DA:76,2
DA:77,2
DA:78,2
DA:79,2
DA:80,2
DA:81,2
DA:82,2
DA:83,2
DA:84,2
DA:86,2
DA:87,4
DA:88,4
DA:89,4
DA:90,2
DA:92,4
DA:93,4
DA:95,4
DA:96,4
DA:97,4
DA:99,4
DA:100,4
DA:101,4
DA:102,4
DA:103,4
DA:104,4
DA:105,0
DA:106,0
DA:107,0
DA:108,0
DA:109,0
DA:110,0
DA:111,0
DA:112,0
DA:114,4
DA:115,4
DA:116,4
DA:118,4
DA:120,4
DA:121,8
DA:122,8
DA:123,8
DA:124,4
DA:126,8
DA:127,8
DA:128,8
DA:129,8
DA:130,8
DA:131,0
DA:132,0
DA:133,0
DA:134,0
DA:135,0
DA:136,0
DA:138,8
DA:140,0
DA:141,0
DA:143,0
DA:144,0
DA:145,0
DA:146,0
DA:147,0
DA:148,0
DA:149,0
DA:150,0
DA:151,0
DA:153,0
DA:154,0
DA:155,0
DA:156,0
DA:157,0
DA:158,0
DA:159,0
DA:160,0
DA:162,0
DA:163,0
DA:164,0
DA:165,0
DA:166,0
DA:167,0
DA:168,0
DA:169,0
DA:170,0
DA:172,0
DA:174,8
DA:175,8
DA:176,8
DA:177,8
DA:178,8
DA:179,8
DA:180,6
DA:181,6
DA:183,6
DA:184,6
DA:185,6
DA:186,6
DA:188,6
DA:189,5
DA:190,5
DA:192,2
DA:193,2
DA:195,2
DA:196,2
DA:197,2
DA:198,2
DA:199,2
DA:202,8
DA:204,7
DA:205,7
DA:206,7
DA:207,7
DA:208,7
DA:209,7
DA:211,6
DA:212,6
DA:213,1
DA:214,5
DA:216,5
DA:217,5
DA:218,5
DA:219,6
DA:221,4
DA:222,4
DA:223,4
DA:224,0
DA:227,4
DA:228,4
DA:229,2
DA:230,2
DA:231,2
DA:232,4
DA:234,9
DA:235,12
DA:236,3
DA:237,3
DA:238,9
DA:239,9
DA:241,2
DA:242,2
DA:243,2
DA:245,2
DA:246,2
DA:247,2
DA:248,2
DA:250,2
DA:251,2
DA:252,5
DA:253,5
DA:254,5
DA:255,2
DA:256,2
DA:259,13
DA:260,13
DA:262,9
DA:265,1
DA:266,1
DA:267,1
DA:268,0
DA:269,0
DA:270,1
DA:272,1
DA:273,1
DA:274,2
DA:275,2
DA:277,2
DA:278,1
DA:280,1
DA:282,1
DA:286,13
DA:289,5
DA:290,5
DA:291,5
DA:292,5
DA:293,5
DA:294,2
DA:295,3
DA:297,5
DA:298,0
DA:299,0
DA:300,0
DA:301,5
DA:303,5
DA:304,5
DA:305,5
DA:306,5
DA:308,5
DA:309,5
DA:310,5
DA:311,5
DA:312,5
DA:313,0
DA:314,5
DA:316,5
DA:317,5
DA:319,0
DA:320,0
DA:321,0
DA:322,0
DA:324,0
DA:325,0
DA:326,0
DA:327,0
DA:328,0
DA:329,0
DA:330,0
DA:332,5
DA:333,5
DA:334,5
DA:335,5
DA:336,5
DA:337,0
DA:338,0
DA:339,0
DA:340,0
DA:341,0
DA:342,0
DA:343,0
DA:344,0
DA:346,5
DA:347,5
DA:348,5
DA:350,5
DA:352,5
DA:353,9
DA:354,9
DA:355,9
DA:356,5
DA:358,9
DA:359,9
DA:360,9
DA:361,9
DA:362,9
DA:363,9
DA:364,0
DA:365,0
DA:366,0
DA:367,0
DA:369,9
DA:371,9
DA:372,9
DA:373,9
DA:374,9
DA:375,9
DA:376,7
DA:377,7
DA:378,1
DA:379,1
DA:380,1
DA:381,6
DA:383,7
DA:384,0
DA:385,7
DA:387,2
DA:388,2
DA:389,2
DA:390,1
DA:391,1
DA:392,1
DA:393,1
DA:395,2
DA:396,0
DA:397,2
DA:398,0
DA:401,9
DA:411,3
DA:412,3
DA:413,3
DA:415,3
DA:416,0
DA:419,3
DA:420,3
DA:422,0
DA:425,3
DA:426,3
DA:428,0
DA:431,3
DA:432,3
DA:433,0
DA:435,3
DA:438,1
DA:439,1
DA:440,1
DA:443,1
DA:445,1
DA:446,1
DA:447,1
DA:448,1
DA:449,1
DA:450,1
DA:454,1
DA:457,1
DA:458,1
DA:460,1
DA:462,1
DA:463,1
DA:464,1
DA:465,1
DA:469,1
DA:472,1
DA:473,1
DA:474,1
DA:477,1
DA:478,1
DA:481,1
DA:482,1
BRF:0
BRH:0
LF:313
LH:233
end_of_record
SF:/Users/d072013/SAPDevelop/gql_parser/src/analysis/query_info.rs
FN:653,_RNvNtNtNtCs6qJP7SanZgw_10gql_parser8analysis10query_info5tests15first_statement
FN:720,_RNvNtNtNtCs6qJP7SanZgw_10gql_parser8analysis10query_info5testss_44query_info_is_empty_for_non_query_statements
FN:698,_RNvNtNtNtCs6qJP7SanZgw_10gql_parser8analysis10query_info5testss_49query_info_preserves_composite_pipeline_structure
FN:660,_RNvNtNtNtCs6qJP7SanZgw_10gql_parser8analysis10query_info5testss_55query_info_extracts_clause_sequence_and_define_use_sets
FN:91,_RNvMNtNtCs6qJP7SanZgw_10gql_parser8analysis10query_infoNtB2_9QueryInfo8from_ast
FN:181,_RNvMs_NtNtCs6qJP7SanZgw_10gql_parser8analysis10query_infoNtB4_17QueryInfoAnalyzer11push_clause
FN:120,_RNvMs_NtNtCs6qJP7SanZgw_10gql_parser8analysis10query_infoNtB4_17QueryInfoAnalyzer13analyze_query
FN:113,_RNvMs_NtNtCs6qJP7SanZgw_10gql_parser8analysis10query_infoNtB4_17QueryInfoAnalyzer17analyze_statement
FN:142,_RNvMs_NtNtCs6qJP7SanZgw_10gql_parser8analysis10query_infoNtB4_17QueryInfoAnalyzer20analyze_linear_query
FN:395,_RNvMs_NtNtCs6qJP7SanZgw_10gql_parser8analysis10query_infoNtB4_17QueryInfoAnalyzer21analyze_result_clause
FN:213,_RNvMs_NtNtCs6qJP7SanZgw_10gql_parser8analysis10query_infoNtB4_17QueryInfoAnalyzer24analyze_primitive_clause
FN:474,_RNvNtNtCs6qJP7SanZgw_10gql_parser8analysis10query_info23variable_sets_from_call
FN:468,_RNvNtNtCs6qJP7SanZgw_10gql_parser8analysis10query_info24variable_sets_from_match
FN:523,_RNvNtNtCs6qJP7SanZgw_10gql_parser8analysis10query_info29collect_call_expression_roots
FN:634,_RNvNtNtCs6qJP7SanZgw_10gql_parser8analysis10query_info29count_graph_patterns_in_match
FN:504,_RNvNtNtCs6qJP7SanZgw_10gql_parser8analysis10query_info30collect_match_expression_roots
FN:615,_RNvNtNtCs6qJP7SanZgw_10gql_parser8analysis10query_info31collect_return_expression_roots
FN:542,_RNvNtNtCs6qJP7SanZgw_10gql_parser8analysis10query_info31collect_select_expression_roots
FN:454,_RINvMs0_NtNtCs6qJP7SanZgw_10gql_parser8analysis10query_infoNtB6_18ExpressionMetadata16from_expressionsARNtNtNtBa_3ast10expression10Expressionj1_EBa_
FN:454,_RINvMs0_NtNtCs6qJP7SanZgw_10gql_parser8analysis10query_infoNtB6_18ExpressionMetadata16from_expressionsINtNtCs5bkkNO3hTYU_5alloc3vec3VecRNtNtNtBa_3ast10expression10ExpressionEEBa_
FN:454,_RINvMs0_NtNtCs6qJP7SanZgw_10gql_parser8analysis10query_infoNtB6_18ExpressionMetadata16from_expressionsINtNtNtNtCsezyhsC6CBT9_4core4iter8adapters3map3MapINtNtNtB1L_5slice4iter4IterNtNtNtBa_3ast5query21LetVariableDefinitionENCNvMs_B6_NtB6_17QueryInfoAnalyzer24analyze_primitive_clauses_0EEBa_
FN:284,_RNCNvMs_NtNtCs6qJP7SanZgw_10gql_parser8analysis10query_infoNtB6_17QueryInfoAnalyzer24analyze_primitive_clause0Ba_
FN:454,_RINvMs0_NtNtCs87GxMFlPkU4_10gql_parser8analysis10query_infoNtB6_18ExpressionMetadata16from_expressionsARNtNtNtBa_3ast10expression10Expressionj1_EBa_
FN:454,_RINvMs0_NtNtCs87GxMFlPkU4_10gql_parser8analysis10query_infoNtB6_18ExpressionMetadata16from_expressionsINtNtCs5bkkNO3hTYU_5alloc3vec3VecRNtNtNtBa_3ast10expression10ExpressionEEBa_
FN:454,_RINvMs0_NtNtCs87GxMFlPkU4_10gql_parser8analysis10query_infoNtB6_18ExpressionMetadata16from_expressionsINtNtNtNtCsezyhsC6CBT9_4core4iter8adapters3map3MapINtNtNtB1L_5slice4iter4IterNtNtNtBa_3ast5query21LetVariableDefinitionENCNvMs_B6_NtB6_17QueryInfoAnalyzer24analyze_primitive_clauses_0EEBa_
FN:284,_RNCNvMs_NtNtCs87GxMFlPkU4_10gql_parser8analysis10query_infoNtB6_17QueryInfoAnalyzer24analyze_primitive_clause0Ba_
FN:91,_RNvMNtNtCs87GxMFlPkU4_10gql_parser8analysis10query_infoNtB2_9QueryInfo8from_ast
FN:181,_RNvMs_NtNtCs87GxMFlPkU4_10gql_parser8analysis10query_infoNtB4_17QueryInfoAnalyzer11push_clause
FN:120,_RNvMs_NtNtCs87GxMFlPkU4_10gql_parser8analysis10query_infoNtB4_17QueryInfoAnalyzer13analyze_query
FN:113,_RNvMs_NtNtCs87GxMFlPkU4_10gql_parser8analysis10query_infoNtB4_17QueryInfoAnalyzer17analyze_statement
FN:142,_RNvMs_NtNtCs87GxMFlPkU4_10gql_parser8analysis10query_infoNtB4_17QueryInfoAnalyzer20analyze_linear_query
FN:395,_RNvMs_NtNtCs87GxMFlPkU4_10gql_parser8analysis10query_infoNtB4_17QueryInfoAnalyzer21analyze_result_clause
FN:213,_RNvMs_NtNtCs87GxMFlPkU4_10gql_parser8analysis10query_infoNtB4_17QueryInfoAnalyzer24analyze_primitive_clause
FN:474,_RNvNtNtCs87GxMFlPkU4_10gql_parser8analysis10query_info23variable_sets_from_call
FN:468,_RNvNtNtCs87GxMFlPkU4_10gql_parser8analysis10query_info24variable_sets_from_match
FN:523,_RNvNtNtCs87GxMFlPkU4_10gql_parser8analysis10query_info29collect_call_expression_roots
FN:634,_RNvNtNtCs87GxMFlPkU4_10gql_parser8analysis10query_info29count_graph_patterns_in_match
FN:504,_RNvNtNtCs87GxMFlPkU4_10gql_parser8analysis10query_info30collect_match_expression_roots
FN:615,_RNvNtNtCs87GxMFlPkU4_10gql_parser8analysis10query_info31collect_return_expression_roots
FN:542,_RNvNtNtCs87GxMFlPkU4_10gql_parser8analysis10query_info31collect_select_expression_roots
FNDA:3,_RNvNtNtNtCs6qJP7SanZgw_10gql_parser8analysis10query_info5tests15first_statement
FNDA:1,_RNvNtNtNtCs6qJP7SanZgw_10gql_parser8analysis10query_info5testss_44query_info_is_empty_for_non_query_statements
FNDA:1,_RNvNtNtNtCs6qJP7SanZgw_10gql_parser8analysis10query_info5testss_49query_info_preserves_composite_pipeline_structure
FNDA:1,_RNvNtNtNtCs6qJP7SanZgw_10gql_parser8analysis10query_info5testss_55query_info_extracts_clause_sequence_and_define_use_sets
FNDA:5,_RNvMNtNtCs6qJP7SanZgw_10gql_parser8analysis10query_infoNtB2_9QueryInfo8from_ast
FNDA:12,_RNvMs_NtNtCs6qJP7SanZgw_10gql_parser8analysis10query_infoNtB4_17QueryInfoAnalyzer11push_clause
FNDA:6,_RNvMs_NtNtCs6qJP7SanZgw_10gql_parser8analysis10query_infoNtB4_17QueryInfoAnalyzer13analyze_query
FNDA:5,_RNvMs_NtNtCs6qJP7SanZgw_10gql_parser8analysis10query_infoNtB4_17QueryInfoAnalyzer17analyze_statement
FNDA:5,_RNvMs_NtNtCs6qJP7SanZgw_10gql_parser8analysis10query_infoNtB4_17QueryInfoAnalyzer20analyze_linear_query
FNDA:5,_RNvMs_NtNtCs6qJP7SanZgw_10gql_parser8analysis10query_infoNtB4_17QueryInfoAnalyzer21analyze_result_clause
FNDA:6,_RNvMs_NtNtCs6qJP7SanZgw_10gql_parser8analysis10query_infoNtB4_17QueryInfoAnalyzer24analyze_primitive_clause
FNDA:0,_RNvNtNtCs6qJP7SanZgw_10gql_parser8analysis10query_info23variable_sets_from_call
FNDA:4,_RNvNtNtCs6qJP7SanZgw_10gql_parser8analysis10query_info24variable_sets_from_match
FNDA:0,_RNvNtNtCs6qJP7SanZgw_10gql_parser8analysis10query_info29collect_call_expression_roots
FNDA:4,_RNvNtNtCs6qJP7SanZgw_10gql_parser8analysis10query_info29count_graph_patterns_in_match
FNDA:4,_RNvNtNtCs6qJP7SanZgw_10gql_parser8analysis10query_info30collect_match_expression_roots
FNDA:5,_RNvNtNtCs6qJP7SanZgw_10gql_parser8analysis10query_info31collect_return_expression_roots
FNDA:0,_RNvNtNtCs6qJP7SanZgw_10gql_parser8analysis10query_info31collect_select_expression_roots
FNDA:1,_RINvMs0_NtNtCs6qJP7SanZgw_10gql_parser8analysis10query_infoNtB6_18ExpressionMetadata16from_expressionsARNtNtNtBa_3ast10expression10Expressionj1_EBa_
FNDA:9,_RINvMs0_NtNtCs6qJP7SanZgw_10gql_parser8analysis10query_infoNtB6_18ExpressionMetadata16from_expressionsINtNtCs5bkkNO3hTYU_5alloc3vec3VecRNtNtNtBa_3ast10expression10ExpressionEEBa_
FNDA:2,_RINvMs0_NtNtCs6qJP7SanZgw_10gql_parser8analysis10query_infoNtB6_18ExpressionMetadata16from_expressionsINtNtNtNtCsezyhsC6CBT9_4core4iter8adapters3map3MapINtNtNtB1L_5slice4iter4IterNtNtNtBa_3ast5query21LetVariableDefinitionENCNvMs_B6_NtB6_17QueryInfoAnalyzer24analyze_primitive_clauses_0EEBa_
FNDA:2,_RNCNvMs_NtNtCs6qJP7SanZgw_10gql_parser8analysis10query_infoNtB6_17QueryInfoAnalyzer24analyze_primitive_clause0Ba_
FNDA:0,_RINvMs0_NtNtCs87GxMFlPkU4_10gql_parser8analysis10query_infoNtB6_18ExpressionMetadata16from_expressionsARNtNtNtBa_3ast10expression10Expressionj1_EBa_
FNDA:0,_RINvMs0_NtNtCs87GxMFlPkU4_10gql_parser8analysis10query_infoNtB6_18ExpressionMetadata16from_expressionsINtNtCs5bkkNO3hTYU_5alloc3vec3VecRNtNtNtBa_3ast10expression10ExpressionEEBa_
FNDA:0,_RINvMs0_NtNtCs87GxMFlPkU4_10gql_parser8analysis10query_infoNtB6_18ExpressionMetadata16from_expressionsINtNtNtNtCsezyhsC6CBT9_4core4iter8adapters3map3MapINtNtNtB1L_5slice4iter4IterNtNtNtBa_3ast5query21LetVariableDefinitionENCNvMs_B6_NtB6_17QueryInfoAnalyzer24analyze_primitive_clauses_0EEBa_
FNDA:0,_RNCNvMs_NtNtCs87GxMFlPkU4_10gql_parser8analysis10query_infoNtB6_17QueryInfoAnalyzer24analyze_primitive_clause0Ba_
FNDA:0,_RNvMNtNtCs87GxMFlPkU4_10gql_parser8analysis10query_infoNtB2_9QueryInfo8from_ast
FNDA:0,_RNvMs_NtNtCs87GxMFlPkU4_10gql_parser8analysis10query_infoNtB4_17QueryInfoAnalyzer11push_clause
FNDA:0,_RNvMs_NtNtCs87GxMFlPkU4_10gql_parser8analysis10query_infoNtB4_17QueryInfoAnalyzer13analyze_query
FNDA:0,_RNvMs_NtNtCs87GxMFlPkU4_10gql_parser8analysis10query_infoNtB4_17QueryInfoAnalyzer17analyze_statement
FNDA:0,_RNvMs_NtNtCs87GxMFlPkU4_10gql_parser8analysis10query_infoNtB4_17QueryInfoAnalyzer20analyze_linear_query
FNDA:0,_RNvMs_NtNtCs87GxMFlPkU4_10gql_parser8analysis10query_infoNtB4_17QueryInfoAnalyzer21analyze_result_clause
FNDA:0,_RNvMs_NtNtCs87GxMFlPkU4_10gql_parser8analysis10query_infoNtB4_17QueryInfoAnalyzer24analyze_primitive_clause
FNDA:0,_RNvNtNtCs87GxMFlPkU4_10gql_parser8analysis10query_info23variable_sets_from_call
FNDA:0,_RNvNtNtCs87GxMFlPkU4_10gql_parser8analysis10query_info24variable_sets_from_match
FNDA:0,_RNvNtNtCs87GxMFlPkU4_10gql_parser8analysis10query_info29collect_call_expression_roots
FNDA:0,_RNvNtNtCs87GxMFlPkU4_10gql_parser8analysis10query_info29count_graph_patterns_in_match
FNDA:0,_RNvNtNtCs87GxMFlPkU4_10gql_parser8analysis10query_info30collect_match_expression_roots
FNDA:0,_RNvNtNtCs87GxMFlPkU4_10gql_parser8analysis10query_info31collect_return_expression_roots
FNDA:0,_RNvNtNtCs87GxMFlPkU4_10gql_parser8analysis10query_info31collect_select_expression_roots
FNF:20
FNH:17
DA:91,5
DA:92,5
DA:93,5
DA:95,5
DA:96,5
DA:97,5
DA:98,5
DA:99,5
DA:100,5
DA:101,5
DA:113,5
DA:114,5
DA:115,4
DA:116,1
DA:118,5
DA:120,6
DA:121,6
DA:122,5
DA:123,5
DA:124,5
DA:125,5
DA:126,5
DA:128,1
DA:129,1
DA:130,1
DA:132,1
DA:133,1
DA:134,1
DA:135,1
DA:136,1
DA:138,0
DA:140,6
DA:142,5
DA:143,5
DA:145,5
DA:146,1
DA:147,1
DA:148,1
DA:149,1
DA:150,1
DA:151,1
DA:152,1
DA:153,1
DA:154,1
DA:155,1
DA:156,1
DA:160,2
DA:161,2
DA:162,2
DA:164,1
DA:165,1
DA:166,1
DA:168,4
DA:169,4
DA:170,4
DA:171,4
DA:173,4
DA:174,4
DA:175,4
DA:178,5
DA:181,12
DA:182,12
DA:183,12
DA:184,12
DA:185,12
DA:186,12
DA:187,12
DA:188,12
DA:189,12
DA:190,12
DA:191,12
DA:192,12
DA:193,12
DA:194,12
DA:196,12
DA:197,12
DA:198,12
DA:199,12
DA:200,12
DA:201,12
DA:202,12
DA:203,12
DA:204,12
DA:205,12
DA:206,12
DA:207,12
DA:208,12
DA:210,12
DA:211,12
DA:213,6
DA:214,6
DA:215,6
DA:216,6
DA:217,6
DA:218,6
DA:219,6
DA:220,4
DA:221,4
DA:222,4
DA:223,4
DA:224,4
DA:225,4
DA:227,4
DA:228,4
DA:230,4
DA:231,4
DA:232,4
DA:233,4
DA:234,4
DA:235,4
DA:236,4
DA:237,4
DA:238,4
DA:239,4
DA:242,0
DA:243,0
DA:244,0
DA:245,0
DA:246,0
DA:247,0
DA:249,0
DA:250,0
DA:251,0
DA:253,0
DA:254,0
DA:256,0
DA:257,0
DA:258,0
DA:259,0
DA:260,0
DA:264,0
DA:265,0
DA:266,0
DA:267,0
DA:268,0
DA:269,0
DA:270,0
DA:271,0
DA:272,0
DA:273,0
DA:274,0
DA:275,0
DA:276,0
DA:277,0
DA:278,0
DA:279,0
DA:280,2
DA:281,2
DA:282,2
DA:283,2
DA:284,2
DA:285,2
DA:287,2
DA:288,2
DA:291,2
DA:292,2
DA:293,2
DA:294,2
DA:295,2
DA:296,2
DA:297,2
DA:298,2
DA:299,2
DA:303,0
DA:304,0
DA:305,0
DA:307,0
DA:308,0
DA:309,0
DA:310,0
DA:311,0
DA:312,0
DA:314,0
DA:316,0
DA:318,0
DA:319,0
DA:320,0
DA:321,0
DA:322,0
DA:323,0
DA:324,0
DA:325,0
DA:326,0
DA:330,0
DA:331,0
DA:333,0
DA:334,0
DA:335,0
DA:336,0
DA:337,0
DA:339,0
DA:340,0
DA:341,0
DA:343,0
DA:344,0
DA:345,0
DA:347,0
DA:349,0
DA:350,0
DA:351,0
DA:352,0
DA:353,0
DA:354,0
DA:355,0
DA:356,0
DA:357,0
DA:361,0
DA:362,0
DA:363,0
DA:364,0
DA:365,0
DA:367,0
DA:368,0
DA:369,0
DA:370,0
DA:371,0
DA:373,0
DA:375,0
DA:376,0
DA:377,0
DA:378,0
DA:380,0
DA:381,0
DA:382,0
DA:383,0
DA:384,0
DA:385,0
DA:386,0
DA:387,0
DA:388,0
DA:389,0
DA:393,6
DA:395,5
DA:396,5
DA:397,5
DA:398,5
DA:399,5
DA:400,5
DA:401,5
DA:402,5
DA:403,5
DA:405,5
DA:406,6
DA:407,6
DA:408,2
DA:409,4
DA:411,0
DA:413,5
DA:414,5
DA:415,5
DA:417,5
DA:418,5
DA:419,5
DA:420,5
DA:421,5
DA:422,5
DA:423,5
DA:424,5
DA:425,5
DA:429,0
DA:430,0
DA:431,0
DA:432,0
DA:433,0
DA:434,0
DA:435,0
DA:436,0
DA:437,0
DA:438,0
DA:439,0
DA:440,0
DA:441,0
DA:443,5
DA:454,12
DA:455,12
DA:457,12
DA:458,10
DA:459,10
DA:460,10
DA:461,10
DA:462,10
DA:464,12
DA:465,12
DA:468,4
DA:469,4
DA:470,4
DA:471,4
DA:472,4
DA:474,0
DA:475,0
DA:476,0
DA:477,0
DA:478,0
DA:480,0
DA:481,0
DA:482,0
DA:483,0
DA:484,0
DA:485,0
DA:486,0
DA:488,0
DA:489,0
DA:490,0
DA:491,0
DA:492,0
DA:493,0
DA:494,0
DA:495,0
DA:497,0
DA:501,0
DA:502,0
DA:504,4
DA:505,4
DA:506,4
DA:507,4
DA:508,4
DA:509,0
DA:510,0
DA:511,0
DA:512,0
DA:513,0
DA:514,0
DA:515,0
DA:516,0
DA:517,0
DA:521,4
DA:523,0
DA:524,0
DA:525,0
DA:526,0
DA:527,0
DA:528,0
DA:529,0
DA:530,0
DA:531,0
DA:533,0
DA:534,0
DA:535,0
DA:536,0
DA:537,0
DA:540,0
DA:542,0
DA:543,0
DA:544,0
DA:545,0
DA:546,0
DA:548,0
DA:549,0
DA:550,0
DA:551,0
DA:552,0
DA:554,0
DA:555,0
DA:556,0
DA:557,0
DA:558,0
DA:559,0
DA:560,0
DA:562,0
DA:563,0
DA:564,0
DA:565,0
DA:566,0
DA:567,0
DA:568,0
DA:569,0
DA:570,0
DA:571,0
DA:572,0
DA:573,0
DA:574,0
DA:575,0
DA:580,0
DA:582,0
DA:583,0
DA:584,0
DA:586,0
DA:587,0
DA:588,0
DA:589,0
DA:590,0
DA:592,0
DA:594,0
DA:595,0
DA:596,0
DA:598,0
DA:599,0
DA:600,0
DA:601,0
DA:602,0
DA:604,0
DA:605,0
DA:606,0
DA:608,0
DA:609,0
DA:610,0
DA:612,0
DA:613,0
DA:615,5
DA:616,5
DA:617,5
DA:618,5
DA:619,5
DA:620,6
DA:621,6
DA:622,6
DA:623,0
DA:625,5
DA:626,0
DA:627,0
DA:628,0
DA:629,0
DA:631,5
DA:632,5
DA:634,4
DA:635,4
DA:636,4
DA:637,0
DA:638,0
DA:639,0
DA:640,0
DA:641,0
DA:645,4
DA:653,3
DA:654,3
DA:655,3
DA:656,3
DA:657,3
DA:660,1
DA:661,1
DA:662,1
DA:665,1
DA:667,1
DA:668,1
DA:669,1
DA:671,1
DA:672,1
DA:673,1
DA:676,1
DA:677,1
DA:679,1
DA:680,1
DA:681,1
DA:682,1
DA:683,1
DA:685,1
DA:686,1
DA:687,1
DA:688,1
DA:690,1
DA:691,1
DA:692,1
DA:693,1
DA:694,1
DA:695,1
DA:698,1
DA:699,1
DA:701,1
DA:703,1
DA:705,1
DA:706,1
DA:707,1
DA:708,1
DA:710,0
DA:713,1
DA:714,1
DA:715,1
DA:716,1
DA:717,1
DA:720,1
DA:721,1
DA:723,1
DA:725,1
DA:726,1
DA:727,1
DA:728,1
DA:729,1
BRF:0
BRH:0
LF:478
LH:248
end_of_record
SF:/Users/d072013/SAPDevelop/gql_parser/src/analysis/variable_dependency.rs
FN:146,_RNvNtNtNtCs6qJP7SanZgw_10gql_parser8analysis19variable_dependency5tests15first_statement
FN:178,_RNvNtNtNtCs6qJP7SanZgw_10gql_parser8analysis19variable_dependency5testss_41dependency_graph_tracks_unresolved_usages
FN:153,_RNvNtNtNtCs6qJP7SanZgw_10gql_parser8analysis19variable_dependency5testss_53dependency_graph_builds_cross_clause_define_use_edges
FN:165,_RNCNvNtNtNtCs6qJP7SanZgw_10gql_parser8analysis19variable_dependency5testss_53dependency_graph_builds_cross_clause_define_use_edges0B9_
FN:157,_RNCNvNtNtNtCs6qJP7SanZgw_10gql_parser8analysis19variable_dependency5testss_53dependency_graph_builds_cross_clause_define_use_edgess0_0B9_
FN:158,_RNCNvNtNtNtCs6qJP7SanZgw_10gql_parser8analysis19variable_dependency5testss_53dependency_graph_builds_cross_clause_define_use_edgess1_0B9_
FN:159,_RNCNvNtNtNtCs6qJP7SanZgw_10gql_parser8analysis19variable_dependency5testss_53dependency_graph_builds_cross_clause_define_use_edgess2_0B9_
FN:160,_RNCNvNtNtNtCs6qJP7SanZgw_10gql_parser8analysis19variable_dependency5testss_53dependency_graph_builds_cross_clause_define_use_edgess3_0B9_
FN:171,_RNCNvNtNtNtCs6qJP7SanZgw_10gql_parser8analysis19variable_dependency5testss_53dependency_graph_builds_cross_clause_define_use_edgess_0B9_
FN:135,_RNCNvMNtNtCs6qJP7SanZgw_10gql_parser8analysis19variable_dependencyNtB4_23VariableDependencyGraph20unresolved_variables0B8_
FN:97,_RNvMNtNtCs6qJP7SanZgw_10gql_parser8analysis19variable_dependencyNtB2_23VariableDependencyGraph11push_usages
FN:114,_RNvMNtNtCs6qJP7SanZgw_10gql_parser8analysis19variable_dependencyNtB2_23VariableDependencyGraph16push_definitions
FN:132,_RNvMNtNtCs6qJP7SanZgw_10gql_parser8analysis19variable_dependencyNtB2_23VariableDependencyGraph20unresolved_variables
FN:62,_RNvMNtNtCs6qJP7SanZgw_10gql_parser8analysis19variable_dependencyNtB2_23VariableDependencyGraph5build
FN:135,_RNCNvMNtNtCs87GxMFlPkU4_10gql_parser8analysis19variable_dependencyNtB4_23VariableDependencyGraph20unresolved_variables0B8_
FNDA:2,_RNvNtNtNtCs6qJP7SanZgw_10gql_parser8analysis19variable_dependency5tests15first_statement
FNDA:1,_RNvNtNtNtCs6qJP7SanZgw_10gql_parser8analysis19variable_dependency5testss_41dependency_graph_tracks_unresolved_usages
FNDA:1,_RNvNtNtNtCs6qJP7SanZgw_10gql_parser8analysis19variable_dependency5testss_53dependency_graph_builds_cross_clause_define_use_edges
FNDA:1,_RNCNvNtNtNtCs6qJP7SanZgw_10gql_parser8analysis19variable_dependency5testss_53dependency_graph_builds_cross_clause_define_use_edges0B9_
FNDA:1,_RNCNvNtNtNtCs6qJP7SanZgw_10gql_parser8analysis19variable_dependency5testss_53dependency_graph_builds_cross_clause_define_use_edgess0_0B9_
FNDA:2,_RNCNvNtNtNtCs6qJP7SanZgw_10gql_parser8analysis19variable_dependency5testss_53dependency_graph_builds_cross_clause_define_use_edgess1_0B9_
FNDA:1,_RNCNvNtNtNtCs6qJP7SanZgw_10gql_parser8analysis19variable_dependency5testss_53dependency_graph_builds_cross_clause_define_use_edgess2_0B9_
FNDA:2,_RNCNvNtNtNtCs6qJP7SanZgw_10gql_parser8analysis19variable_dependency5testss_53dependency_graph_builds_cross_clause_define_use_edgess3_0B9_
FNDA:2,_RNCNvNtNtNtCs6qJP7SanZgw_10gql_parser8analysis19variable_dependency5testss_53dependency_graph_builds_cross_clause_define_use_edgess_0B9_
FNDA:1,_RNCNvMNtNtCs6qJP7SanZgw_10gql_parser8analysis19variable_dependencyNtB4_23VariableDependencyGraph20unresolved_variables0B8_
FNDA:4,_RNvMNtNtCs6qJP7SanZgw_10gql_parser8analysis19variable_dependencyNtB2_23VariableDependencyGraph11push_usages
FNDA:4,_RNvMNtNtCs6qJP7SanZgw_10gql_parser8analysis19variable_dependencyNtB2_23VariableDependencyGraph16push_definitions
FNDA:1,_RNvMNtNtCs6qJP7SanZgw_10gql_parser8analysis19variable_dependencyNtB2_23VariableDependencyGraph20unresolved_variables
FNDA:2,_RNvMNtNtCs6qJP7SanZgw_10gql_parser8analysis19variable_dependencyNtB2_23VariableDependencyGraph5build
FNDA:0,_RNCNvMNtNtCs87GxMFlPkU4_10gql_parser8analysis19variable_dependencyNtB4_23VariableDependencyGraph20unresolved_variables0B8_
FNF:14
FNH:14
DA:62,2
DA:63,2
DA:65,2
DA:66,2
DA:68,4
DA:69,4
DA:70,4
DA:71,4
DA:72,4
DA:74,4
DA:75,3
DA:76,3
DA:77,2
DA:78,2
DA:79,2
DA:80,2
DA:81,2
DA:82,2
DA:83,1
DA:84,1
DA:87,4
DA:88,4
DA:89,2
DA:90,2
DA:91,2
DA:94,2
DA:95,2
DA:97,4
DA:98,4
DA:100,4
DA:101,3
DA:102,3
DA:103,3
DA:104,3
DA:105,3
DA:106,3
DA:107,3
DA:108,3
DA:109,3
DA:111,4
DA:112,4
DA:114,4
DA:115,4
DA:117,4
DA:118,2
DA:119,2
DA:120,2
DA:121,2
DA:122,2
DA:123,2
DA:124,2
DA:125,2
DA:126,2
DA:128,4
DA:129,4
DA:132,1
DA:133,1
DA:134,1
DA:135,1
DA:136,1
DA:137,1
DA:146,2
DA:147,2
DA:148,2
DA:149,2
DA:150,2
DA:153,1
DA:154,1
DA:155,1
DA:157,1
DA:158,2
DA:159,1
DA:160,2
DA:162,1
DA:163,1
DA:164,1
DA:165,1
DA:166,1
DA:168,1
DA:169,1
DA:170,1
DA:171,2
DA:172,1
DA:174,1
DA:175,1
DA:178,1
DA:179,1
DA:180,1
DA:182,1
DA:183,1
DA:184,1
DA:185,1
BRF:0
BRH:0
LF:99
LH:99
end_of_record
SF:/Users/d072013/SAPDevelop/gql_parser/src/ast/catalog.rs
FN:283,_RNvNtNtNtCs6qJP7SanZgw_10gql_parser3ast7catalog5testss_20test_drop_statements
FN:250,_RNvNtNtNtCs6qJP7SanZgw_10gql_parser3ast7catalog5testss_28test_create_schema_statement
FN:234,_RNvNtNtNtCs6qJP7SanZgw_10gql_parser3ast7catalog5testss_29test_graph_reference_variants
FN:262,_RNvNtNtNtCs6qJP7SanZgw_10gql_parser3ast7catalog5testss_29test_graph_type_spec_variants
FN:216,_RNvNtNtNtCs6qJP7SanZgw_10gql_parser3ast7catalog5testss_30test_schema_reference_variants
FN:195,_RNvMNtNtCs6qJP7SanZgw_10gql_parser3ast7catalogNtB2_20CatalogStatementKind4span
FN:195,_RNvMNtNtCs87GxMFlPkU4_10gql_parser3ast7catalogNtB2_20CatalogStatementKind4span
FNDA:1,_RNvNtNtNtCs6qJP7SanZgw_10gql_parser3ast7catalog5testss_20test_drop_statements
FNDA:1,_RNvNtNtNtCs6qJP7SanZgw_10gql_parser3ast7catalog5testss_28test_create_schema_statement
FNDA:1,_RNvNtNtNtCs6qJP7SanZgw_10gql_parser3ast7catalog5testss_29test_graph_reference_variants
FNDA:1,_RNvNtNtNtCs6qJP7SanZgw_10gql_parser3ast7catalog5testss_29test_graph_type_spec_variants
FNDA:1,_RNvNtNtNtCs6qJP7SanZgw_10gql_parser3ast7catalog5testss_30test_schema_reference_variants
FNDA:0,_RNvMNtNtCs6qJP7SanZgw_10gql_parser3ast7catalogNtB2_20CatalogStatementKind4span
FNDA:0,_RNvMNtNtCs87GxMFlPkU4_10gql_parser3ast7catalogNtB2_20CatalogStatementKind4span
FNF:6
FNH:5
DA:195,0
DA:196,0
DA:197,0
DA:198,0
DA:199,0
DA:200,0
DA:201,0
DA:202,0
DA:203,0
DA:204,0
DA:205,0
DA:207,0
DA:216,1
DA:217,1
DA:218,1
DA:219,1
DA:220,1
DA:221,1
DA:223,1
DA:224,1
DA:226,1
DA:227,1
DA:228,1
DA:229,1
DA:230,1
DA:231,1
DA:234,1
DA:235,1
DA:236,1
DA:237,1
DA:238,1
DA:239,1
DA:240,1
DA:241,1
DA:242,1
DA:243,1
DA:245,1
DA:246,1
DA:247,1
DA:250,1
DA:251,1
DA:252,1
DA:253,1
DA:254,1
DA:255,1
DA:256,1
DA:257,1
DA:258,1
DA:259,1
DA:262,1
DA:263,1
DA:264,1
DA:266,1
DA:267,1
DA:268,1
DA:269,1
DA:270,1
DA:271,1
DA:272,1
DA:273,1
DA:275,1
DA:276,1
DA:277,1
DA:278,1
DA:279,1
DA:280,1
DA:283,1
DA:284,1
DA:285,1
DA:286,1
DA:287,1
DA:288,1
DA:289,1
DA:291,1
DA:292,1
DA:293,1
DA:294,1
DA:295,1
DA:296,1
DA:297,1
DA:298,1
DA:299,1
BRF:0
BRH:0
LF:82
LH:70
end_of_record
SF:/Users/d072013/SAPDevelop/gql_parser/src/ast/expression.rs
FN:97,_RNvMNtNtCs6qJP7SanZgw_10gql_parser3ast10expressionNtB2_10Expression4span
FN:471,_RNvMs0_NtNtCs6qJP7SanZgw_10gql_parser3ast10expressionNtB5_14CaseExpression4span
FN:567,_RNvMs1_NtNtCs6qJP7SanZgw_10gql_parser3ast10expressionNtB5_17AggregateFunction4span
FN:296,_RNvMs_NtNtCs6qJP7SanZgw_10gql_parser3ast10expressionNtB4_9Predicate4span
FN:97,_RNvMNtNtCs87GxMFlPkU4_10gql_parser3ast10expressionNtB2_10Expression4span
FN:471,_RNvMs0_NtNtCs87GxMFlPkU4_10gql_parser3ast10expressionNtB5_14CaseExpression4span
FN:567,_RNvMs1_NtNtCs87GxMFlPkU4_10gql_parser3ast10expressionNtB5_17AggregateFunction4span
FN:296,_RNvMs_NtNtCs87GxMFlPkU4_10gql_parser3ast10expressionNtB4_9Predicate4span
FNDA:4633,_RNvMNtNtCs6qJP7SanZgw_10gql_parser3ast10expressionNtB2_10Expression4span
FNDA:0,_RNvMs0_NtNtCs6qJP7SanZgw_10gql_parser3ast10expressionNtB5_14CaseExpression4span
FNDA:15,_RNvMs1_NtNtCs6qJP7SanZgw_10gql_parser3ast10expressionNtB5_17AggregateFunction4span
FNDA:0,_RNvMs_NtNtCs6qJP7SanZgw_10gql_parser3ast10expressionNtB4_9Predicate4span
FNDA:0,_RNvMNtNtCs87GxMFlPkU4_10gql_parser3ast10expressionNtB2_10Expression4span
FNDA:0,_RNvMs0_NtNtCs87GxMFlPkU4_10gql_parser3ast10expressionNtB5_14CaseExpression4span
FNDA:0,_RNvMs1_NtNtCs87GxMFlPkU4_10gql_parser3ast10expressionNtB5_17AggregateFunction4span
FNDA:0,_RNvMs_NtNtCs87GxMFlPkU4_10gql_parser3ast10expressionNtB4_9Predicate4span
FNF:4
FNH:2
DA:97,4633
DA:98,4633
DA:99,25
DA:100,0
DA:101,2
DA:102,8
DA:103,0
DA:104,0
DA:105,15
DA:106,4580
DA:107,0
DA:108,1
DA:109,0
DA:110,0
DA:111,1
DA:112,0
DA:113,0
DA:114,0
DA:115,0
DA:116,0
DA:117,0
DA:118,0
DA:119,0
DA:120,1
DA:122,4633
DA:296,0
DA:297,0
DA:298,0
DA:299,0
DA:300,0
DA:301,0
DA:302,0
DA:303,0
DA:304,0
DA:305,0
DA:306,0
DA:307,0
DA:308,0
DA:310,0
DA:471,0
DA:472,0
DA:473,0
DA:474,0
DA:476,0
DA:567,15
DA:568,15
DA:569,0
DA:570,11
DA:571,4
DA:573,15
BRF:0
BRH:0
LF:50
LH:16
end_of_record
SF:/Users/d072013/SAPDevelop/gql_parser/src/ast/graph_type.rs
FN:168,_RNvMNtNtCs6qJP7SanZgw_10gql_parser3ast10graph_typeNtB2_19GraphTypeConstraint4span
FN:168,_RNvMNtNtCs87GxMFlPkU4_10gql_parser3ast10graph_typeNtB2_19GraphTypeConstraint4span
FNDA:0,_RNvMNtNtCs6qJP7SanZgw_10gql_parser3ast10graph_typeNtB2_19GraphTypeConstraint4span
FNDA:0,_RNvMNtNtCs87GxMFlPkU4_10gql_parser3ast10graph_typeNtB2_19GraphTypeConstraint4span
FNF:1
FNH:0
DA:168,0
DA:169,0
DA:170,0
DA:171,0
DA:172,0
DA:173,0
DA:174,0
DA:176,0
BRF:0
BRH:0
LF:8
LH:0
end_of_record
SF:/Users/d072013/SAPDevelop/gql_parser/src/ast/mutation.rs
FN:84,_RNvMs0_NtNtCs6qJP7SanZgw_10gql_parser3ast8mutationNtB5_28SimpleDataModifyingStatement4span
FN:107,_RNvMs1_NtNtCs6qJP7SanZgw_10gql_parser3ast8mutationNtB5_31PrimitiveDataModifyingStatement4span
FN:65,_RNvMs_NtNtCs6qJP7SanZgw_10gql_parser3ast8mutationNtB4_28SimpleDataAccessingStatement4span
FN:29,_RNvMNtNtCs6qJP7SanZgw_10gql_parser3ast8mutationNtB2_28LinearDataModifyingStatement4span
FN:151,_RNvMs2_NtNtCs6qJP7SanZgw_10gql_parser3ast8mutationNtB5_20InsertElementPattern4span
FN:177,_RNvMs3_NtNtCs6qJP7SanZgw_10gql_parser3ast8mutationNtB5_17InsertEdgePattern4span
FN:249,_RNvMs4_NtNtCs6qJP7SanZgw_10gql_parser3ast8mutationNtB5_7SetItem4span
FN:311,_RNvMs5_NtNtCs6qJP7SanZgw_10gql_parser3ast8mutationNtB5_10RemoveItem4span
FN:29,_RNvMNtNtCs87GxMFlPkU4_10gql_parser3ast8mutationNtB2_28LinearDataModifyingStatement4span
FN:84,_RNvMs0_NtNtCs87GxMFlPkU4_10gql_parser3ast8mutationNtB5_28SimpleDataModifyingStatement4span
FN:107,_RNvMs1_NtNtCs87GxMFlPkU4_10gql_parser3ast8mutationNtB5_31PrimitiveDataModifyingStatement4span
FN:151,_RNvMs2_NtNtCs87GxMFlPkU4_10gql_parser3ast8mutationNtB5_20InsertElementPattern4span
FN:177,_RNvMs3_NtNtCs87GxMFlPkU4_10gql_parser3ast8mutationNtB5_17InsertEdgePattern4span
FN:249,_RNvMs4_NtNtCs87GxMFlPkU4_10gql_parser3ast8mutationNtB5_7SetItem4span
FN:311,_RNvMs5_NtNtCs87GxMFlPkU4_10gql_parser3ast8mutationNtB5_10RemoveItem4span
FN:65,_RNvMs_NtNtCs87GxMFlPkU4_10gql_parser3ast8mutationNtB4_28SimpleDataAccessingStatement4span
FNDA:0,_RNvMs0_NtNtCs6qJP7SanZgw_10gql_parser3ast8mutationNtB5_28SimpleDataModifyingStatement4span
FNDA:0,_RNvMs1_NtNtCs6qJP7SanZgw_10gql_parser3ast8mutationNtB5_31PrimitiveDataModifyingStatement4span
FNDA:0,_RNvMs_NtNtCs6qJP7SanZgw_10gql_parser3ast8mutationNtB4_28SimpleDataAccessingStatement4span
FNDA:4341,_RNvMNtNtCs6qJP7SanZgw_10gql_parser3ast8mutationNtB2_28LinearDataModifyingStatement4span
FNDA:5,_RNvMs2_NtNtCs6qJP7SanZgw_10gql_parser3ast8mutationNtB5_20InsertElementPattern4span
FNDA:0,_RNvMs3_NtNtCs6qJP7SanZgw_10gql_parser3ast8mutationNtB5_17InsertEdgePattern4span
FNDA:2,_RNvMs4_NtNtCs6qJP7SanZgw_10gql_parser3ast8mutationNtB5_7SetItem4span
FNDA:1,_RNvMs5_NtNtCs6qJP7SanZgw_10gql_parser3ast8mutationNtB5_10RemoveItem4span
FNDA:0,_RNvMNtNtCs87GxMFlPkU4_10gql_parser3ast8mutationNtB2_28LinearDataModifyingStatement4span
FNDA:0,_RNvMs0_NtNtCs87GxMFlPkU4_10gql_parser3ast8mutationNtB5_28SimpleDataModifyingStatement4span
FNDA:0,_RNvMs1_NtNtCs87GxMFlPkU4_10gql_parser3ast8mutationNtB5_31PrimitiveDataModifyingStatement4span
FNDA:0,_RNvMs2_NtNtCs87GxMFlPkU4_10gql_parser3ast8mutationNtB5_20InsertElementPattern4span
FNDA:0,_RNvMs3_NtNtCs87GxMFlPkU4_10gql_parser3ast8mutationNtB5_17InsertEdgePattern4span
FNDA:0,_RNvMs4_NtNtCs87GxMFlPkU4_10gql_parser3ast8mutationNtB5_7SetItem4span
FNDA:0,_RNvMs5_NtNtCs87GxMFlPkU4_10gql_parser3ast8mutationNtB5_10RemoveItem4span
FNDA:0,_RNvMs_NtNtCs87GxMFlPkU4_10gql_parser3ast8mutationNtB4_28SimpleDataAccessingStatement4span
FNF:8
FNH:4
DA:29,4341
DA:30,4341
DA:31,0
DA:32,4341
DA:34,4341
DA:65,0
DA:66,0
DA:67,0
DA:68,0
DA:70,0
DA:84,0
DA:85,0
DA:86,0
DA:87,0
DA:89,0
DA:107,0
DA:108,0
DA:109,0
DA:110,0
DA:111,0
DA:112,0
DA:114,0
DA:151,5
DA:152,5
DA:153,5
DA:154,0
DA:156,5
DA:177,0
DA:178,0
DA:179,0
DA:180,0
DA:181,0
DA:183,0
DA:249,2
DA:250,2
DA:251,1
DA:252,1
DA:253,0
DA:255,2
DA:311,1
DA:312,1
DA:313,0
DA:314,1
DA:316,1
BRF:0
BRH:0
LF:44
LH:17
end_of_record
SF:/Users/d072013/SAPDevelop/gql_parser/src/ast/procedure.rs
FN:637,_RNvMNtNtCs6qJP7SanZgw_10gql_parser3ast9procedureNtB2_9Statement4span
FN:637,_RNvMNtNtCs87GxMFlPkU4_10gql_parser3ast9procedureNtB2_9Statement4span
FNDA:7,_RNvMNtNtCs6qJP7SanZgw_10gql_parser3ast9procedureNtB2_9Statement4span
FNDA:0,_RNvMNtNtCs87GxMFlPkU4_10gql_parser3ast9procedureNtB2_9Statement4span
FNF:1
FNH:1
DA:637,7
DA:638,7
DA:639,7
DA:640,0
DA:641,0
DA:643,7
BRF:0
BRH:0
LF:6
LH:4
end_of_record
SF:/Users/d072013/SAPDevelop/gql_parser/src/ast/program.rs
FN:92,_RNvNtNtNtCs6qJP7SanZgw_10gql_parser3ast7program5testss_20test_statement_types
FN:83,_RNvNtNtNtCs6qJP7SanZgw_10gql_parser3ast7program5testss_25test_program_construction
FNDA:1,_RNvNtNtNtCs6qJP7SanZgw_10gql_parser3ast7program5testss_20test_statement_types
FNDA:1,_RNvNtNtNtCs6qJP7SanZgw_10gql_parser3ast7program5testss_25test_program_construction
FNF:2
FNH:2
DA:83,1
DA:84,1
DA:85,1
DA:86,1
DA:87,1
DA:88,1
DA:89,1
DA:92,1
DA:93,1
DA:94,1
DA:95,1
DA:96,1
DA:97,1
DA:98,1
DA:99,1
DA:100,1
DA:101,1
DA:103,1
DA:104,1
DA:105,1
DA:106,1
DA:107,1
DA:108,1
DA:109,1
DA:110,1
DA:111,1
DA:113,1
DA:114,1
DA:115,1
DA:116,1
DA:117,1
DA:119,1
DA:120,1
DA:121,1
DA:122,1
DA:123,1
DA:124,1
DA:125,1
DA:126,1
DA:128,1
DA:129,1
DA:130,1
DA:131,1
DA:132,1
DA:133,1
DA:134,1
DA:135,1
DA:136,1
DA:137,1
DA:138,1
DA:139,1
DA:140,1
DA:141,1
DA:142,1
DA:143,1
DA:144,1
DA:145,1
DA:146,1
DA:147,1
DA:148,1
DA:149,1
DA:150,1
DA:151,1
DA:152,1
DA:154,1
DA:155,1
DA:156,1
BRF:0
BRH:0
LF:67
LH:67
end_of_record
SF:/Users/d072013/SAPDevelop/gql_parser/src/ast/query.rs
FN:546,_RNvMs3_NtNtCs6qJP7SanZgw_10gql_parser3ast5queryNtB5_18ShortestPathSearch4span
FN:53,_RNvMNtNtCs6qJP7SanZgw_10gql_parser3ast5queryNtB2_5Query4span
FN:205,_RNvMs0_NtNtCs6qJP7SanZgw_10gql_parser3ast5queryNtB5_23PrimitiveQueryStatement4span
FN:229,_RNvMs1_NtNtCs6qJP7SanZgw_10gql_parser3ast5queryNtB5_24PrimitiveResultStatement4span
FN:275,_RNvMs2_NtNtCs6qJP7SanZgw_10gql_parser3ast5queryNtB5_14MatchStatement4span
FN:588,_RNvMs4_NtNtCs6qJP7SanZgw_10gql_parser3ast5queryNtB5_21PathPatternExpression4span
FN:682,_RNvMs5_NtNtCs6qJP7SanZgw_10gql_parser3ast5queryNtB5_22GraphPatternQuantifier4span
FN:878,_RNvMs6_NtNtCs6qJP7SanZgw_10gql_parser3ast5queryNtB5_22AbbreviatedEdgePattern4span
FN:936,_RNvMs7_NtNtCs6qJP7SanZgw_10gql_parser3ast5queryNtB5_15LabelExpression4span
FN:133,_RNvMs_NtNtCs6qJP7SanZgw_10gql_parser3ast5queryNtB4_11LinearQuery4span
FN:53,_RNvMNtNtCs87GxMFlPkU4_10gql_parser3ast5queryNtB2_5Query4span
FN:205,_RNvMs0_NtNtCs87GxMFlPkU4_10gql_parser3ast5queryNtB5_23PrimitiveQueryStatement4span
FN:229,_RNvMs1_NtNtCs87GxMFlPkU4_10gql_parser3ast5queryNtB5_24PrimitiveResultStatement4span
FN:275,_RNvMs2_NtNtCs87GxMFlPkU4_10gql_parser3ast5queryNtB5_14MatchStatement4span
FN:546,_RNvMs3_NtNtCs87GxMFlPkU4_10gql_parser3ast5queryNtB5_18ShortestPathSearch4span
FN:588,_RNvMs4_NtNtCs87GxMFlPkU4_10gql_parser3ast5queryNtB5_21PathPatternExpression4span
FN:682,_RNvMs5_NtNtCs87GxMFlPkU4_10gql_parser3ast5queryNtB5_22GraphPatternQuantifier4span
FN:878,_RNvMs6_NtNtCs87GxMFlPkU4_10gql_parser3ast5queryNtB5_22AbbreviatedEdgePattern4span
FN:936,_RNvMs7_NtNtCs87GxMFlPkU4_10gql_parser3ast5queryNtB5_15LabelExpression4span
FN:133,_RNvMs_NtNtCs87GxMFlPkU4_10gql_parser3ast5queryNtB4_11LinearQuery4span
FNDA:0,_RNvMs3_NtNtCs6qJP7SanZgw_10gql_parser3ast5queryNtB5_18ShortestPathSearch4span
FNDA:39,_RNvMNtNtCs6qJP7SanZgw_10gql_parser3ast5queryNtB2_5Query4span
FNDA:1,_RNvMs0_NtNtCs6qJP7SanZgw_10gql_parser3ast5queryNtB5_23PrimitiveQueryStatement4span
FNDA:1,_RNvMs1_NtNtCs6qJP7SanZgw_10gql_parser3ast5queryNtB5_24PrimitiveResultStatement4span
FNDA:6,_RNvMs2_NtNtCs6qJP7SanZgw_10gql_parser3ast5queryNtB5_14MatchStatement4span
FNDA:27,_RNvMs4_NtNtCs6qJP7SanZgw_10gql_parser3ast5queryNtB5_21PathPatternExpression4span
FNDA:0,_RNvMs5_NtNtCs6qJP7SanZgw_10gql_parser3ast5queryNtB5_22GraphPatternQuantifier4span
FNDA:0,_RNvMs6_NtNtCs6qJP7SanZgw_10gql_parser3ast5queryNtB5_22AbbreviatedEdgePattern4span
FNDA:6,_RNvMs7_NtNtCs6qJP7SanZgw_10gql_parser3ast5queryNtB5_15LabelExpression4span
FNDA:38,_RNvMs_NtNtCs6qJP7SanZgw_10gql_parser3ast5queryNtB4_11LinearQuery4span
FNDA:0,_RNvMNtNtCs87GxMFlPkU4_10gql_parser3ast5queryNtB2_5Query4span
FNDA:0,_RNvMs0_NtNtCs87GxMFlPkU4_10gql_parser3ast5queryNtB5_23PrimitiveQueryStatement4span
FNDA:0,_RNvMs1_NtNtCs87GxMFlPkU4_10gql_parser3ast5queryNtB5_24PrimitiveResultStatement4span
FNDA:0,_RNvMs2_NtNtCs87GxMFlPkU4_10gql_parser3ast5queryNtB5_14MatchStatement4span
FNDA:0,_RNvMs3_NtNtCs87GxMFlPkU4_10gql_parser3ast5queryNtB5_18ShortestPathSearch4span
FNDA:0,_RNvMs4_NtNtCs87GxMFlPkU4_10gql_parser3ast5queryNtB5_21PathPatternExpression4span
FNDA:0,_RNvMs5_NtNtCs87GxMFlPkU4_10gql_parser3ast5queryNtB5_22GraphPatternQuantifier4span
FNDA:0,_RNvMs6_NtNtCs87GxMFlPkU4_10gql_parser3ast5queryNtB5_22AbbreviatedEdgePattern4span
FNDA:0,_RNvMs7_NtNtCs87GxMFlPkU4_10gql_parser3ast5queryNtB5_15LabelExpression4span
FNDA:0,_RNvMs_NtNtCs87GxMFlPkU4_10gql_parser3ast5queryNtB4_11LinearQuery4span
FNF:10
FNH:7
DA:53,39
DA:54,39
DA:55,38
DA:56,1
DA:57,0
DA:59,39
DA:133,38
DA:134,38
DA:135,2
DA:136,36
DA:138,38
DA:205,1
DA:206,1
DA:207,1
DA:208,0
DA:209,0
DA:210,0
DA:211,0
DA:212,0
DA:213,0
DA:215,1
DA:229,1
DA:230,1
DA:231,1
DA:232,0
DA:234,1
DA:275,6
DA:276,6
DA:277,6
DA:278,0
DA:280,6
DA:546,0
DA:547,0
DA:548,0
DA:549,0
DA:550,0
DA:551,0
DA:553,0
DA:588,27
DA:589,27
DA:590,0
DA:591,0
DA:592,27
DA:594,27
DA:682,0
DA:683,0
DA:684,0
DA:685,0
DA:686,0
DA:687,0
DA:688,0
DA:690,0
DA:878,0
DA:879,0
DA:880,0
DA:881,0
DA:882,0
DA:883,0
DA:885,0
DA:936,6
DA:937,6
DA:938,1
DA:939,0
DA:940,0
DA:941,3
DA:942,1
DA:943,6
DA:945,6
BRF:0
BRH:0
LF:68
LH:33
end_of_record
SF:/Users/d072013/SAPDevelop/gql_parser/src/ast/references.rs
FN:242,_RNvMs0_NtNtCs6qJP7SanZgw_10gql_parser3ast10referencesNtB5_18GraphTypeReference4span
FN:299,_RNvMs1_NtNtCs6qJP7SanZgw_10gql_parser3ast10referencesNtB5_21BindingTableReference4span
FN:192,_RNvMs_NtNtCs6qJP7SanZgw_10gql_parser3ast10referencesNtB4_14GraphReference4span
FN:102,_RNvMNtNtCs6qJP7SanZgw_10gql_parser3ast10referencesNtB2_15SchemaReference4span
FN:345,_RNvMs2_NtNtCs6qJP7SanZgw_10gql_parser3ast10referencesNtB5_18ProcedureReference4span
FN:405,_RNvMs3_NtNtCs6qJP7SanZgw_10gql_parser3ast10referencesNtB5_28CatalogObjectParentReference4span
FN:102,_RNvMNtNtCs87GxMFlPkU4_10gql_parser3ast10referencesNtB2_15SchemaReference4span
FN:242,_RNvMs0_NtNtCs87GxMFlPkU4_10gql_parser3ast10referencesNtB5_18GraphTypeReference4span
FN:299,_RNvMs1_NtNtCs87GxMFlPkU4_10gql_parser3ast10referencesNtB5_21BindingTableReference4span
FN:345,_RNvMs2_NtNtCs87GxMFlPkU4_10gql_parser3ast10referencesNtB5_18ProcedureReference4span
FN:405,_RNvMs3_NtNtCs87GxMFlPkU4_10gql_parser3ast10referencesNtB5_28CatalogObjectParentReference4span
FN:192,_RNvMs_NtNtCs87GxMFlPkU4_10gql_parser3ast10referencesNtB4_14GraphReference4span
FNDA:0,_RNvMs0_NtNtCs6qJP7SanZgw_10gql_parser3ast10referencesNtB5_18GraphTypeReference4span
FNDA:0,_RNvMs1_NtNtCs6qJP7SanZgw_10gql_parser3ast10referencesNtB5_21BindingTableReference4span
FNDA:0,_RNvMs_NtNtCs6qJP7SanZgw_10gql_parser3ast10referencesNtB4_14GraphReference4span
FNDA:2,_RNvMNtNtCs6qJP7SanZgw_10gql_parser3ast10referencesNtB2_15SchemaReference4span
FNDA:4,_RNvMs2_NtNtCs6qJP7SanZgw_10gql_parser3ast10referencesNtB5_18ProcedureReference4span
FNDA:1,_RNvMs3_NtNtCs6qJP7SanZgw_10gql_parser3ast10referencesNtB5_28CatalogObjectParentReference4span
FNDA:0,_RNvMNtNtCs87GxMFlPkU4_10gql_parser3ast10referencesNtB2_15SchemaReference4span
FNDA:0,_RNvMs0_NtNtCs87GxMFlPkU4_10gql_parser3ast10referencesNtB5_18GraphTypeReference4span
FNDA:0,_RNvMs1_NtNtCs87GxMFlPkU4_10gql_parser3ast10referencesNtB5_21BindingTableReference4span
FNDA:0,_RNvMs2_NtNtCs87GxMFlPkU4_10gql_parser3ast10referencesNtB5_18ProcedureReference4span
FNDA:0,_RNvMs3_NtNtCs87GxMFlPkU4_10gql_parser3ast10referencesNtB5_28CatalogObjectParentReference4span
FNDA:0,_RNvMs_NtNtCs87GxMFlPkU4_10gql_parser3ast10referencesNtB4_14GraphReference4span
FNF:6
FNH:3
DA:102,2
DA:103,2
DA:104,1
DA:105,0
DA:106,1
DA:107,0
DA:108,0
DA:109,0
DA:110,2
DA:112,2
DA:192,0
DA:193,0
DA:194,0
DA:195,0
DA:196,0
DA:197,0
DA:198,0
DA:199,0
DA:200,0
DA:202,0
DA:242,0
DA:243,0
DA:244,0
DA:245,0
DA:247,0
DA:299,0
DA:300,0
DA:301,0
DA:302,0
DA:303,0
DA:305,0
DA:345,4
DA:346,4
DA:347,4
DA:348,4
DA:350,4
DA:405,1
DA:406,1
DA:407,0
DA:408,1
DA:410,1
BRF:0
BRH:0
LF:41
LH:15
end_of_record
SF:/Users/d072013/SAPDevelop/gql_parser/src/ast/session.rs
FN:139,_RNvNtNtNtCs6qJP7SanZgw_10gql_parser3ast7session5testss_26test_session_reset_targets
FN:121,_RNvNtNtNtCs6qJP7SanZgw_10gql_parser3ast7session5testss_29test_session_command_variants
FNDA:1,_RNvNtNtNtCs6qJP7SanZgw_10gql_parser3ast7session5testss_26test_session_reset_targets
FNDA:1,_RNvNtNtNtCs6qJP7SanZgw_10gql_parser3ast7session5testss_29test_session_command_variants
FNF:2
FNH:2
DA:121,1
DA:122,1
DA:123,1
DA:124,1
DA:125,1
DA:126,1
DA:128,1
DA:129,1
DA:130,1
DA:131,1
DA:132,1
DA:134,1
DA:135,1
DA:136,1
DA:139,1
DA:140,1
DA:141,1
DA:142,1
DA:143,1
DA:144,1
DA:145,1
DA:146,1
DA:147,1
DA:148,1
DA:149,1
BRF:0
BRH:0
LF:25
LH:25
end_of_record
SF:/Users/d072013/SAPDevelop/gql_parser/src/ast/span.rs
FN:91,_RNCNvNtNtNtCs6qJP7SanZgw_10gql_parser3ast4span5testss_11spanned_map0B9_
FN:29,_RINvMNtNtCs6qJP7SanZgw_10gql_parser3ast4spanINtB3_7SpannedlE3maplNCNvNtB3_5testss_11spanned_map0EB7_
FN:40,_RNvMNtNtCs6qJP7SanZgw_10gql_parser3ast4spanINtB2_7SpannedReE10into_innerB6_
FN:24,_RNvMNtNtCs6qJP7SanZgw_10gql_parser3ast4spanINtB2_7SpannedReE3newB6_
FN:24,_RNvMNtNtCs6qJP7SanZgw_10gql_parser3ast4spanINtB2_7SpannedlE3newB6_
FN:45,_RNvMNtNtCs6qJP7SanZgw_10gql_parser3ast4spanINtB2_7SpannedlE4spanB6_
FN:57,_RNvXs0_NtNtCs6qJP7SanZgw_10gql_parser3ast4spanINtB5_7SpannedlEINtNtCsezyhsC6CBT9_4core7convert5AsMutlE6as_mutB9_
FN:51,_RNvXs_NtNtCs6qJP7SanZgw_10gql_parser3ast4spanINtB4_7SpannedlEINtNtCsezyhsC6CBT9_4core7convert5AsReflE6as_refB8_
FN:75,_RNvNtNtNtCs6qJP7SanZgw_10gql_parser3ast4span5testss_10span_empty
FN:89,_RNvNtNtNtCs6qJP7SanZgw_10gql_parser3ast4span5testss_11spanned_map
FN:82,_RNvNtNtNtCs6qJP7SanZgw_10gql_parser3ast4span5testss_11spanned_new
FN:103,_RNvNtNtNtCs6qJP7SanZgw_10gql_parser3ast4span5testss_17spanned_accessors
FN:97,_RNvNtNtNtCs6qJP7SanZgw_10gql_parser3ast4span5testss_18spanned_into_inner
FN:113,_RNvNtNtNtCs6qJP7SanZgw_10gql_parser3ast4span5testss_20spanned_clone_and_eq
FN:67,_RNvNtNtNtCs6qJP7SanZgw_10gql_parser3ast4span5testss_21span_basic_properties
FNDA:1,_RNCNvNtNtNtCs6qJP7SanZgw_10gql_parser3ast4span5testss_11spanned_map0B9_
FNDA:1,_RINvMNtNtCs6qJP7SanZgw_10gql_parser3ast4spanINtB3_7SpannedlE3maplNCNvNtB3_5testss_11spanned_map0EB7_
FNDA:1,_RNvMNtNtCs6qJP7SanZgw_10gql_parser3ast4spanINtB2_7SpannedReE10into_innerB6_
FNDA:2,_RNvMNtNtCs6qJP7SanZgw_10gql_parser3ast4spanINtB2_7SpannedReE3newB6_
FNDA:4,_RNvMNtNtCs6qJP7SanZgw_10gql_parser3ast4spanINtB2_7SpannedlE3newB6_
FNDA:1,_RNvMNtNtCs6qJP7SanZgw_10gql_parser3ast4spanINtB2_7SpannedlE4spanB6_
FNDA:1,_RNvXs0_NtNtCs6qJP7SanZgw_10gql_parser3ast4spanINtB5_7SpannedlEINtNtCsezyhsC6CBT9_4core7convert5AsMutlE6as_mutB9_
FNDA:1,_RNvXs_NtNtCs6qJP7SanZgw_10gql_parser3ast4spanINtB4_7SpannedlEINtNtCsezyhsC6CBT9_4core7convert5AsReflE6as_refB8_
FNDA:1,_RNvNtNtNtCs6qJP7SanZgw_10gql_parser3ast4span5testss_10span_empty
FNDA:1,_RNvNtNtNtCs6qJP7SanZgw_10gql_parser3ast4span5testss_11spanned_map
FNDA:1,_RNvNtNtNtCs6qJP7SanZgw_10gql_parser3ast4span5testss_11spanned_new
FNDA:1,_RNvNtNtNtCs6qJP7SanZgw_10gql_parser3ast4span5testss_17spanned_accessors
FNDA:1,_RNvNtNtNtCs6qJP7SanZgw_10gql_parser3ast4span5testss_18spanned_into_inner
FNDA:1,_RNvNtNtNtCs6qJP7SanZgw_10gql_parser3ast4span5testss_20spanned_clone_and_eq
FNDA:1,_RNvNtNtNtCs6qJP7SanZgw_10gql_parser3ast4span5testss_21span_basic_properties
FNF:14
FNH:14
DA:24,6
DA:25,6
DA:26,6
DA:29,1
DA:30,1
DA:31,1
DA:33,1
DA:34,1
DA:35,1
DA:36,1
DA:37,1
DA:40,1
DA:41,1
DA:42,1
DA:45,1
DA:46,1
DA:47,1
DA:51,1
DA:52,1
DA:53,1
DA:57,1
DA:58,1
DA:59,1
DA:67,1
DA:68,1
DA:69,1
DA:70,1
DA:71,1
DA:72,1
DA:75,1
DA:76,1
DA:77,1
DA:78,1
DA:79,1
DA:82,1
DA:83,1
DA:84,1
DA:85,1
DA:86,1
DA:89,1
DA:90,1
DA:91,1
DA:92,1
DA:93,1
DA:94,1
DA:97,1
DA:98,1
DA:99,1
DA:100,1
DA:103,1
DA:104,1
DA:105,1
DA:106,1
DA:108,1
DA:109,1
DA:110,1
DA:113,1
DA:114,1
DA:115,1
DA:116,1
DA:117,1
BRF:0
BRH:0
LF:62
LH:62
end_of_record
SF:/Users/d072013/SAPDevelop/gql_parser/src/ast/transaction.rs
FN:96,_RNvNtNtNtCs6qJP7SanZgw_10gql_parser3ast11transaction5testss_29test_transaction_access_modes
FN:75,_RNvNtNtNtCs6qJP7SanZgw_10gql_parser3ast11transaction5testss_33test_transaction_command_variants
FN:105,_RNvNtNtNtCs6qJP7SanZgw_10gql_parser3ast11transaction5testss_37test_transaction_with_characteristics
FNDA:1,_RNvNtNtNtCs6qJP7SanZgw_10gql_parser3ast11transaction5testss_29test_transaction_access_modes
FNDA:1,_RNvNtNtNtCs6qJP7SanZgw_10gql_parser3ast11transaction5testss_33test_transaction_command_variants
FNDA:1,_RNvNtNtNtCs6qJP7SanZgw_10gql_parser3ast11transaction5testss_37test_transaction_with_characteristics
FNF:3
FNH:3
DA:75,1
DA:76,1
DA:77,1
DA:78,1
DA:79,1
DA:80,1
DA:82,1
DA:83,1
DA:84,1
DA:85,1
DA:86,1
DA:88,1
DA:89,1
DA:90,1
DA:91,1
DA:92,1
DA:93,1
DA:96,1
DA:97,1
DA:98,1
DA:100,1
DA:101,1
DA:102,1
DA:105,1
DA:106,1
DA:107,1
DA:108,1
DA:109,1
DA:111,1
DA:112,1
DA:113,1
DA:114,1
DA:116,1
DA:117,1
DA:119,0
DA:121,1
BRF:0
BRH:0
LF:36
LH:35
end_of_record
SF:/Users/d072013/SAPDevelop/gql_parser/src/ast/types.rs
FN:53,_RNvMNtNtCs6qJP7SanZgw_10gql_parser3ast5typesNtB2_9ValueType4span
FN:533,_RNvMs_NtNtCs6qJP7SanZgw_10gql_parser3ast5typesNtB4_10RecordType4span
FN:53,_RNvMNtNtCs87GxMFlPkU4_10gql_parser3ast5typesNtB2_9ValueType4span
FN:533,_RNvMs_NtNtCs87GxMFlPkU4_10gql_parser3ast5typesNtB4_10RecordType4span
FNDA:6,_RNvMNtNtCs6qJP7SanZgw_10gql_parser3ast5typesNtB2_9ValueType4span
FNDA:0,_RNvMs_NtNtCs6qJP7SanZgw_10gql_parser3ast5typesNtB4_10RecordType4span
FNDA:0,_RNvMNtNtCs87GxMFlPkU4_10gql_parser3ast5typesNtB2_9ValueType4span
FNDA:0,_RNvMs_NtNtCs87GxMFlPkU4_10gql_parser3ast5typesNtB4_10RecordType4span
FNF:2
FNH:1
DA:53,6
DA:54,6
DA:55,6
DA:56,0
DA:57,0
DA:58,0
DA:60,6
DA:533,0
DA:534,0
DA:535,0
DA:536,0
DA:538,0
BRF:0
BRH:0
LF:12
LH:4
end_of_record
SF:/Users/d072013/SAPDevelop/gql_parser/src/ast/visitor.rs
FN:142,_RNvYpNtNtNtCs6qJP7SanZgw_10gql_parser3ast7visitor10AstVisitor16visit_expressionB9_
FN:287,_RNvYpNtNtNtCs6qJP7SanZgw_10gql_parser3ast7visitor13AstVisitorMut20visit_expression_mutB9_
FN:324,_RINvNtNtCs6qJP7SanZgw_10gql_parser3ast7visitor10walk_queryINtNtNtB4_8visitors10collecting17CollectingVisitorNtNtCs5bkkNO3hTYU_5alloc6string6StringNCNvNtBX_5testss_42collecting_visitor_collects_property_names0EEB6_
FN:324,_RINvNtNtCs6qJP7SanZgw_10gql_parser3ast7visitor10walk_queryNtNtB2_5tests11ExprCounterEB6_
FN:324,_RINvNtNtCs6qJP7SanZgw_10gql_parser3ast7visitor10walk_queryNtNtNtB4_8visitors4span13SpanCollectorEB6_
FN:324,_RINvNtNtCs6qJP7SanZgw_10gql_parser3ast7visitor10walk_queryNtNtNtB4_8visitors8variable17VariableCollectorEB6_
FN:324,_RINvNtNtCs6qJP7SanZgw_10gql_parser3ast7visitor10walk_queryNtNtNtNtB6_8semantic9validator19callable_validation25CallableValidationVisitorEB6_
FN:853,_RINvNtNtCs6qJP7SanZgw_10gql_parser3ast7visitor12walk_literalINtNtNtB4_8visitors10collecting17CollectingVisitorNtNtCs5bkkNO3hTYU_5alloc6string6StringNCNvNtBZ_5testss_42collecting_visitor_collects_property_names0EEB6_
FN:853,_RINvNtNtCs6qJP7SanZgw_10gql_parser3ast7visitor12walk_literalNtNtB2_5tests11ExprCounterEB6_
FN:853,_RINvNtNtCs6qJP7SanZgw_10gql_parser3ast7visitor12walk_literalNtNtNtB4_8visitors4span13SpanCollectorEB6_
FN:853,_RINvNtNtCs6qJP7SanZgw_10gql_parser3ast7visitor12walk_literalNtNtNtB4_8visitors8variable17VariableCollectorEB6_
FN:853,_RINvNtNtCs6qJP7SanZgw_10gql_parser3ast7visitor12walk_literalNtNtNtB6_8analysis15expression_info23ExpressionInfoCollectorEB6_
FN:853,_RINvNtNtCs6qJP7SanZgw_10gql_parser3ast7visitor12walk_literalNtNtNtNtB6_8semantic9validator19callable_validation25CallableValidationVisitorEB6_
FN:293,_RINvNtNtCs6qJP7SanZgw_10gql_parser3ast7visitor12walk_programINtNtNtB4_8visitors10collecting17CollectingVisitorNtNtCs5bkkNO3hTYU_5alloc6string6StringNCNvNtBZ_5testss_42collecting_visitor_collects_property_names0EEB6_
FN:293,_RINvNtNtCs6qJP7SanZgw_10gql_parser3ast7visitor12walk_programNtNtB2_5tests11ExprCounterEB6_
FN:293,_RINvNtNtCs6qJP7SanZgw_10gql_parser3ast7visitor12walk_programNtNtNtB4_8visitors4span13SpanCollectorEB6_
FN:293,_RINvNtNtCs6qJP7SanZgw_10gql_parser3ast7visitor12walk_programNtNtNtB4_8visitors8variable17VariableCollectorEB6_
FN:293,_RINvNtNtCs6qJP7SanZgw_10gql_parser3ast7visitor12walk_programNtNtNtNtB6_8semantic9validator19callable_validation25CallableValidationVisitorEB6_
FN:823,_RINvNtNtCs6qJP7SanZgw_10gql_parser3ast7visitor14walk_predicateINtNtNtB4_8visitors10collecting17CollectingVisitorNtNtCs5bkkNO3hTYU_5alloc6string6StringNCNvNtB11_5testss_42collecting_visitor_collects_property_names0EEB6_
FN:823,_RINvNtNtCs6qJP7SanZgw_10gql_parser3ast7visitor14walk_predicateNtNtB2_5tests11ExprCounterEB6_
FN:823,_RINvNtNtCs6qJP7SanZgw_10gql_parser3ast7visitor14walk_predicateNtNtNtB4_8visitors4span13SpanCollectorEB6_
FN:823,_RINvNtNtCs6qJP7SanZgw_10gql_parser3ast7visitor14walk_predicateNtNtNtB4_8visitors8variable17VariableCollectorEB6_
FN:823,_RINvNtNtCs6qJP7SanZgw_10gql_parser3ast7visitor14walk_predicateNtNtNtB6_8analysis15expression_info23ExpressionInfoCollectorEB6_
FN:823,_RINvNtNtCs6qJP7SanZgw_10gql_parser3ast7visitor14walk_predicateNtNtNtNtB6_8semantic9validator19callable_validation25CallableValidationVisitorEB6_
FN:970,_RINvNtNtCs6qJP7SanZgw_10gql_parser3ast7visitor14walk_query_mutNtNtB2_5tests16UppercaseMutatorEB6_
FN:304,_RINvNtNtCs6qJP7SanZgw_10gql_parser3ast7visitor14walk_statementINtNtNtB4_8visitors10collecting17CollectingVisitorNtNtCs5bkkNO3hTYU_5alloc6string6StringNCNvNtB11_5testss_42collecting_visitor_collects_property_names0EEB6_
FN:304,_RINvNtNtCs6qJP7SanZgw_10gql_parser3ast7visitor14walk_statementNtNtB2_5tests11ExprCounterEB6_
FN:304,_RINvNtNtCs6qJP7SanZgw_10gql_parser3ast7visitor14walk_statementNtNtNtB4_8visitors4span13SpanCollectorEB6_
FN:304,_RINvNtNtCs6qJP7SanZgw_10gql_parser3ast7visitor14walk_statementNtNtNtB4_8visitors8variable17VariableCollectorEB6_
FN:304,_RINvNtNtCs6qJP7SanZgw_10gql_parser3ast7visitor14walk_statementNtNtNtNtB6_8semantic9validator19callable_validation25CallableValidationVisitorEB6_
FN:738,_RINvNtNtCs6qJP7SanZgw_10gql_parser3ast7visitor15walk_expressionINtNtNtB4_8visitors10collecting17CollectingVisitorNtNtCs5bkkNO3hTYU_5alloc6string6StringNCNvNtB12_5testss_42collecting_visitor_collects_property_names0EEB6_
FN:738,_RINvNtNtCs6qJP7SanZgw_10gql_parser3ast7visitor15walk_expressionNtNtB2_5tests11ExprCounterEB6_
FN:738,_RINvNtNtCs6qJP7SanZgw_10gql_parser3ast7visitor15walk_expressionNtNtNtB4_8visitors4span13SpanCollectorEB6_
FN:738,_RINvNtNtCs6qJP7SanZgw_10gql_parser3ast7visitor15walk_expressionNtNtNtB4_8visitors8variable17VariableCollectorEB6_
FN:738,_RINvNtNtCs6qJP7SanZgw_10gql_parser3ast7visitor15walk_expressionNtNtNtB6_8analysis15expression_info23ExpressionInfoCollectorEB6_
FN:738,_RINvNtNtCs6qJP7SanZgw_10gql_parser3ast7visitor15walk_expressionNtNtNtNtB6_8semantic9validator19callable_validation25CallableValidationVisitorEB6_
FN:603,_RINvNtNtCs6qJP7SanZgw_10gql_parser3ast7visitor16walk_let_bindingINtNtNtB4_8visitors10collecting17CollectingVisitorNtNtCs5bkkNO3hTYU_5alloc6string6StringNCNvNtB13_5testss_42collecting_visitor_collects_property_names0EEB6_
FN:603,_RINvNtNtCs6qJP7SanZgw_10gql_parser3ast7visitor16walk_let_bindingNtNtB2_5tests11ExprCounterEB6_
FN:603,_RINvNtNtCs6qJP7SanZgw_10gql_parser3ast7visitor16walk_let_bindingNtNtNtB4_8visitors4span13SpanCollectorEB6_
FN:603,_RINvNtNtCs6qJP7SanZgw_10gql_parser3ast7visitor16walk_let_bindingNtNtNtB4_8visitors8variable17VariableCollectorEB6_
FN:603,_RINvNtNtCs6qJP7SanZgw_10gql_parser3ast7visitor16walk_let_bindingNtNtNtNtB6_8semantic9validator19callable_validation25CallableValidationVisitorEB6_
FN:1508,_RINvNtNtCs6qJP7SanZgw_10gql_parser3ast7visitor16walk_literal_mutNtNtB2_5tests16UppercaseMutatorEB6_
FN:485,_RINvNtNtCs6qJP7SanZgw_10gql_parser3ast7visitor16walk_path_factorINtNtNtB4_8visitors10collecting17CollectingVisitorNtNtCs5bkkNO3hTYU_5alloc6string6StringNCNvNtB13_5testss_42collecting_visitor_collects_property_names0EEB6_
FN:485,_RINvNtNtCs6qJP7SanZgw_10gql_parser3ast7visitor16walk_path_factorNtNtB2_5tests11ExprCounterEB6_
FN:485,_RINvNtNtCs6qJP7SanZgw_10gql_parser3ast7visitor16walk_path_factorNtNtNtB4_8visitors4span13SpanCollectorEB6_
FN:485,_RINvNtNtCs6qJP7SanZgw_10gql_parser3ast7visitor16walk_path_factorNtNtNtB4_8visitors8variable17VariableCollectorEB6_
FN:485,_RINvNtNtCs6qJP7SanZgw_10gql_parser3ast7visitor16walk_path_factorNtNtNtNtB6_8semantic9validator19callable_validation25CallableValidationVisitorEB6_
FN:939,_RINvNtNtCs6qJP7SanZgw_10gql_parser3ast7visitor16walk_program_mutNtNtB2_5tests16UppercaseMutatorEB6_
FN:730,_RINvNtNtCs6qJP7SanZgw_10gql_parser3ast7visitor16walk_return_itemINtNtNtB4_8visitors10collecting17CollectingVisitorNtNtCs5bkkNO3hTYU_5alloc6string6StringNCNvNtB13_5testss_42collecting_visitor_collects_property_names0EEB6_
FN:730,_RINvNtNtCs6qJP7SanZgw_10gql_parser3ast7visitor16walk_return_itemNtNtB2_5tests11ExprCounterEB6_
FN:730,_RINvNtNtCs6qJP7SanZgw_10gql_parser3ast7visitor16walk_return_itemNtNtNtB4_8visitors4span13SpanCollectorEB6_
FN:730,_RINvNtNtCs6qJP7SanZgw_10gql_parser3ast7visitor16walk_return_itemNtNtNtB4_8visitors8variable17VariableCollectorEB6_
FN:730,_RINvNtNtCs6qJP7SanZgw_10gql_parser3ast7visitor16walk_return_itemNtNtNtNtB6_8semantic9validator19callable_validation25CallableValidationVisitorEB6_
FN:540,_RINvNtNtCs6qJP7SanZgw_10gql_parser3ast7visitor17walk_edge_patternINtNtNtB4_8visitors10collecting17CollectingVisitorNtNtCs5bkkNO3hTYU_5alloc6string6StringNCNvNtB14_5testss_42collecting_visitor_collects_property_names0EEB6_
FN:540,_RINvNtNtCs6qJP7SanZgw_10gql_parser3ast7visitor17walk_edge_patternNtNtB2_5tests11ExprCounterEB6_
FN:540,_RINvNtNtCs6qJP7SanZgw_10gql_parser3ast7visitor17walk_edge_patternNtNtNtB4_8visitors4span13SpanCollectorEB6_
FN:540,_RINvNtNtCs6qJP7SanZgw_10gql_parser3ast7visitor17walk_edge_patternNtNtNtB4_8visitors8variable17VariableCollectorEB6_
FN:540,_RINvNtNtCs6qJP7SanZgw_10gql_parser3ast7visitor17walk_edge_patternNtNtNtNtB6_8semantic9validator19callable_validation25CallableValidationVisitorEB6_
FN:336,_RINvNtNtCs6qJP7SanZgw_10gql_parser3ast7visitor17walk_linear_queryINtNtNtB4_8visitors10collecting17CollectingVisitorNtNtCs5bkkNO3hTYU_5alloc6string6StringNCNvNtB14_5testss_42collecting_visitor_collects_property_names0EEB6_
FN:336,_RINvNtNtCs6qJP7SanZgw_10gql_parser3ast7visitor17walk_linear_queryNtNtB2_5tests11ExprCounterEB6_
FN:336,_RINvNtNtCs6qJP7SanZgw_10gql_parser3ast7visitor17walk_linear_queryNtNtNtB4_8visitors4span13SpanCollectorEB6_
FN:336,_RINvNtNtCs6qJP7SanZgw_10gql_parser3ast7visitor17walk_linear_queryNtNtNtB4_8visitors8variable17VariableCollectorEB6_
FN:336,_RINvNtNtCs6qJP7SanZgw_10gql_parser3ast7visitor17walk_linear_queryNtNtNtNtB6_8semantic9validator19callable_validation25CallableValidationVisitorEB6_
FN:520,_RINvNtNtCs6qJP7SanZgw_10gql_parser3ast7visitor17walk_node_patternINtNtNtB4_8visitors10collecting17CollectingVisitorNtNtCs5bkkNO3hTYU_5alloc6string6StringNCNvNtB14_5testss_42collecting_visitor_collects_property_names0EEB6_
FN:520,_RINvNtNtCs6qJP7SanZgw_10gql_parser3ast7visitor17walk_node_patternNtNtB2_5tests11ExprCounterEB6_
FN:520,_RINvNtNtCs6qJP7SanZgw_10gql_parser3ast7visitor17walk_node_patternNtNtNtB4_8visitors4span13SpanCollectorEB6_
FN:520,_RINvNtNtCs6qJP7SanZgw_10gql_parser3ast7visitor17walk_node_patternNtNtNtB4_8visitors8variable17VariableCollectorEB6_
FN:520,_RINvNtNtCs6qJP7SanZgw_10gql_parser3ast7visitor17walk_node_patternNtNtNtNtB6_8semantic9validator19callable_validation25CallableValidationVisitorEB6_
FN:452,_RINvNtNtCs6qJP7SanZgw_10gql_parser3ast7visitor17walk_path_patternINtNtNtB4_8visitors10collecting17CollectingVisitorNtNtCs5bkkNO3hTYU_5alloc6string6StringNCNvNtB14_5testss_42collecting_visitor_collects_property_names0EEB6_
FN:452,_RINvNtNtCs6qJP7SanZgw_10gql_parser3ast7visitor17walk_path_patternNtNtB2_5tests11ExprCounterEB6_
FN:452,_RINvNtNtCs6qJP7SanZgw_10gql_parser3ast7visitor17walk_path_patternNtNtNtB4_8visitors4span13SpanCollectorEB6_
FN:452,_RINvNtNtCs6qJP7SanZgw_10gql_parser3ast7visitor17walk_path_patternNtNtNtB4_8visitors8variable17VariableCollectorEB6_
FN:452,_RINvNtNtCs6qJP7SanZgw_10gql_parser3ast7visitor17walk_path_patternNtNtNtNtB6_8semantic9validator19callable_validation25CallableValidationVisitorEB6_
FN:493,_RINvNtNtCs6qJP7SanZgw_10gql_parser3ast7visitor17walk_path_primaryINtNtNtB4_8visitors10collecting17CollectingVisitorNtNtCs5bkkNO3hTYU_5alloc6string6StringNCNvNtB14_5testss_42collecting_visitor_collects_property_names0EEB6_
FN:493,_RINvNtNtCs6qJP7SanZgw_10gql_parser3ast7visitor17walk_path_primaryNtNtB2_5tests11ExprCounterEB6_
FN:493,_RINvNtNtCs6qJP7SanZgw_10gql_parser3ast7visitor17walk_path_primaryNtNtNtB4_8visitors4span13SpanCollectorEB6_
FN:493,_RINvNtNtCs6qJP7SanZgw_10gql_parser3ast7visitor17walk_path_primaryNtNtNtB4_8visitors8variable17VariableCollectorEB6_
FN:493,_RINvNtNtCs6qJP7SanZgw_10gql_parser3ast7visitor17walk_path_primaryNtNtNtNtB6_8semantic9validator19callable_validation25CallableValidationVisitorEB6_
FN:611,_RINvNtNtCs6qJP7SanZgw_10gql_parser3ast7visitor18walk_for_statementINtNtNtB4_8visitors10collecting17CollectingVisitorNtNtCs5bkkNO3hTYU_5alloc6string6StringNCNvNtB15_5testss_42collecting_visitor_collects_property_names0EEB6_
FN:611,_RINvNtNtCs6qJP7SanZgw_10gql_parser3ast7visitor18walk_for_statementNtNtB2_5tests11ExprCounterEB6_
FN:611,_RINvNtNtCs6qJP7SanZgw_10gql_parser3ast7visitor18walk_for_statementNtNtNtB4_8visitors4span13SpanCollectorEB6_
FN:611,_RINvNtNtCs6qJP7SanZgw_10gql_parser3ast7visitor18walk_for_statementNtNtNtB4_8visitors8variable17VariableCollectorEB6_
FN:611,_RINvNtNtCs6qJP7SanZgw_10gql_parser3ast7visitor18walk_for_statementNtNtNtNtB6_8semantic9validator19callable_validation25CallableValidationVisitorEB6_
FN:430,_RINvNtNtCs6qJP7SanZgw_10gql_parser3ast7visitor18walk_graph_patternINtNtNtB4_8visitors10collecting17CollectingVisitorNtNtCs5bkkNO3hTYU_5alloc6string6StringNCNvNtB15_5testss_42collecting_visitor_collects_property_names0EEB6_
FN:430,_RINvNtNtCs6qJP7SanZgw_10gql_parser3ast7visitor18walk_graph_patternNtNtB2_5tests11ExprCounterEB6_
FN:430,_RINvNtNtCs6qJP7SanZgw_10gql_parser3ast7visitor18walk_graph_patternNtNtNtB4_8visitors4span13SpanCollectorEB6_
FN:430,_RINvNtNtCs6qJP7SanZgw_10gql_parser3ast7visitor18walk_graph_patternNtNtNtB4_8visitors8variable17VariableCollectorEB6_
FN:430,_RINvNtNtCs6qJP7SanZgw_10gql_parser3ast7visitor18walk_graph_patternNtNtNtNtB6_8semantic9validator19callable_validation25CallableValidationVisitorEB6_
FN:591,_RINvNtNtCs6qJP7SanZgw_10gql_parser3ast7visitor18walk_let_statementINtNtNtB4_8visitors10collecting17CollectingVisitorNtNtCs5bkkNO3hTYU_5alloc6string6StringNCNvNtB15_5testss_42collecting_visitor_collects_property_names0EEB6_
FN:591,_RINvNtNtCs6qJP7SanZgw_10gql_parser3ast7visitor18walk_let_statementNtNtB2_5tests11ExprCounterEB6_
FN:591,_RINvNtNtCs6qJP7SanZgw_10gql_parser3ast7visitor18walk_let_statementNtNtNtB4_8visitors4span13SpanCollectorEB6_
FN:591,_RINvNtNtCs6qJP7SanZgw_10gql_parser3ast7visitor18walk_let_statementNtNtNtB4_8visitors8variable17VariableCollectorEB6_
FN:591,_RINvNtNtCs6qJP7SanZgw_10gql_parser3ast7visitor18walk_let_statementNtNtNtNtB6_8semantic9validator19callable_validation25CallableValidationVisitorEB6_
FN:1478,_RINvNtNtCs6qJP7SanZgw_10gql_parser3ast7visitor18walk_predicate_mutNtNtB2_5tests16UppercaseMutatorEB6_
FN:950,_RINvNtNtCs6qJP7SanZgw_10gql_parser3ast7visitor18walk_statement_mutNtNtB2_5tests16UppercaseMutatorEB6_
FN:1391,_RINvNtNtCs6qJP7SanZgw_10gql_parser3ast7visitor19walk_expression_mutNtNtB2_5tests16UppercaseMutatorEB6_
FN:509,_RINvNtNtCs6qJP7SanZgw_10gql_parser3ast7visitor20walk_element_patternINtNtNtB4_8visitors10collecting17CollectingVisitorNtNtCs5bkkNO3hTYU_5alloc6string6StringNCNvNtB17_5testss_42collecting_visitor_collects_property_names0EEB6_
FN:509,_RINvNtNtCs6qJP7SanZgw_10gql_parser3ast7visitor20walk_element_patternNtNtB2_5tests11ExprCounterEB6_
FN:509,_RINvNtNtCs6qJP7SanZgw_10gql_parser3ast7visitor20walk_element_patternNtNtNtB4_8visitors4span13SpanCollectorEB6_
FN:509,_RINvNtNtCs6qJP7SanZgw_10gql_parser3ast7visitor20walk_element_patternNtNtNtB4_8visitors8variable17VariableCollectorEB6_
FN:509,_RINvNtNtCs6qJP7SanZgw_10gql_parser3ast7visitor20walk_element_patternNtNtNtNtB6_8semantic9validator19callable_validation25CallableValidationVisitorEB6_
FN:1256,_RINvNtNtCs6qJP7SanZgw_10gql_parser3ast7visitor20walk_let_binding_mutNtNtB2_5tests16UppercaseMutatorEB6_
FN:408,_RINvNtNtCs6qJP7SanZgw_10gql_parser3ast7visitor20walk_match_statementINtNtNtB4_8visitors10collecting17CollectingVisitorNtNtCs5bkkNO3hTYU_5alloc6string6StringNCNvNtB17_5testss_42collecting_visitor_collects_property_names0EEB6_
FN:408,_RINvNtNtCs6qJP7SanZgw_10gql_parser3ast7visitor20walk_match_statementNtNtB2_5tests11ExprCounterEB6_
FN:408,_RINvNtNtCs6qJP7SanZgw_10gql_parser3ast7visitor20walk_match_statementNtNtNtB4_8visitors4span13SpanCollectorEB6_
FN:408,_RINvNtNtCs6qJP7SanZgw_10gql_parser3ast7visitor20walk_match_statementNtNtNtB4_8visitors8variable17VariableCollectorEB6_
FN:408,_RINvNtNtCs6qJP7SanZgw_10gql_parser3ast7visitor20walk_match_statementNtNtNtNtB6_8semantic9validator19callable_validation25CallableValidationVisitorEB6_
FN:1138,_RINvNtNtCs6qJP7SanZgw_10gql_parser3ast7visitor20walk_path_factor_mutNtNtB2_5tests16UppercaseMutatorEB6_
FN:316,_RINvNtNtCs6qJP7SanZgw_10gql_parser3ast7visitor20walk_query_statementINtNtNtB4_8visitors10collecting17CollectingVisitorNtNtCs5bkkNO3hTYU_5alloc6string6StringNCNvNtB17_5testss_42collecting_visitor_collects_property_names0EEB6_
FN:316,_RINvNtNtCs6qJP7SanZgw_10gql_parser3ast7visitor20walk_query_statementNtNtB2_5tests11ExprCounterEB6_
FN:316,_RINvNtNtCs6qJP7SanZgw_10gql_parser3ast7visitor20walk_query_statementNtNtNtB4_8visitors4span13SpanCollectorEB6_
FN:316,_RINvNtNtCs6qJP7SanZgw_10gql_parser3ast7visitor20walk_query_statementNtNtNtB4_8visitors8variable17VariableCollectorEB6_
FN:316,_RINvNtNtCs6qJP7SanZgw_10gql_parser3ast7visitor20walk_query_statementNtNtNtNtB6_8semantic9validator19callable_validation25CallableValidationVisitorEB6_
FN:1383,_RINvNtNtCs6qJP7SanZgw_10gql_parser3ast7visitor20walk_return_item_mutNtNtB2_5tests16UppercaseMutatorEB6_
FN:1193,_RINvNtNtCs6qJP7SanZgw_10gql_parser3ast7visitor21walk_edge_pattern_mutNtNtB2_5tests16UppercaseMutatorEB6_
FN:583,_RINvNtNtCs6qJP7SanZgw_10gql_parser3ast7visitor21walk_filter_statementINtNtNtB4_8visitors10collecting17CollectingVisitorNtNtCs5bkkNO3hTYU_5alloc6string6StringNCNvNtB18_5testss_42collecting_visitor_collects_property_names0EEB6_
FN:583,_RINvNtNtCs6qJP7SanZgw_10gql_parser3ast7visitor21walk_filter_statementNtNtB2_5tests11ExprCounterEB6_
FN:583,_RINvNtNtCs6qJP7SanZgw_10gql_parser3ast7visitor21walk_filter_statementNtNtNtB4_8visitors4span13SpanCollectorEB6_
FN:583,_RINvNtNtCs6qJP7SanZgw_10gql_parser3ast7visitor21walk_filter_statementNtNtNtB4_8visitors8variable17VariableCollectorEB6_
FN:583,_RINvNtNtCs6qJP7SanZgw_10gql_parser3ast7visitor21walk_filter_statementNtNtNtNtB6_8semantic9validator19callable_validation25CallableValidationVisitorEB6_
FN:562,_RINvNtNtCs6qJP7SanZgw_10gql_parser3ast7visitor21walk_label_expressionINtNtNtB4_8visitors10collecting17CollectingVisitorNtNtCs5bkkNO3hTYU_5alloc6string6StringNCNvNtB18_5testss_42collecting_visitor_collects_property_names0EEB6_
FN:562,_RINvNtNtCs6qJP7SanZgw_10gql_parser3ast7visitor21walk_label_expressionNtNtB2_5tests11ExprCounterEB6_
FN:562,_RINvNtNtCs6qJP7SanZgw_10gql_parser3ast7visitor21walk_label_expressionNtNtNtB4_8visitors4span13SpanCollectorEB6_
FN:562,_RINvNtNtCs6qJP7SanZgw_10gql_parser3ast7visitor21walk_label_expressionNtNtNtB4_8visitors8variable17VariableCollectorEB6_
FN:562,_RINvNtNtCs6qJP7SanZgw_10gql_parser3ast7visitor21walk_label_expressionNtNtNtNtB6_8semantic9validator19callable_validation25CallableValidationVisitorEB6_
FN:985,_RINvNtNtCs6qJP7SanZgw_10gql_parser3ast7visitor21walk_linear_query_mutNtNtB2_5tests16UppercaseMutatorEB6_
FN:1173,_RINvNtNtCs6qJP7SanZgw_10gql_parser3ast7visitor21walk_node_pattern_mutNtNtB2_5tests16UppercaseMutatorEB6_
FN:1105,_RINvNtNtCs6qJP7SanZgw_10gql_parser3ast7visitor21walk_path_pattern_mutNtNtB2_5tests16UppercaseMutatorEB6_
FN:1146,_RINvNtNtCs6qJP7SanZgw_10gql_parser3ast7visitor21walk_path_primary_mutNtNtB2_5tests16UppercaseMutatorEB6_
FN:705,_RINvNtNtCs6qJP7SanZgw_10gql_parser3ast7visitor21walk_return_statementINtNtNtB4_8visitors10collecting17CollectingVisitorNtNtCs5bkkNO3hTYU_5alloc6string6StringNCNvNtB18_5testss_42collecting_visitor_collects_property_names0EEB6_
FN:705,_RINvNtNtCs6qJP7SanZgw_10gql_parser3ast7visitor21walk_return_statementNtNtB2_5tests11ExprCounterEB6_
FN:705,_RINvNtNtCs6qJP7SanZgw_10gql_parser3ast7visitor21walk_return_statementNtNtNtB4_8visitors4span13SpanCollectorEB6_
FN:705,_RINvNtNtCs6qJP7SanZgw_10gql_parser3ast7visitor21walk_return_statementNtNtNtB4_8visitors8variable17VariableCollectorEB6_
FN:705,_RINvNtNtCs6qJP7SanZgw_10gql_parser3ast7visitor21walk_return_statementNtNtNtNtB6_8semantic9validator19callable_validation25CallableValidationVisitorEB6_
FN:619,_RINvNtNtCs6qJP7SanZgw_10gql_parser3ast7visitor21walk_select_statementINtNtNtB4_8visitors10collecting17CollectingVisitorNtNtCs5bkkNO3hTYU_5alloc6string6StringNCNvNtB18_5testss_42collecting_visitor_collects_property_names0EEB6_
FN:619,_RINvNtNtCs6qJP7SanZgw_10gql_parser3ast7visitor21walk_select_statementNtNtB2_5tests11ExprCounterEB6_
FN:619,_RINvNtNtCs6qJP7SanZgw_10gql_parser3ast7visitor21walk_select_statementNtNtNtB4_8visitors4span13SpanCollectorEB6_
FN:619,_RINvNtNtCs6qJP7SanZgw_10gql_parser3ast7visitor21walk_select_statementNtNtNtB4_8visitors8variable17VariableCollectorEB6_
FN:619,_RINvNtNtCs6qJP7SanZgw_10gql_parser3ast7visitor21walk_select_statementNtNtNtNtB6_8semantic9validator19callable_validation25CallableValidationVisitorEB6_
FN:1264,_RINvNtNtCs6qJP7SanZgw_10gql_parser3ast7visitor22walk_for_statement_mutNtNtB2_5tests16UppercaseMutatorEB6_
FN:1083,_RINvNtNtCs6qJP7SanZgw_10gql_parser3ast7visitor22walk_graph_pattern_mutNtNtB2_5tests16UppercaseMutatorEB6_
FN:1244,_RINvNtNtCs6qJP7SanZgw_10gql_parser3ast7visitor22walk_let_statement_mutNtNtB2_5tests16UppercaseMutatorEB6_
FN:1162,_RINvNtNtCs6qJP7SanZgw_10gql_parser3ast7visitor24walk_element_pattern_mutNtNtB2_5tests16UppercaseMutatorEB6_
FN:1061,_RINvNtNtCs6qJP7SanZgw_10gql_parser3ast7visitor24walk_match_statement_mutNtNtB2_5tests16UppercaseMutatorEB6_
FN:962,_RINvNtNtCs6qJP7SanZgw_10gql_parser3ast7visitor24walk_query_statement_mutNtNtB2_5tests16UppercaseMutatorEB6_
FN:1236,_RINvNtNtCs6qJP7SanZgw_10gql_parser3ast7visitor25walk_filter_statement_mutNtNtB2_5tests16UppercaseMutatorEB6_
FN:1215,_RINvNtNtCs6qJP7SanZgw_10gql_parser3ast7visitor25walk_label_expression_mutNtNtB2_5tests16UppercaseMutatorEB6_
FN:1358,_RINvNtNtCs6qJP7SanZgw_10gql_parser3ast7visitor25walk_return_statement_mutNtNtB2_5tests16UppercaseMutatorEB6_
FN:1272,_RINvNtNtCs6qJP7SanZgw_10gql_parser3ast7visitor25walk_select_statement_mutNtNtB2_5tests16UppercaseMutatorEB6_
FN:897,_RINvNtNtCs6qJP7SanZgw_10gql_parser3ast7visitor26walk_simplified_expressionINtNtNtB4_8visitors10collecting17CollectingVisitorNtNtCs5bkkNO3hTYU_5alloc6string6StringNCNvNtB1d_5testss_42collecting_visitor_collects_property_names0EEB6_
FN:897,_RINvNtNtCs6qJP7SanZgw_10gql_parser3ast7visitor26walk_simplified_expressionNtNtB2_5tests11ExprCounterEB6_
FN:897,_RINvNtNtCs6qJP7SanZgw_10gql_parser3ast7visitor26walk_simplified_expressionNtNtNtB4_8visitors4span13SpanCollectorEB6_
FN:897,_RINvNtNtCs6qJP7SanZgw_10gql_parser3ast7visitor26walk_simplified_expressionNtNtNtB4_8visitors8variable17VariableCollectorEB6_
FN:897,_RINvNtNtCs6qJP7SanZgw_10gql_parser3ast7visitor26walk_simplified_expressionNtNtNtNtB6_8semantic9validator19callable_validation25CallableValidationVisitorEB6_
FN:460,_RINvNtNtCs6qJP7SanZgw_10gql_parser3ast7visitor28walk_path_pattern_expressionINtNtNtB4_8visitors10collecting17CollectingVisitorNtNtCs5bkkNO3hTYU_5alloc6string6StringNCNvNtB1f_5testss_42collecting_visitor_collects_property_names0EEB6_
FN:460,_RINvNtNtCs6qJP7SanZgw_10gql_parser3ast7visitor28walk_path_pattern_expressionNtNtB2_5tests11ExprCounterEB6_
FN:460,_RINvNtNtCs6qJP7SanZgw_10gql_parser3ast7visitor28walk_path_pattern_expressionNtNtNtB4_8visitors4span13SpanCollectorEB6_
FN:460,_RINvNtNtCs6qJP7SanZgw_10gql_parser3ast7visitor28walk_path_pattern_expressionNtNtNtB4_8visitors8variable17VariableCollectorEB6_
FN:460,_RINvNtNtCs6qJP7SanZgw_10gql_parser3ast7visitor28walk_path_pattern_expressionNtNtNtNtB6_8semantic9validator19callable_validation25CallableValidationVisitorEB6_
FN:874,_RINvNtNtCs6qJP7SanZgw_10gql_parser3ast7visitor29walk_call_procedure_statementINtNtNtB4_8visitors10collecting17CollectingVisitorNtNtCs5bkkNO3hTYU_5alloc6string6StringNCNvNtB1g_5testss_42collecting_visitor_collects_property_names0EEB6_
FN:874,_RINvNtNtCs6qJP7SanZgw_10gql_parser3ast7visitor29walk_call_procedure_statementNtNtB2_5tests11ExprCounterEB6_
FN:874,_RINvNtNtCs6qJP7SanZgw_10gql_parser3ast7visitor29walk_call_procedure_statementNtNtNtB4_8visitors4span13SpanCollectorEB6_
FN:874,_RINvNtNtCs6qJP7SanZgw_10gql_parser3ast7visitor29walk_call_procedure_statementNtNtNtB4_8visitors8variable17VariableCollectorEB6_
FN:874,_RINvNtNtCs6qJP7SanZgw_10gql_parser3ast7visitor29walk_call_procedure_statementNtNtNtNtB6_8semantic9validator19callable_validation25CallableValidationVisitorEB6_
FN:364,_RINvNtNtCs6qJP7SanZgw_10gql_parser3ast7visitor30walk_primitive_query_statementINtNtNtB4_8visitors10collecting17CollectingVisitorNtNtCs5bkkNO3hTYU_5alloc6string6StringNCNvNtB1h_5testss_42collecting_visitor_collects_property_names0EEB6_
FN:364,_RINvNtNtCs6qJP7SanZgw_10gql_parser3ast7visitor30walk_primitive_query_statementNtNtB2_5tests11ExprCounterEB6_
FN:364,_RINvNtNtCs6qJP7SanZgw_10gql_parser3ast7visitor30walk_primitive_query_statementNtNtNtB4_8visitors4span13SpanCollectorEB6_
FN:364,_RINvNtNtCs6qJP7SanZgw_10gql_parser3ast7visitor30walk_primitive_query_statementNtNtNtB4_8visitors8variable17VariableCollectorEB6_
FN:364,_RINvNtNtCs6qJP7SanZgw_10gql_parser3ast7visitor30walk_primitive_query_statementNtNtNtNtB6_8semantic9validator19callable_validation25CallableValidationVisitorEB6_
FN:1552,_RINvNtNtCs6qJP7SanZgw_10gql_parser3ast7visitor30walk_simplified_expression_mutNtNtB2_5tests16UppercaseMutatorEB6_
FN:395,_RINvNtNtCs6qJP7SanZgw_10gql_parser3ast7visitor31walk_primitive_result_statementINtNtNtB4_8visitors10collecting17CollectingVisitorNtNtCs5bkkNO3hTYU_5alloc6string6StringNCNvNtB1i_5testss_42collecting_visitor_collects_property_names0EEB6_
FN:395,_RINvNtNtCs6qJP7SanZgw_10gql_parser3ast7visitor31walk_primitive_result_statementNtNtB2_5tests11ExprCounterEB6_
FN:395,_RINvNtNtCs6qJP7SanZgw_10gql_parser3ast7visitor31walk_primitive_result_statementNtNtNtB4_8visitors4span13SpanCollectorEB6_
FN:395,_RINvNtNtCs6qJP7SanZgw_10gql_parser3ast7visitor31walk_primitive_result_statementNtNtNtB4_8visitors8variable17VariableCollectorEB6_
FN:395,_RINvNtNtCs6qJP7SanZgw_10gql_parser3ast7visitor31walk_primitive_result_statementNtNtNtNtB6_8semantic9validator19callable_validation25CallableValidationVisitorEB6_
FN:1113,_RINvNtNtCs6qJP7SanZgw_10gql_parser3ast7visitor32walk_path_pattern_expression_mutNtNtB2_5tests16UppercaseMutatorEB6_
FN:1529,_RINvNtNtCs6qJP7SanZgw_10gql_parser3ast7visitor33walk_call_procedure_statement_mutNtNtB2_5tests16UppercaseMutatorEB6_
FN:1013,_RINvNtNtCs6qJP7SanZgw_10gql_parser3ast7visitor34walk_primitive_query_statement_mutNtNtB2_5tests16UppercaseMutatorEB6_
FN:1048,_RINvNtNtCs6qJP7SanZgw_10gql_parser3ast7visitor35walk_primitive_result_statement_mutNtNtB2_5tests16UppercaseMutatorEB6_
FN:49,_RNvYNtNtNtNtCs6qJP7SanZgw_10gql_parser3ast8visitors8variable17VariableCollectorNtNtB8_7visitor10AstVisitor11visit_queryBa_
FN:37,_RNvYNtNtNtNtCs6qJP7SanZgw_10gql_parser3ast8visitors8variable17VariableCollectorNtNtB8_7visitor10AstVisitor13visit_programBa_
FN:41,_RNvYNtNtNtNtCs6qJP7SanZgw_10gql_parser3ast8visitors8variable17VariableCollectorNtNtB8_7visitor10AstVisitor15visit_statementBa_
FN:90,_RNvYNtNtNtNtCs6qJP7SanZgw_10gql_parser3ast8visitors8variable17VariableCollectorNtNtB8_7visitor10AstVisitor17visit_path_factorBa_
FN:138,_RNvYNtNtNtNtCs6qJP7SanZgw_10gql_parser3ast8visitors8variable17VariableCollectorNtNtB8_7visitor10AstVisitor17visit_return_itemBa_
FN:53,_RNvYNtNtNtNtCs6qJP7SanZgw_10gql_parser3ast8visitors8variable17VariableCollectorNtNtB8_7visitor10AstVisitor18visit_linear_queryBa_
FN:94,_RNvYNtNtNtNtCs6qJP7SanZgw_10gql_parser3ast8visitors8variable17VariableCollectorNtNtB8_7visitor10AstVisitor18visit_path_primaryBa_
FN:75,_RNvYNtNtNtNtCs6qJP7SanZgw_10gql_parser3ast8visitors8variable17VariableCollectorNtNtB8_7visitor10AstVisitor19visit_graph_patternBa_
FN:118,_RNvYNtNtNtNtCs6qJP7SanZgw_10gql_parser3ast8visitors8variable17VariableCollectorNtNtB8_7visitor10AstVisitor19visit_let_statementBa_
FN:98,_RNvYNtNtNtNtCs6qJP7SanZgw_10gql_parser3ast8visitors8variable17VariableCollectorNtNtB8_7visitor10AstVisitor21visit_element_patternBa_
FN:71,_RNvYNtNtNtNtCs6qJP7SanZgw_10gql_parser3ast8visitors8variable17VariableCollectorNtNtB8_7visitor10AstVisitor21visit_match_statementBa_
FN:45,_RNvYNtNtNtNtCs6qJP7SanZgw_10gql_parser3ast8visitors8variable17VariableCollectorNtNtB8_7visitor10AstVisitor21visit_query_statementBa_
FN:114,_RNvYNtNtNtNtCs6qJP7SanZgw_10gql_parser3ast8visitors8variable17VariableCollectorNtNtB8_7visitor10AstVisitor22visit_filter_statementBa_
FN:110,_RNvYNtNtNtNtCs6qJP7SanZgw_10gql_parser3ast8visitors8variable17VariableCollectorNtNtB8_7visitor10AstVisitor22visit_label_expressionBa_
FN:134,_RNvYNtNtNtNtCs6qJP7SanZgw_10gql_parser3ast8visitors8variable17VariableCollectorNtNtB8_7visitor10AstVisitor22visit_return_statementBa_
FN:130,_RNvYNtNtNtNtCs6qJP7SanZgw_10gql_parser3ast8visitors8variable17VariableCollectorNtNtB8_7visitor10AstVisitor22visit_select_statementBa_
FN:83,_RNvYNtNtNtNtCs6qJP7SanZgw_10gql_parser3ast8visitors8variable17VariableCollectorNtNtB8_7visitor10AstVisitor29visit_path_pattern_expressionBa_
FN:57,_RNvYNtNtNtNtCs6qJP7SanZgw_10gql_parser3ast8visitors8variable17VariableCollectorNtNtB8_7visitor10AstVisitor31visit_primitive_query_statementBa_
FN:64,_RNvYNtNtNtNtCs6qJP7SanZgw_10gql_parser3ast8visitors8variable17VariableCollectorNtNtB8_7visitor10AstVisitor32visit_primitive_result_statementBa_
FN:90,_RNvYNtNtNtNtCs6qJP7SanZgw_10gql_parser3ast8visitors4span13SpanCollectorNtNtB8_7visitor10AstVisitor17visit_path_factorBa_
FN:53,_RNvYNtNtNtNtCs6qJP7SanZgw_10gql_parser3ast8visitors4span13SpanCollectorNtNtB8_7visitor10AstVisitor18visit_linear_queryBa_
FN:94,_RNvYNtNtNtNtCs6qJP7SanZgw_10gql_parser3ast8visitors4span13SpanCollectorNtNtB8_7visitor10AstVisitor18visit_path_primaryBa_
FN:83,_RNvYNtNtNtNtCs6qJP7SanZgw_10gql_parser3ast8visitors4span13SpanCollectorNtNtB8_7visitor10AstVisitor29visit_path_pattern_expressionBa_
FN:90,_RNvYINtNtNtNtCs6qJP7SanZgw_10gql_parser3ast8visitors10collecting17CollectingVisitorNtNtCs5bkkNO3hTYU_5alloc6string6StringNCNvNtB5_5testss_42collecting_visitor_collects_property_names0ENtNtB9_7visitor10AstVisitor17visit_path_factorBb_
FN:53,_RNvYINtNtNtNtCs6qJP7SanZgw_10gql_parser3ast8visitors10collecting17CollectingVisitorNtNtCs5bkkNO3hTYU_5alloc6string6StringNCNvNtB5_5testss_42collecting_visitor_collects_property_names0ENtNtB9_7visitor10AstVisitor18visit_linear_queryBb_
FN:94,_RNvYINtNtNtNtCs6qJP7SanZgw_10gql_parser3ast8visitors10collecting17CollectingVisitorNtNtCs5bkkNO3hTYU_5alloc6string6StringNCNvNtB5_5testss_42collecting_visitor_collects_property_names0ENtNtB9_7visitor10AstVisitor18visit_path_primaryBb_
FN:83,_RNvYINtNtNtNtCs6qJP7SanZgw_10gql_parser3ast8visitors10collecting17CollectingVisitorNtNtCs5bkkNO3hTYU_5alloc6string6StringNCNvNtB5_5testss_42collecting_visitor_collects_property_names0ENtNtB9_7visitor10AstVisitor29visit_path_pattern_expressionBb_
FN:49,_RNvYNtNtNtNtCs6qJP7SanZgw_10gql_parser8semantic9validator19callable_validation25CallableValidationVisitorNtNtNtBa_3ast7visitor10AstVisitor11visit_queryBa_
FN:41,_RNvYNtNtNtNtCs6qJP7SanZgw_10gql_parser8semantic9validator19callable_validation25CallableValidationVisitorNtNtNtBa_3ast7visitor10AstVisitor15visit_statementBa_
FN:122,_RNvYNtNtNtNtCs6qJP7SanZgw_10gql_parser8semantic9validator19callable_validation25CallableValidationVisitorNtNtNtBa_3ast7visitor10AstVisitor17visit_let_bindingBa_
FN:90,_RNvYNtNtNtNtCs6qJP7SanZgw_10gql_parser8semantic9validator19callable_validation25CallableValidationVisitorNtNtNtBa_3ast7visitor10AstVisitor17visit_path_factorBa_
FN:138,_RNvYNtNtNtNtCs6qJP7SanZgw_10gql_parser8semantic9validator19callable_validation25CallableValidationVisitorNtNtNtBa_3ast7visitor10AstVisitor17visit_return_itemBa_
FN:106,_RNvYNtNtNtNtCs6qJP7SanZgw_10gql_parser8semantic9validator19callable_validation25CallableValidationVisitorNtNtNtBa_3ast7visitor10AstVisitor18visit_edge_patternBa_
FN:102,_RNvYNtNtNtNtCs6qJP7SanZgw_10gql_parser8semantic9validator19callable_validation25CallableValidationVisitorNtNtNtBa_3ast7visitor10AstVisitor18visit_node_patternBa_
FN:79,_RNvYNtNtNtNtCs6qJP7SanZgw_10gql_parser8semantic9validator19callable_validation25CallableValidationVisitorNtNtNtBa_3ast7visitor10AstVisitor18visit_path_patternBa_
FN:94,_RNvYNtNtNtNtCs6qJP7SanZgw_10gql_parser8semantic9validator19callable_validation25CallableValidationVisitorNtNtNtBa_3ast7visitor10AstVisitor18visit_path_primaryBa_
FN:126,_RNvYNtNtNtNtCs6qJP7SanZgw_10gql_parser8semantic9validator19callable_validation25CallableValidationVisitorNtNtNtBa_3ast7visitor10AstVisitor19visit_for_statementBa_
FN:75,_RNvYNtNtNtNtCs6qJP7SanZgw_10gql_parser8semantic9validator19callable_validation25CallableValidationVisitorNtNtNtBa_3ast7visitor10AstVisitor19visit_graph_patternBa_
FN:118,_RNvYNtNtNtNtCs6qJP7SanZgw_10gql_parser8semantic9validator19callable_validation25CallableValidationVisitorNtNtNtBa_3ast7visitor10AstVisitor19visit_let_statementBa_
FN:98,_RNvYNtNtNtNtCs6qJP7SanZgw_10gql_parser8semantic9validator19callable_validation25CallableValidationVisitorNtNtNtBa_3ast7visitor10AstVisitor21visit_element_patternBa_
FN:71,_RNvYNtNtNtNtCs6qJP7SanZgw_10gql_parser8semantic9validator19callable_validation25CallableValidationVisitorNtNtNtBa_3ast7visitor10AstVisitor21visit_match_statementBa_
FN:45,_RNvYNtNtNtNtCs6qJP7SanZgw_10gql_parser8semantic9validator19callable_validation25CallableValidationVisitorNtNtNtBa_3ast7visitor10AstVisitor21visit_query_statementBa_
FN:114,_RNvYNtNtNtNtCs6qJP7SanZgw_10gql_parser8semantic9validator19callable_validation25CallableValidationVisitorNtNtNtBa_3ast7visitor10AstVisitor22visit_filter_statementBa_
FN:110,_RNvYNtNtNtNtCs6qJP7SanZgw_10gql_parser8semantic9validator19callable_validation25CallableValidationVisitorNtNtNtBa_3ast7visitor10AstVisitor22visit_label_expressionBa_
FN:134,_RNvYNtNtNtNtCs6qJP7SanZgw_10gql_parser8semantic9validator19callable_validation25CallableValidationVisitorNtNtNtBa_3ast7visitor10AstVisitor22visit_return_statementBa_
FN:130,_RNvYNtNtNtNtCs6qJP7SanZgw_10gql_parser8semantic9validator19callable_validation25CallableValidationVisitorNtNtNtBa_3ast7visitor10AstVisitor22visit_select_statementBa_
FN:83,_RNvYNtNtNtNtCs6qJP7SanZgw_10gql_parser8semantic9validator19callable_validation25CallableValidationVisitorNtNtNtBa_3ast7visitor10AstVisitor29visit_path_pattern_expressionBa_
FN:64,_RNvYNtNtNtNtCs6qJP7SanZgw_10gql_parser8semantic9validator19callable_validation25CallableValidationVisitorNtNtNtBa_3ast7visitor10AstVisitor32visit_primitive_result_statementBa_
FN:1621,_RNvNtNtNtCs6qJP7SanZgw_10gql_parser3ast7visitor5testss_31visitor_walks_query_expressions
FN:1655,_RNvNtNtNtCs6qJP7SanZgw_10gql_parser3ast7visitor5testss_49mutable_visitor_can_transform_variable_references
FN:1611,_RNvXNtNtNtCs6qJP7SanZgw_10gql_parser3ast7visitor5testsNtB2_11ExprCounterNtB4_10AstVisitor16visit_expression
FN:1643,_RNvXs_NtNtNtCs6qJP7SanZgw_10gql_parser3ast7visitor5testsNtB4_16UppercaseMutatorNtB6_13AstVisitorMut20visit_expression_mut
FN:49,_RNvYNtNtNtNtCs6qJP7SanZgw_10gql_parser3ast7visitor5tests11ExprCounterNtB6_10AstVisitor11visit_queryBa_
FN:37,_RNvYNtNtNtNtCs6qJP7SanZgw_10gql_parser3ast7visitor5tests11ExprCounterNtB6_10AstVisitor13visit_programBa_
FN:41,_RNvYNtNtNtNtCs6qJP7SanZgw_10gql_parser3ast7visitor5tests11ExprCounterNtB6_10AstVisitor15visit_statementBa_
FN:122,_RNvYNtNtNtNtCs6qJP7SanZgw_10gql_parser3ast7visitor5tests11ExprCounterNtB6_10AstVisitor17visit_let_bindingBa_
FN:90,_RNvYNtNtNtNtCs6qJP7SanZgw_10gql_parser3ast7visitor5tests11ExprCounterNtB6_10AstVisitor17visit_path_factorBa_
FN:138,_RNvYNtNtNtNtCs6qJP7SanZgw_10gql_parser3ast7visitor5tests11ExprCounterNtB6_10AstVisitor17visit_return_itemBa_
FN:106,_RNvYNtNtNtNtCs6qJP7SanZgw_10gql_parser3ast7visitor5tests11ExprCounterNtB6_10AstVisitor18visit_edge_patternBa_
FN:53,_RNvYNtNtNtNtCs6qJP7SanZgw_10gql_parser3ast7visitor5tests11ExprCounterNtB6_10AstVisitor18visit_linear_queryBa_
FN:102,_RNvYNtNtNtNtCs6qJP7SanZgw_10gql_parser3ast7visitor5tests11ExprCounterNtB6_10AstVisitor18visit_node_patternBa_
FN:79,_RNvYNtNtNtNtCs6qJP7SanZgw_10gql_parser3ast7visitor5tests11ExprCounterNtB6_10AstVisitor18visit_path_patternBa_
FN:94,_RNvYNtNtNtNtCs6qJP7SanZgw_10gql_parser3ast7visitor5tests11ExprCounterNtB6_10AstVisitor18visit_path_primaryBa_
FN:126,_RNvYNtNtNtNtCs6qJP7SanZgw_10gql_parser3ast7visitor5tests11ExprCounterNtB6_10AstVisitor19visit_for_statementBa_
FN:75,_RNvYNtNtNtNtCs6qJP7SanZgw_10gql_parser3ast7visitor5tests11ExprCounterNtB6_10AstVisitor19visit_graph_patternBa_
FN:118,_RNvYNtNtNtNtCs6qJP7SanZgw_10gql_parser3ast7visitor5tests11ExprCounterNtB6_10AstVisitor19visit_let_statementBa_
FN:98,_RNvYNtNtNtNtCs6qJP7SanZgw_10gql_parser3ast7visitor5tests11ExprCounterNtB6_10AstVisitor21visit_element_patternBa_
FN:71,_RNvYNtNtNtNtCs6qJP7SanZgw_10gql_parser3ast7visitor5tests11ExprCounterNtB6_10AstVisitor21visit_match_statementBa_
FN:45,_RNvYNtNtNtNtCs6qJP7SanZgw_10gql_parser3ast7visitor5tests11ExprCounterNtB6_10AstVisitor21visit_query_statementBa_
FN:114,_RNvYNtNtNtNtCs6qJP7SanZgw_10gql_parser3ast7visitor5tests11ExprCounterNtB6_10AstVisitor22visit_filter_statementBa_
FN:110,_RNvYNtNtNtNtCs6qJP7SanZgw_10gql_parser3ast7visitor5tests11ExprCounterNtB6_10AstVisitor22visit_label_expressionBa_
FN:134,_RNvYNtNtNtNtCs6qJP7SanZgw_10gql_parser3ast7visitor5tests11ExprCounterNtB6_10AstVisitor22visit_return_statementBa_
FN:130,_RNvYNtNtNtNtCs6qJP7SanZgw_10gql_parser3ast7visitor5tests11ExprCounterNtB6_10AstVisitor22visit_select_statementBa_
FN:83,_RNvYNtNtNtNtCs6qJP7SanZgw_10gql_parser3ast7visitor5tests11ExprCounterNtB6_10AstVisitor29visit_path_pattern_expressionBa_
FN:57,_RNvYNtNtNtNtCs6qJP7SanZgw_10gql_parser3ast7visitor5tests11ExprCounterNtB6_10AstVisitor31visit_primitive_query_statementBa_
FN:64,_RNvYNtNtNtNtCs6qJP7SanZgw_10gql_parser3ast7visitor5tests11ExprCounterNtB6_10AstVisitor32visit_primitive_result_statementBa_
FN:167,_RNvYNtNtNtNtCs6qJP7SanZgw_10gql_parser3ast7visitor5tests16UppercaseMutatorNtB6_13AstVisitorMut15visit_query_mutBa_
FN:152,_RNvYNtNtNtNtCs6qJP7SanZgw_10gql_parser3ast7visitor5tests16UppercaseMutatorNtB6_13AstVisitorMut17visit_program_mutBa_
FN:156,_RNvYNtNtNtNtCs6qJP7SanZgw_10gql_parser3ast7visitor5tests16UppercaseMutatorNtB6_13AstVisitorMut19visit_statement_mutBa_
FN:255,_RNvYNtNtNtNtCs6qJP7SanZgw_10gql_parser3ast7visitor5tests16UppercaseMutatorNtB6_13AstVisitorMut21visit_let_binding_mutBa_
FN:211,_RNvYNtNtNtNtCs6qJP7SanZgw_10gql_parser3ast7visitor5tests16UppercaseMutatorNtB6_13AstVisitorMut21visit_path_factor_mutBa_
FN:283,_RNvYNtNtNtNtCs6qJP7SanZgw_10gql_parser3ast7visitor5tests16UppercaseMutatorNtB6_13AstVisitorMut21visit_return_item_mutBa_
FN:230,_RNvYNtNtNtNtCs6qJP7SanZgw_10gql_parser3ast7visitor5tests16UppercaseMutatorNtB6_13AstVisitorMut22visit_edge_pattern_mutBa_
FN:171,_RNvYNtNtNtNtCs6qJP7SanZgw_10gql_parser3ast7visitor5tests16UppercaseMutatorNtB6_13AstVisitorMut22visit_linear_query_mutBa_
FN:226,_RNvYNtNtNtNtCs6qJP7SanZgw_10gql_parser3ast7visitor5tests16UppercaseMutatorNtB6_13AstVisitorMut22visit_node_pattern_mutBa_
FN:200,_RNvYNtNtNtNtCs6qJP7SanZgw_10gql_parser3ast7visitor5tests16UppercaseMutatorNtB6_13AstVisitorMut22visit_path_pattern_mutBa_
FN:215,_RNvYNtNtNtNtCs6qJP7SanZgw_10gql_parser3ast7visitor5tests16UppercaseMutatorNtB6_13AstVisitorMut22visit_path_primary_mutBa_
FN:262,_RNvYNtNtNtNtCs6qJP7SanZgw_10gql_parser3ast7visitor5tests16UppercaseMutatorNtB6_13AstVisitorMut23visit_for_statement_mutBa_
FN:196,_RNvYNtNtNtNtCs6qJP7SanZgw_10gql_parser3ast7visitor5tests16UppercaseMutatorNtB6_13AstVisitorMut23visit_graph_pattern_mutBa_
FN:248,_RNvYNtNtNtNtCs6qJP7SanZgw_10gql_parser3ast7visitor5tests16UppercaseMutatorNtB6_13AstVisitorMut23visit_let_statement_mutBa_
FN:219,_RNvYNtNtNtNtCs6qJP7SanZgw_10gql_parser3ast7visitor5tests16UppercaseMutatorNtB6_13AstVisitorMut25visit_element_pattern_mutBa_
FN:189,_RNvYNtNtNtNtCs6qJP7SanZgw_10gql_parser3ast7visitor5tests16UppercaseMutatorNtB6_13AstVisitorMut25visit_match_statement_mutBa_
FN:160,_RNvYNtNtNtNtCs6qJP7SanZgw_10gql_parser3ast7visitor5tests16UppercaseMutatorNtB6_13AstVisitorMut25visit_query_statement_mutBa_
FN:241,_RNvYNtNtNtNtCs6qJP7SanZgw_10gql_parser3ast7visitor5tests16UppercaseMutatorNtB6_13AstVisitorMut26visit_filter_statement_mutBa_
FN:234,_RNvYNtNtNtNtCs6qJP7SanZgw_10gql_parser3ast7visitor5tests16UppercaseMutatorNtB6_13AstVisitorMut26visit_label_expression_mutBa_
FN:276,_RNvYNtNtNtNtCs6qJP7SanZgw_10gql_parser3ast7visitor5tests16UppercaseMutatorNtB6_13AstVisitorMut26visit_return_statement_mutBa_
FN:269,_RNvYNtNtNtNtCs6qJP7SanZgw_10gql_parser3ast7visitor5tests16UppercaseMutatorNtB6_13AstVisitorMut26visit_select_statement_mutBa_
FN:204,_RNvYNtNtNtNtCs6qJP7SanZgw_10gql_parser3ast7visitor5tests16UppercaseMutatorNtB6_13AstVisitorMut33visit_path_pattern_expression_mutBa_
FN:175,_RNvYNtNtNtNtCs6qJP7SanZgw_10gql_parser3ast7visitor5tests16UppercaseMutatorNtB6_13AstVisitorMut35visit_primitive_query_statement_mutBa_
FN:182,_RNvYNtNtNtNtCs6qJP7SanZgw_10gql_parser3ast7visitor5tests16UppercaseMutatorNtB6_13AstVisitorMut36visit_primitive_result_statement_mutBa_
FN:90,_RNvYNtNtNtNtCs87GxMFlPkU4_10gql_parser3ast8visitors4span13SpanCollectorNtNtB8_7visitor10AstVisitor17visit_path_factorBa_
FN:53,_RNvYNtNtNtNtCs87GxMFlPkU4_10gql_parser3ast8visitors4span13SpanCollectorNtNtB8_7visitor10AstVisitor18visit_linear_queryBa_
FN:94,_RNvYNtNtNtNtCs87GxMFlPkU4_10gql_parser3ast8visitors4span13SpanCollectorNtNtB8_7visitor10AstVisitor18visit_path_primaryBa_
FN:83,_RNvYNtNtNtNtCs87GxMFlPkU4_10gql_parser3ast8visitors4span13SpanCollectorNtNtB8_7visitor10AstVisitor29visit_path_pattern_expressionBa_
FN:49,_RNvYNtNtNtNtCs87GxMFlPkU4_10gql_parser3ast8visitors8variable17VariableCollectorNtNtB8_7visitor10AstVisitor11visit_queryBa_
FN:90,_RNvYNtNtNtNtCs87GxMFlPkU4_10gql_parser3ast8visitors8variable17VariableCollectorNtNtB8_7visitor10AstVisitor17visit_path_factorBa_
FN:138,_RNvYNtNtNtNtCs87GxMFlPkU4_10gql_parser3ast8visitors8variable17VariableCollectorNtNtB8_7visitor10AstVisitor17visit_return_itemBa_
FN:53,_RNvYNtNtNtNtCs87GxMFlPkU4_10gql_parser3ast8visitors8variable17VariableCollectorNtNtB8_7visitor10AstVisitor18visit_linear_queryBa_
FN:94,_RNvYNtNtNtNtCs87GxMFlPkU4_10gql_parser3ast8visitors8variable17VariableCollectorNtNtB8_7visitor10AstVisitor18visit_path_primaryBa_
FN:75,_RNvYNtNtNtNtCs87GxMFlPkU4_10gql_parser3ast8visitors8variable17VariableCollectorNtNtB8_7visitor10AstVisitor19visit_graph_patternBa_
FN:118,_RNvYNtNtNtNtCs87GxMFlPkU4_10gql_parser3ast8visitors8variable17VariableCollectorNtNtB8_7visitor10AstVisitor19visit_let_statementBa_
FN:98,_RNvYNtNtNtNtCs87GxMFlPkU4_10gql_parser3ast8visitors8variable17VariableCollectorNtNtB8_7visitor10AstVisitor21visit_element_patternBa_
FN:71,_RNvYNtNtNtNtCs87GxMFlPkU4_10gql_parser3ast8visitors8variable17VariableCollectorNtNtB8_7visitor10AstVisitor21visit_match_statementBa_
FN:114,_RNvYNtNtNtNtCs87GxMFlPkU4_10gql_parser3ast8visitors8variable17VariableCollectorNtNtB8_7visitor10AstVisitor22visit_filter_statementBa_
FN:110,_RNvYNtNtNtNtCs87GxMFlPkU4_10gql_parser3ast8visitors8variable17VariableCollectorNtNtB8_7visitor10AstVisitor22visit_label_expressionBa_
FN:134,_RNvYNtNtNtNtCs87GxMFlPkU4_10gql_parser3ast8visitors8variable17VariableCollectorNtNtB8_7visitor10AstVisitor22visit_return_statementBa_
FN:130,_RNvYNtNtNtNtCs87GxMFlPkU4_10gql_parser3ast8visitors8variable17VariableCollectorNtNtB8_7visitor10AstVisitor22visit_select_statementBa_
FN:83,_RNvYNtNtNtNtCs87GxMFlPkU4_10gql_parser3ast8visitors8variable17VariableCollectorNtNtB8_7visitor10AstVisitor29visit_path_pattern_expressionBa_
FN:57,_RNvYNtNtNtNtCs87GxMFlPkU4_10gql_parser3ast8visitors8variable17VariableCollectorNtNtB8_7visitor10AstVisitor31visit_primitive_query_statementBa_
FN:64,_RNvYNtNtNtNtCs87GxMFlPkU4_10gql_parser3ast8visitors8variable17VariableCollectorNtNtB8_7visitor10AstVisitor32visit_primitive_result_statementBa_
FN:49,_RNvYNtNtNtNtCs87GxMFlPkU4_10gql_parser8semantic9validator19callable_validation25CallableValidationVisitorNtNtNtBa_3ast7visitor10AstVisitor11visit_queryBa_
FN:41,_RNvYNtNtNtNtCs87GxMFlPkU4_10gql_parser8semantic9validator19callable_validation25CallableValidationVisitorNtNtNtBa_3ast7visitor10AstVisitor15visit_statementBa_
FN:122,_RNvYNtNtNtNtCs87GxMFlPkU4_10gql_parser8semantic9validator19callable_validation25CallableValidationVisitorNtNtNtBa_3ast7visitor10AstVisitor17visit_let_bindingBa_
FN:90,_RNvYNtNtNtNtCs87GxMFlPkU4_10gql_parser8semantic9validator19callable_validation25CallableValidationVisitorNtNtNtBa_3ast7visitor10AstVisitor17visit_path_factorBa_
FN:138,_RNvYNtNtNtNtCs87GxMFlPkU4_10gql_parser8semantic9validator19callable_validation25CallableValidationVisitorNtNtNtBa_3ast7visitor10AstVisitor17visit_return_itemBa_
FN:106,_RNvYNtNtNtNtCs87GxMFlPkU4_10gql_parser8semantic9validator19callable_validation25CallableValidationVisitorNtNtNtBa_3ast7visitor10AstVisitor18visit_edge_patternBa_
FN:102,_RNvYNtNtNtNtCs87GxMFlPkU4_10gql_parser8semantic9validator19callable_validation25CallableValidationVisitorNtNtNtBa_3ast7visitor10AstVisitor18visit_node_patternBa_
FN:79,_RNvYNtNtNtNtCs87GxMFlPkU4_10gql_parser8semantic9validator19callable_validation25CallableValidationVisitorNtNtNtBa_3ast7visitor10AstVisitor18visit_path_patternBa_
FN:94,_RNvYNtNtNtNtCs87GxMFlPkU4_10gql_parser8semantic9validator19callable_validation25CallableValidationVisitorNtNtNtBa_3ast7visitor10AstVisitor18visit_path_primaryBa_
FN:126,_RNvYNtNtNtNtCs87GxMFlPkU4_10gql_parser8semantic9validator19callable_validation25CallableValidationVisitorNtNtNtBa_3ast7visitor10AstVisitor19visit_for_statementBa_
FN:75,_RNvYNtNtNtNtCs87GxMFlPkU4_10gql_parser8semantic9validator19callable_validation25CallableValidationVisitorNtNtNtBa_3ast7visitor10AstVisitor19visit_graph_patternBa_
FN:118,_RNvYNtNtNtNtCs87GxMFlPkU4_10gql_parser8semantic9validator19callable_validation25CallableValidationVisitorNtNtNtBa_3ast7visitor10AstVisitor19visit_let_statementBa_
FN:98,_RNvYNtNtNtNtCs87GxMFlPkU4_10gql_parser8semantic9validator19callable_validation25CallableValidationVisitorNtNtNtBa_3ast7visitor10AstVisitor21visit_element_patternBa_
FN:71,_RNvYNtNtNtNtCs87GxMFlPkU4_10gql_parser8semantic9validator19callable_validation25CallableValidationVisitorNtNtNtBa_3ast7visitor10AstVisitor21visit_match_statementBa_
FN:45,_RNvYNtNtNtNtCs87GxMFlPkU4_10gql_parser8semantic9validator19callable_validation25CallableValidationVisitorNtNtNtBa_3ast7visitor10AstVisitor21visit_query_statementBa_
FN:114,_RNvYNtNtNtNtCs87GxMFlPkU4_10gql_parser8semantic9validator19callable_validation25CallableValidationVisitorNtNtNtBa_3ast7visitor10AstVisitor22visit_filter_statementBa_
FN:110,_RNvYNtNtNtNtCs87GxMFlPkU4_10gql_parser8semantic9validator19callable_validation25CallableValidationVisitorNtNtNtBa_3ast7visitor10AstVisitor22visit_label_expressionBa_
FN:134,_RNvYNtNtNtNtCs87GxMFlPkU4_10gql_parser8semantic9validator19callable_validation25CallableValidationVisitorNtNtNtBa_3ast7visitor10AstVisitor22visit_return_statementBa_
FN:130,_RNvYNtNtNtNtCs87GxMFlPkU4_10gql_parser8semantic9validator19callable_validation25CallableValidationVisitorNtNtNtBa_3ast7visitor10AstVisitor22visit_select_statementBa_
FN:83,_RNvYNtNtNtNtCs87GxMFlPkU4_10gql_parser8semantic9validator19callable_validation25CallableValidationVisitorNtNtNtBa_3ast7visitor10AstVisitor29visit_path_pattern_expressionBa_
FN:64,_RNvYNtNtNtNtCs87GxMFlPkU4_10gql_parser8semantic9validator19callable_validation25CallableValidationVisitorNtNtNtBa_3ast7visitor10AstVisitor32visit_primitive_result_statementBa_
FN:324,_RINvNtNtCs87GxMFlPkU4_10gql_parser3ast7visitor10walk_queryNtNtNtB4_8visitors4span13SpanCollectorEB6_
FN:324,_RINvNtNtCs87GxMFlPkU4_10gql_parser3ast7visitor10walk_queryNtNtNtB4_8visitors8variable17VariableCollectorEB6_
FN:324,_RINvNtNtCs87GxMFlPkU4_10gql_parser3ast7visitor10walk_queryNtNtNtNtB6_8semantic9validator19callable_validation25CallableValidationVisitorEB6_
FN:853,_RINvNtNtCs87GxMFlPkU4_10gql_parser3ast7visitor12walk_literalNtNtNtB4_8visitors4span13SpanCollectorEB6_
FN:853,_RINvNtNtCs87GxMFlPkU4_10gql_parser3ast7visitor12walk_literalNtNtNtB4_8visitors8variable17VariableCollectorEB6_
FN:853,_RINvNtNtCs87GxMFlPkU4_10gql_parser3ast7visitor12walk_literalNtNtNtB6_8analysis15expression_info23ExpressionInfoCollectorEB6_
FN:853,_RINvNtNtCs87GxMFlPkU4_10gql_parser3ast7visitor12walk_literalNtNtNtNtB6_8semantic9validator19callable_validation25CallableValidationVisitorEB6_
FN:293,_RINvNtNtCs87GxMFlPkU4_10gql_parser3ast7visitor12walk_programNtNtNtB4_8visitors4span13SpanCollectorEB6_
FN:293,_RINvNtNtCs87GxMFlPkU4_10gql_parser3ast7visitor12walk_programNtNtNtNtB6_8semantic9validator19callable_validation25CallableValidationVisitorEB6_
FN:823,_RINvNtNtCs87GxMFlPkU4_10gql_parser3ast7visitor14walk_predicateNtNtNtB4_8visitors4span13SpanCollectorEB6_
FN:823,_RINvNtNtCs87GxMFlPkU4_10gql_parser3ast7visitor14walk_predicateNtNtNtB4_8visitors8variable17VariableCollectorEB6_
FN:823,_RINvNtNtCs87GxMFlPkU4_10gql_parser3ast7visitor14walk_predicateNtNtNtB6_8analysis15expression_info23ExpressionInfoCollectorEB6_
FN:823,_RINvNtNtCs87GxMFlPkU4_10gql_parser3ast7visitor14walk_predicateNtNtNtNtB6_8semantic9validator19callable_validation25CallableValidationVisitorEB6_
FN:304,_RINvNtNtCs87GxMFlPkU4_10gql_parser3ast7visitor14walk_statementNtNtNtB4_8visitors4span13SpanCollectorEB6_
FN:304,_RINvNtNtCs87GxMFlPkU4_10gql_parser3ast7visitor14walk_statementNtNtNtNtB6_8semantic9validator19callable_validation25CallableValidationVisitorEB6_
FN:738,_RINvNtNtCs87GxMFlPkU4_10gql_parser3ast7visitor15walk_expressionNtNtNtB4_8visitors4span13SpanCollectorEB6_
FN:738,_RINvNtNtCs87GxMFlPkU4_10gql_parser3ast7visitor15walk_expressionNtNtNtB4_8visitors8variable17VariableCollectorEB6_
FN:738,_RINvNtNtCs87GxMFlPkU4_10gql_parser3ast7visitor15walk_expressionNtNtNtB6_8analysis15expression_info23ExpressionInfoCollectorEB6_
FN:738,_RINvNtNtCs87GxMFlPkU4_10gql_parser3ast7visitor15walk_expressionNtNtNtNtB6_8semantic9validator19callable_validation25CallableValidationVisitorEB6_
FN:603,_RINvNtNtCs87GxMFlPkU4_10gql_parser3ast7visitor16walk_let_bindingNtNtNtB4_8visitors4span13SpanCollectorEB6_
FN:603,_RINvNtNtCs87GxMFlPkU4_10gql_parser3ast7visitor16walk_let_bindingNtNtNtB4_8visitors8variable17VariableCollectorEB6_
FN:603,_RINvNtNtCs87GxMFlPkU4_10gql_parser3ast7visitor16walk_let_bindingNtNtNtNtB6_8semantic9validator19callable_validation25CallableValidationVisitorEB6_
FN:485,_RINvNtNtCs87GxMFlPkU4_10gql_parser3ast7visitor16walk_path_factorNtNtNtB4_8visitors4span13SpanCollectorEB6_
FN:485,_RINvNtNtCs87GxMFlPkU4_10gql_parser3ast7visitor16walk_path_factorNtNtNtB4_8visitors8variable17VariableCollectorEB6_
FN:485,_RINvNtNtCs87GxMFlPkU4_10gql_parser3ast7visitor16walk_path_factorNtNtNtNtB6_8semantic9validator19callable_validation25CallableValidationVisitorEB6_
FN:730,_RINvNtNtCs87GxMFlPkU4_10gql_parser3ast7visitor16walk_return_itemNtNtNtB4_8visitors4span13SpanCollectorEB6_
FN:730,_RINvNtNtCs87GxMFlPkU4_10gql_parser3ast7visitor16walk_return_itemNtNtNtB4_8visitors8variable17VariableCollectorEB6_
FN:730,_RINvNtNtCs87GxMFlPkU4_10gql_parser3ast7visitor16walk_return_itemNtNtNtNtB6_8semantic9validator19callable_validation25CallableValidationVisitorEB6_
FN:540,_RINvNtNtCs87GxMFlPkU4_10gql_parser3ast7visitor17walk_edge_patternNtNtNtB4_8visitors4span13SpanCollectorEB6_
FN:540,_RINvNtNtCs87GxMFlPkU4_10gql_parser3ast7visitor17walk_edge_patternNtNtNtB4_8visitors8variable17VariableCollectorEB6_
FN:540,_RINvNtNtCs87GxMFlPkU4_10gql_parser3ast7visitor17walk_edge_patternNtNtNtNtB6_8semantic9validator19callable_validation25CallableValidationVisitorEB6_
FN:336,_RINvNtNtCs87GxMFlPkU4_10gql_parser3ast7visitor17walk_linear_queryNtNtNtB4_8visitors4span13SpanCollectorEB6_
FN:336,_RINvNtNtCs87GxMFlPkU4_10gql_parser3ast7visitor17walk_linear_queryNtNtNtB4_8visitors8variable17VariableCollectorEB6_
FN:336,_RINvNtNtCs87GxMFlPkU4_10gql_parser3ast7visitor17walk_linear_queryNtNtNtNtB6_8semantic9validator19callable_validation25CallableValidationVisitorEB6_
FN:520,_RINvNtNtCs87GxMFlPkU4_10gql_parser3ast7visitor17walk_node_patternNtNtNtB4_8visitors4span13SpanCollectorEB6_
FN:520,_RINvNtNtCs87GxMFlPkU4_10gql_parser3ast7visitor17walk_node_patternNtNtNtB4_8visitors8variable17VariableCollectorEB6_
FN:520,_RINvNtNtCs87GxMFlPkU4_10gql_parser3ast7visitor17walk_node_patternNtNtNtNtB6_8semantic9validator19callable_validation25CallableValidationVisitorEB6_
FN:452,_RINvNtNtCs87GxMFlPkU4_10gql_parser3ast7visitor17walk_path_patternNtNtNtB4_8visitors4span13SpanCollectorEB6_
FN:452,_RINvNtNtCs87GxMFlPkU4_10gql_parser3ast7visitor17walk_path_patternNtNtNtB4_8visitors8variable17VariableCollectorEB6_
FN:452,_RINvNtNtCs87GxMFlPkU4_10gql_parser3ast7visitor17walk_path_patternNtNtNtNtB6_8semantic9validator19callable_validation25CallableValidationVisitorEB6_
FN:493,_RINvNtNtCs87GxMFlPkU4_10gql_parser3ast7visitor17walk_path_primaryNtNtNtB4_8visitors4span13SpanCollectorEB6_
FN:493,_RINvNtNtCs87GxMFlPkU4_10gql_parser3ast7visitor17walk_path_primaryNtNtNtB4_8visitors8variable17VariableCollectorEB6_
FN:493,_RINvNtNtCs87GxMFlPkU4_10gql_parser3ast7visitor17walk_path_primaryNtNtNtNtB6_8semantic9validator19callable_validation25CallableValidationVisitorEB6_
FN:611,_RINvNtNtCs87GxMFlPkU4_10gql_parser3ast7visitor18walk_for_statementNtNtNtB4_8visitors4span13SpanCollectorEB6_
FN:611,_RINvNtNtCs87GxMFlPkU4_10gql_parser3ast7visitor18walk_for_statementNtNtNtB4_8visitors8variable17VariableCollectorEB6_
FN:611,_RINvNtNtCs87GxMFlPkU4_10gql_parser3ast7visitor18walk_for_statementNtNtNtNtB6_8semantic9validator19callable_validation25CallableValidationVisitorEB6_
FN:430,_RINvNtNtCs87GxMFlPkU4_10gql_parser3ast7visitor18walk_graph_patternNtNtNtB4_8visitors4span13SpanCollectorEB6_
FN:430,_RINvNtNtCs87GxMFlPkU4_10gql_parser3ast7visitor18walk_graph_patternNtNtNtB4_8visitors8variable17VariableCollectorEB6_
FN:430,_RINvNtNtCs87GxMFlPkU4_10gql_parser3ast7visitor18walk_graph_patternNtNtNtNtB6_8semantic9validator19callable_validation25CallableValidationVisitorEB6_
FN:591,_RINvNtNtCs87GxMFlPkU4_10gql_parser3ast7visitor18walk_let_statementNtNtNtB4_8visitors4span13SpanCollectorEB6_
FN:591,_RINvNtNtCs87GxMFlPkU4_10gql_parser3ast7visitor18walk_let_statementNtNtNtB4_8visitors8variable17VariableCollectorEB6_
FN:591,_RINvNtNtCs87GxMFlPkU4_10gql_parser3ast7visitor18walk_let_statementNtNtNtNtB6_8semantic9validator19callable_validation25CallableValidationVisitorEB6_
FN:509,_RINvNtNtCs87GxMFlPkU4_10gql_parser3ast7visitor20walk_element_patternNtNtNtB4_8visitors4span13SpanCollectorEB6_
FN:509,_RINvNtNtCs87GxMFlPkU4_10gql_parser3ast7visitor20walk_element_patternNtNtNtB4_8visitors8variable17VariableCollectorEB6_
FN:509,_RINvNtNtCs87GxMFlPkU4_10gql_parser3ast7visitor20walk_element_patternNtNtNtNtB6_8semantic9validator19callable_validation25CallableValidationVisitorEB6_
FN:408,_RINvNtNtCs87GxMFlPkU4_10gql_parser3ast7visitor20walk_match_statementNtNtNtB4_8visitors4span13SpanCollectorEB6_
FN:408,_RINvNtNtCs87GxMFlPkU4_10gql_parser3ast7visitor20walk_match_statementNtNtNtB4_8visitors8variable17VariableCollectorEB6_
FN:408,_RINvNtNtCs87GxMFlPkU4_10gql_parser3ast7visitor20walk_match_statementNtNtNtNtB6_8semantic9validator19callable_validation25CallableValidationVisitorEB6_
FN:316,_RINvNtNtCs87GxMFlPkU4_10gql_parser3ast7visitor20walk_query_statementNtNtNtB4_8visitors4span13SpanCollectorEB6_
FN:316,_RINvNtNtCs87GxMFlPkU4_10gql_parser3ast7visitor20walk_query_statementNtNtNtNtB6_8semantic9validator19callable_validation25CallableValidationVisitorEB6_
FN:583,_RINvNtNtCs87GxMFlPkU4_10gql_parser3ast7visitor21walk_filter_statementNtNtNtB4_8visitors4span13SpanCollectorEB6_
FN:583,_RINvNtNtCs87GxMFlPkU4_10gql_parser3ast7visitor21walk_filter_statementNtNtNtB4_8visitors8variable17VariableCollectorEB6_
FN:583,_RINvNtNtCs87GxMFlPkU4_10gql_parser3ast7visitor21walk_filter_statementNtNtNtNtB6_8semantic9validator19callable_validation25CallableValidationVisitorEB6_
FN:562,_RINvNtNtCs87GxMFlPkU4_10gql_parser3ast7visitor21walk_label_expressionNtNtNtB4_8visitors4span13SpanCollectorEB6_
FN:562,_RINvNtNtCs87GxMFlPkU4_10gql_parser3ast7visitor21walk_label_expressionNtNtNtB4_8visitors8variable17VariableCollectorEB6_
FN:562,_RINvNtNtCs87GxMFlPkU4_10gql_parser3ast7visitor21walk_label_expressionNtNtNtNtB6_8semantic9validator19callable_validation25CallableValidationVisitorEB6_
FN:705,_RINvNtNtCs87GxMFlPkU4_10gql_parser3ast7visitor21walk_return_statementNtNtNtB4_8visitors4span13SpanCollectorEB6_
FN:705,_RINvNtNtCs87GxMFlPkU4_10gql_parser3ast7visitor21walk_return_statementNtNtNtB4_8visitors8variable17VariableCollectorEB6_
FN:705,_RINvNtNtCs87GxMFlPkU4_10gql_parser3ast7visitor21walk_return_statementNtNtNtNtB6_8semantic9validator19callable_validation25CallableValidationVisitorEB6_
FN:619,_RINvNtNtCs87GxMFlPkU4_10gql_parser3ast7visitor21walk_select_statementNtNtNtB4_8visitors4span13SpanCollectorEB6_
FN:619,_RINvNtNtCs87GxMFlPkU4_10gql_parser3ast7visitor21walk_select_statementNtNtNtB4_8visitors8variable17VariableCollectorEB6_
FN:619,_RINvNtNtCs87GxMFlPkU4_10gql_parser3ast7visitor21walk_select_statementNtNtNtNtB6_8semantic9validator19callable_validation25CallableValidationVisitorEB6_
FN:897,_RINvNtNtCs87GxMFlPkU4_10gql_parser3ast7visitor26walk_simplified_expressionNtNtNtB4_8visitors4span13SpanCollectorEB6_
FN:897,_RINvNtNtCs87GxMFlPkU4_10gql_parser3ast7visitor26walk_simplified_expressionNtNtNtB4_8visitors8variable17VariableCollectorEB6_
FN:897,_RINvNtNtCs87GxMFlPkU4_10gql_parser3ast7visitor26walk_simplified_expressionNtNtNtNtB6_8semantic9validator19callable_validation25CallableValidationVisitorEB6_
FN:460,_RINvNtNtCs87GxMFlPkU4_10gql_parser3ast7visitor28walk_path_pattern_expressionNtNtNtB4_8visitors4span13SpanCollectorEB6_
FN:460,_RINvNtNtCs87GxMFlPkU4_10gql_parser3ast7visitor28walk_path_pattern_expressionNtNtNtB4_8visitors8variable17VariableCollectorEB6_
FN:460,_RINvNtNtCs87GxMFlPkU4_10gql_parser3ast7visitor28walk_path_pattern_expressionNtNtNtNtB6_8semantic9validator19callable_validation25CallableValidationVisitorEB6_
FN:874,_RINvNtNtCs87GxMFlPkU4_10gql_parser3ast7visitor29walk_call_procedure_statementNtNtNtB4_8visitors4span13SpanCollectorEB6_
FN:874,_RINvNtNtCs87GxMFlPkU4_10gql_parser3ast7visitor29walk_call_procedure_statementNtNtNtB4_8visitors8variable17VariableCollectorEB6_
FN:874,_RINvNtNtCs87GxMFlPkU4_10gql_parser3ast7visitor29walk_call_procedure_statementNtNtNtNtB6_8semantic9validator19callable_validation25CallableValidationVisitorEB6_
FN:364,_RINvNtNtCs87GxMFlPkU4_10gql_parser3ast7visitor30walk_primitive_query_statementNtNtNtB4_8visitors4span13SpanCollectorEB6_
FN:364,_RINvNtNtCs87GxMFlPkU4_10gql_parser3ast7visitor30walk_primitive_query_statementNtNtNtB4_8visitors8variable17VariableCollectorEB6_
FN:364,_RINvNtNtCs87GxMFlPkU4_10gql_parser3ast7visitor30walk_primitive_query_statementNtNtNtNtB6_8semantic9validator19callable_validation25CallableValidationVisitorEB6_
FN:395,_RINvNtNtCs87GxMFlPkU4_10gql_parser3ast7visitor31walk_primitive_result_statementNtNtNtB4_8visitors4span13SpanCollectorEB6_
FN:395,_RINvNtNtCs87GxMFlPkU4_10gql_parser3ast7visitor31walk_primitive_result_statementNtNtNtB4_8visitors8variable17VariableCollectorEB6_
FN:395,_RINvNtNtCs87GxMFlPkU4_10gql_parser3ast7visitor31walk_primitive_result_statementNtNtNtNtB6_8semantic9validator19callable_validation25CallableValidationVisitorEB6_
FNDA:0,_RNvYpNtNtNtCs6qJP7SanZgw_10gql_parser3ast7visitor10AstVisitor16visit_expressionB9_
FNDA:0,_RNvYpNtNtNtCs6qJP7SanZgw_10gql_parser3ast7visitor13AstVisitorMut20visit_expression_mutB9_
FNDA:1,_RINvNtNtCs6qJP7SanZgw_10gql_parser3ast7visitor10walk_queryINtNtNtB4_8visitors10collecting17CollectingVisitorNtNtCs5bkkNO3hTYU_5alloc6string6StringNCNvNtBX_5testss_42collecting_visitor_collects_property_names0EEB6_
FNDA:1,_RINvNtNtCs6qJP7SanZgw_10gql_parser3ast7visitor10walk_queryNtNtB2_5tests11ExprCounterEB6_
FNDA:1,_RINvNtNtCs6qJP7SanZgw_10gql_parser3ast7visitor10walk_queryNtNtNtB4_8visitors4span13SpanCollectorEB6_
FNDA:2,_RINvNtNtCs6qJP7SanZgw_10gql_parser3ast7visitor10walk_queryNtNtNtB4_8visitors8variable17VariableCollectorEB6_
FNDA:0,_RINvNtNtCs6qJP7SanZgw_10gql_parser3ast7visitor10walk_queryNtNtNtNtB6_8semantic9validator19callable_validation25CallableValidationVisitorEB6_
FNDA:1,_RINvNtNtCs6qJP7SanZgw_10gql_parser3ast7visitor12walk_literalINtNtNtB4_8visitors10collecting17CollectingVisitorNtNtCs5bkkNO3hTYU_5alloc6string6StringNCNvNtBZ_5testss_42collecting_visitor_collects_property_names0EEB6_
FNDA:3,_RINvNtNtCs6qJP7SanZgw_10gql_parser3ast7visitor12walk_literalNtNtB2_5tests11ExprCounterEB6_
FNDA:2,_RINvNtNtCs6qJP7SanZgw_10gql_parser3ast7visitor12walk_literalNtNtNtB4_8visitors4span13SpanCollectorEB6_
FNDA:1,_RINvNtNtCs6qJP7SanZgw_10gql_parser3ast7visitor12walk_literalNtNtNtB4_8visitors8variable17VariableCollectorEB6_
FNDA:1,_RINvNtNtCs6qJP7SanZgw_10gql_parser3ast7visitor12walk_literalNtNtNtB6_8analysis15expression_info23ExpressionInfoCollectorEB6_
FNDA:0,_RINvNtNtCs6qJP7SanZgw_10gql_parser3ast7visitor12walk_literalNtNtNtNtB6_8semantic9validator19callable_validation25CallableValidationVisitorEB6_
FNDA:1,_RINvNtNtCs6qJP7SanZgw_10gql_parser3ast7visitor12walk_programINtNtNtB4_8visitors10collecting17CollectingVisitorNtNtCs5bkkNO3hTYU_5alloc6string6StringNCNvNtBZ_5testss_42collecting_visitor_collects_property_names0EEB6_
FNDA:1,_RINvNtNtCs6qJP7SanZgw_10gql_parser3ast7visitor12walk_programNtNtB2_5tests11ExprCounterEB6_
FNDA:1,_RINvNtNtCs6qJP7SanZgw_10gql_parser3ast7visitor12walk_programNtNtNtB4_8visitors4span13SpanCollectorEB6_
FNDA:2,_RINvNtNtCs6qJP7SanZgw_10gql_parser3ast7visitor12walk_programNtNtNtB4_8visitors8variable17VariableCollectorEB6_
FNDA:0,_RINvNtNtCs6qJP7SanZgw_10gql_parser3ast7visitor12walk_programNtNtNtNtB6_8semantic9validator19callable_validation25CallableValidationVisitorEB6_
FNDA:0,_RINvNtNtCs6qJP7SanZgw_10gql_parser3ast7visitor14walk_predicateINtNtNtB4_8visitors10collecting17CollectingVisitorNtNtCs5bkkNO3hTYU_5alloc6string6StringNCNvNtB11_5testss_42collecting_visitor_collects_property_names0EEB6_
FNDA:0,_RINvNtNtCs6qJP7SanZgw_10gql_parser3ast7visitor14walk_predicateNtNtB2_5tests11ExprCounterEB6_
FNDA:0,_RINvNtNtCs6qJP7SanZgw_10gql_parser3ast7visitor14walk_predicateNtNtNtB4_8visitors4span13SpanCollectorEB6_
FNDA:0,_RINvNtNtCs6qJP7SanZgw_10gql_parser3ast7visitor14walk_predicateNtNtNtB4_8visitors8variable17VariableCollectorEB6_
FNDA:0,_RINvNtNtCs6qJP7SanZgw_10gql_parser3ast7visitor14walk_predicateNtNtNtB6_8analysis15expression_info23ExpressionInfoCollectorEB6_
FNDA:0,_RINvNtNtCs6qJP7SanZgw_10gql_parser3ast7visitor14walk_predicateNtNtNtNtB6_8semantic9validator19callable_validation25CallableValidationVisitorEB6_
FNDA:1,_RINvNtNtCs6qJP7SanZgw_10gql_parser3ast7visitor14walk_query_mutNtNtB2_5tests16UppercaseMutatorEB6_
FNDA:1,_RINvNtNtCs6qJP7SanZgw_10gql_parser3ast7visitor14walk_statementINtNtNtB4_8visitors10collecting17CollectingVisitorNtNtCs5bkkNO3hTYU_5alloc6string6StringNCNvNtB11_5testss_42collecting_visitor_collects_property_names0EEB6_
FNDA:1,_RINvNtNtCs6qJP7SanZgw_10gql_parser3ast7visitor14walk_statementNtNtB2_5tests11ExprCounterEB6_
FNDA:1,_RINvNtNtCs6qJP7SanZgw_10gql_parser3ast7visitor14walk_statementNtNtNtB4_8visitors4span13SpanCollectorEB6_
FNDA:2,_RINvNtNtCs6qJP7SanZgw_10gql_parser3ast7visitor14walk_statementNtNtNtB4_8visitors8variable17VariableCollectorEB6_
FNDA:0,_RINvNtNtCs6qJP7SanZgw_10gql_parser3ast7visitor14walk_statementNtNtNtNtB6_8semantic9validator19callable_validation25CallableValidationVisitorEB6_
FNDA:6,_RINvNtNtCs6qJP7SanZgw_10gql_parser3ast7visitor15walk_expressionINtNtNtB4_8visitors10collecting17CollectingVisitorNtNtCs5bkkNO3hTYU_5alloc6string6StringNCNvNtB12_5testss_42collecting_visitor_collects_property_names0EEB6_
FNDA:10,_RINvNtNtCs6qJP7SanZgw_10gql_parser3ast7visitor15walk_expressionNtNtB2_5tests11ExprCounterEB6_
FNDA:7,_RINvNtNtCs6qJP7SanZgw_10gql_parser3ast7visitor15walk_expressionNtNtNtB4_8visitors4span13SpanCollectorEB6_
FNDA:10,_RINvNtNtCs6qJP7SanZgw_10gql_parser3ast7visitor15walk_expressionNtNtNtB4_8visitors8variable17VariableCollectorEB6_
FNDA:27,_RINvNtNtCs6qJP7SanZgw_10gql_parser3ast7visitor15walk_expressionNtNtNtB6_8analysis15expression_info23ExpressionInfoCollectorEB6_
FNDA:0,_RINvNtNtCs6qJP7SanZgw_10gql_parser3ast7visitor15walk_expressionNtNtNtNtB6_8semantic9validator19callable_validation25CallableValidationVisitorEB6_
FNDA:0,_RINvNtNtCs6qJP7SanZgw_10gql_parser3ast7visitor16walk_let_bindingINtNtNtB4_8visitors10collecting17CollectingVisitorNtNtCs5bkkNO3hTYU_5alloc6string6StringNCNvNtB13_5testss_42collecting_visitor_collects_property_names0EEB6_
FNDA:1,_RINvNtNtCs6qJP7SanZgw_10gql_parser3ast7visitor16walk_let_bindingNtNtB2_5tests11ExprCounterEB6_
FNDA:0,_RINvNtNtCs6qJP7SanZgw_10gql_parser3ast7visitor16walk_let_bindingNtNtNtB4_8visitors4span13SpanCollectorEB6_
FNDA:1,_RINvNtNtCs6qJP7SanZgw_10gql_parser3ast7visitor16walk_let_bindingNtNtNtB4_8visitors8variable17VariableCollectorEB6_
FNDA:0,_RINvNtNtCs6qJP7SanZgw_10gql_parser3ast7visitor16walk_let_bindingNtNtNtNtB6_8semantic9validator19callable_validation25CallableValidationVisitorEB6_
FNDA:0,_RINvNtNtCs6qJP7SanZgw_10gql_parser3ast7visitor16walk_literal_mutNtNtB2_5tests16UppercaseMutatorEB6_
FNDA:1,_RINvNtNtCs6qJP7SanZgw_10gql_parser3ast7visitor16walk_path_factorINtNtNtB4_8visitors10collecting17CollectingVisitorNtNtCs5bkkNO3hTYU_5alloc6string6StringNCNvNtB13_5testss_42collecting_visitor_collects_property_names0EEB6_
FNDA:1,_RINvNtNtCs6qJP7SanZgw_10gql_parser3ast7visitor16walk_path_factorNtNtB2_5tests11ExprCounterEB6_
FNDA:1,_RINvNtNtCs6qJP7SanZgw_10gql_parser3ast7visitor16walk_path_factorNtNtNtB4_8visitors4span13SpanCollectorEB6_
FNDA:10,_RINvNtNtCs6qJP7SanZgw_10gql_parser3ast7visitor16walk_path_factorNtNtNtB4_8visitors8variable17VariableCollectorEB6_
FNDA:0,_RINvNtNtCs6qJP7SanZgw_10gql_parser3ast7visitor16walk_path_factorNtNtNtNtB6_8semantic9validator19callable_validation25CallableValidationVisitorEB6_
FNDA:1,_RINvNtNtCs6qJP7SanZgw_10gql_parser3ast7visitor16walk_program_mutNtNtB2_5tests16UppercaseMutatorEB6_
FNDA:1,_RINvNtNtCs6qJP7SanZgw_10gql_parser3ast7visitor16walk_return_itemINtNtNtB4_8visitors10collecting17CollectingVisitorNtNtCs5bkkNO3hTYU_5alloc6string6StringNCNvNtB13_5testss_42collecting_visitor_collects_property_names0EEB6_
FNDA:1,_RINvNtNtCs6qJP7SanZgw_10gql_parser3ast7visitor16walk_return_itemNtNtB2_5tests11ExprCounterEB6_
FNDA:1,_RINvNtNtCs6qJP7SanZgw_10gql_parser3ast7visitor16walk_return_itemNtNtNtB4_8visitors4span13SpanCollectorEB6_
FNDA:3,_RINvNtNtCs6qJP7SanZgw_10gql_parser3ast7visitor16walk_return_itemNtNtNtB4_8visitors8variable17VariableCollectorEB6_
FNDA:0,_RINvNtNtCs6qJP7SanZgw_10gql_parser3ast7visitor16walk_return_itemNtNtNtNtB6_8semantic9validator19callable_validation25CallableValidationVisitorEB6_
FNDA:0,_RINvNtNtCs6qJP7SanZgw_10gql_parser3ast7visitor17walk_edge_patternINtNtNtB4_8visitors10collecting17CollectingVisitorNtNtCs5bkkNO3hTYU_5alloc6string6StringNCNvNtB14_5testss_42collecting_visitor_collects_property_names0EEB6_
FNDA:0,_RINvNtNtCs6qJP7SanZgw_10gql_parser3ast7visitor17walk_edge_patternNtNtB2_5tests11ExprCounterEB6_
FNDA:0,_RINvNtNtCs6qJP7SanZgw_10gql_parser3ast7visitor17walk_edge_patternNtNtNtB4_8visitors4span13SpanCollectorEB6_
FNDA:2,_RINvNtNtCs6qJP7SanZgw_10gql_parser3ast7visitor17walk_edge_patternNtNtNtB4_8visitors8variable17VariableCollectorEB6_
FNDA:0,_RINvNtNtCs6qJP7SanZgw_10gql_parser3ast7visitor17walk_edge_patternNtNtNtNtB6_8semantic9validator19callable_validation25CallableValidationVisitorEB6_
FNDA:1,_RINvNtNtCs6qJP7SanZgw_10gql_parser3ast7visitor17walk_linear_queryINtNtNtB4_8visitors10collecting17CollectingVisitorNtNtCs5bkkNO3hTYU_5alloc6string6StringNCNvNtB14_5testss_42collecting_visitor_collects_property_names0EEB6_
FNDA:1,_RINvNtNtCs6qJP7SanZgw_10gql_parser3ast7visitor17walk_linear_queryNtNtB2_5tests11ExprCounterEB6_
FNDA:1,_RINvNtNtCs6qJP7SanZgw_10gql_parser3ast7visitor17walk_linear_queryNtNtNtB4_8visitors4span13SpanCollectorEB6_
FNDA:2,_RINvNtNtCs6qJP7SanZgw_10gql_parser3ast7visitor17walk_linear_queryNtNtNtB4_8visitors8variable17VariableCollectorEB6_
FNDA:0,_RINvNtNtCs6qJP7SanZgw_10gql_parser3ast7visitor17walk_linear_queryNtNtNtNtB6_8semantic9validator19callable_validation25CallableValidationVisitorEB6_
FNDA:1,_RINvNtNtCs6qJP7SanZgw_10gql_parser3ast7visitor17walk_node_patternINtNtNtB4_8visitors10collecting17CollectingVisitorNtNtCs5bkkNO3hTYU_5alloc6string6StringNCNvNtB14_5testss_42collecting_visitor_collects_property_names0EEB6_
FNDA:1,_RINvNtNtCs6qJP7SanZgw_10gql_parser3ast7visitor17walk_node_patternNtNtB2_5tests11ExprCounterEB6_
FNDA:1,_RINvNtNtCs6qJP7SanZgw_10gql_parser3ast7visitor17walk_node_patternNtNtNtB4_8visitors4span13SpanCollectorEB6_
FNDA:8,_RINvNtNtCs6qJP7SanZgw_10gql_parser3ast7visitor17walk_node_patternNtNtNtB4_8visitors8variable17VariableCollectorEB6_
FNDA:0,_RINvNtNtCs6qJP7SanZgw_10gql_parser3ast7visitor17walk_node_patternNtNtNtNtB6_8semantic9validator19callable_validation25CallableValidationVisitorEB6_
FNDA:1,_RINvNtNtCs6qJP7SanZgw_10gql_parser3ast7visitor17walk_path_patternINtNtNtB4_8visitors10collecting17CollectingVisitorNtNtCs5bkkNO3hTYU_5alloc6string6StringNCNvNtB14_5testss_42collecting_visitor_collects_property_names0EEB6_
FNDA:1,_RINvNtNtCs6qJP7SanZgw_10gql_parser3ast7visitor17walk_path_patternNtNtB2_5tests11ExprCounterEB6_
FNDA:1,_RINvNtNtCs6qJP7SanZgw_10gql_parser3ast7visitor17walk_path_patternNtNtNtB4_8visitors4span13SpanCollectorEB6_
FNDA:6,_RINvNtNtCs6qJP7SanZgw_10gql_parser3ast7visitor17walk_path_patternNtNtNtB4_8visitors8variable17VariableCollectorEB6_
FNDA:0,_RINvNtNtCs6qJP7SanZgw_10gql_parser3ast7visitor17walk_path_patternNtNtNtNtB6_8semantic9validator19callable_validation25CallableValidationVisitorEB6_
FNDA:1,_RINvNtNtCs6qJP7SanZgw_10gql_parser3ast7visitor17walk_path_primaryINtNtNtB4_8visitors10collecting17CollectingVisitorNtNtCs5bkkNO3hTYU_5alloc6string6StringNCNvNtB14_5testss_42collecting_visitor_collects_property_names0EEB6_
FNDA:1,_RINvNtNtCs6qJP7SanZgw_10gql_parser3ast7visitor17walk_path_primaryNtNtB2_5tests11ExprCounterEB6_
FNDA:1,_RINvNtNtCs6qJP7SanZgw_10gql_parser3ast7visitor17walk_path_primaryNtNtNtB4_8visitors4span13SpanCollectorEB6_
FNDA:10,_RINvNtNtCs6qJP7SanZgw_10gql_parser3ast7visitor17walk_path_primaryNtNtNtB4_8visitors8variable17VariableCollectorEB6_
FNDA:0,_RINvNtNtCs6qJP7SanZgw_10gql_parser3ast7visitor17walk_path_primaryNtNtNtNtB6_8semantic9validator19callable_validation25CallableValidationVisitorEB6_
FNDA:0,_RINvNtNtCs6qJP7SanZgw_10gql_parser3ast7visitor18walk_for_statementINtNtNtB4_8visitors10collecting17CollectingVisitorNtNtCs5bkkNO3hTYU_5alloc6string6StringNCNvNtB15_5testss_42collecting_visitor_collects_property_names0EEB6_
FNDA:0,_RINvNtNtCs6qJP7SanZgw_10gql_parser3ast7visitor18walk_for_statementNtNtB2_5tests11ExprCounterEB6_
FNDA:0,_RINvNtNtCs6qJP7SanZgw_10gql_parser3ast7visitor18walk_for_statementNtNtNtB4_8visitors4span13SpanCollectorEB6_
FNDA:0,_RINvNtNtCs6qJP7SanZgw_10gql_parser3ast7visitor18walk_for_statementNtNtNtB4_8visitors8variable17VariableCollectorEB6_
FNDA:0,_RINvNtNtCs6qJP7SanZgw_10gql_parser3ast7visitor18walk_for_statementNtNtNtNtB6_8semantic9validator19callable_validation25CallableValidationVisitorEB6_
FNDA:1,_RINvNtNtCs6qJP7SanZgw_10gql_parser3ast7visitor18walk_graph_patternINtNtNtB4_8visitors10collecting17CollectingVisitorNtNtCs5bkkNO3hTYU_5alloc6string6StringNCNvNtB15_5testss_42collecting_visitor_collects_property_names0EEB6_
FNDA:1,_RINvNtNtCs6qJP7SanZgw_10gql_parser3ast7visitor18walk_graph_patternNtNtB2_5tests11ExprCounterEB6_
FNDA:1,_RINvNtNtCs6qJP7SanZgw_10gql_parser3ast7visitor18walk_graph_patternNtNtNtB4_8visitors4span13SpanCollectorEB6_
FNDA:6,_RINvNtNtCs6qJP7SanZgw_10gql_parser3ast7visitor18walk_graph_patternNtNtNtB4_8visitors8variable17VariableCollectorEB6_
FNDA:0,_RINvNtNtCs6qJP7SanZgw_10gql_parser3ast7visitor18walk_graph_patternNtNtNtNtB6_8semantic9validator19callable_validation25CallableValidationVisitorEB6_
FNDA:0,_RINvNtNtCs6qJP7SanZgw_10gql_parser3ast7visitor18walk_let_statementINtNtNtB4_8visitors10collecting17CollectingVisitorNtNtCs5bkkNO3hTYU_5alloc6string6StringNCNvNtB15_5testss_42collecting_visitor_collects_property_names0EEB6_
FNDA:1,_RINvNtNtCs6qJP7SanZgw_10gql_parser3ast7visitor18walk_let_statementNtNtB2_5tests11ExprCounterEB6_
FNDA:0,_RINvNtNtCs6qJP7SanZgw_10gql_parser3ast7visitor18walk_let_statementNtNtNtB4_8visitors4span13SpanCollectorEB6_
FNDA:1,_RINvNtNtCs6qJP7SanZgw_10gql_parser3ast7visitor18walk_let_statementNtNtNtB4_8visitors8variable17VariableCollectorEB6_
FNDA:0,_RINvNtNtCs6qJP7SanZgw_10gql_parser3ast7visitor18walk_let_statementNtNtNtNtB6_8semantic9validator19callable_validation25CallableValidationVisitorEB6_
FNDA:0,_RINvNtNtCs6qJP7SanZgw_10gql_parser3ast7visitor18walk_predicate_mutNtNtB2_5tests16UppercaseMutatorEB6_
FNDA:1,_RINvNtNtCs6qJP7SanZgw_10gql_parser3ast7visitor18walk_statement_mutNtNtB2_5tests16UppercaseMutatorEB6_
FNDA:1,_RINvNtNtCs6qJP7SanZgw_10gql_parser3ast7visitor19walk_expression_mutNtNtB2_5tests16UppercaseMutatorEB6_
FNDA:1,_RINvNtNtCs6qJP7SanZgw_10gql_parser3ast7visitor20walk_element_patternINtNtNtB4_8visitors10collecting17CollectingVisitorNtNtCs5bkkNO3hTYU_5alloc6string6StringNCNvNtB17_5testss_42collecting_visitor_collects_property_names0EEB6_
FNDA:1,_RINvNtNtCs6qJP7SanZgw_10gql_parser3ast7visitor20walk_element_patternNtNtB2_5tests11ExprCounterEB6_
FNDA:1,_RINvNtNtCs6qJP7SanZgw_10gql_parser3ast7visitor20walk_element_patternNtNtNtB4_8visitors4span13SpanCollectorEB6_
FNDA:10,_RINvNtNtCs6qJP7SanZgw_10gql_parser3ast7visitor20walk_element_patternNtNtNtB4_8visitors8variable17VariableCollectorEB6_
FNDA:0,_RINvNtNtCs6qJP7SanZgw_10gql_parser3ast7visitor20walk_element_patternNtNtNtNtB6_8semantic9validator19callable_validation25CallableValidationVisitorEB6_
FNDA:0,_RINvNtNtCs6qJP7SanZgw_10gql_parser3ast7visitor20walk_let_binding_mutNtNtB2_5tests16UppercaseMutatorEB6_
FNDA:1,_RINvNtNtCs6qJP7SanZgw_10gql_parser3ast7visitor20walk_match_statementINtNtNtB4_8visitors10collecting17CollectingVisitorNtNtCs5bkkNO3hTYU_5alloc6string6StringNCNvNtB17_5testss_42collecting_visitor_collects_property_names0EEB6_
FNDA:1,_RINvNtNtCs6qJP7SanZgw_10gql_parser3ast7visitor20walk_match_statementNtNtB2_5tests11ExprCounterEB6_
FNDA:1,_RINvNtNtCs6qJP7SanZgw_10gql_parser3ast7visitor20walk_match_statementNtNtNtB4_8visitors4span13SpanCollectorEB6_
FNDA:6,_RINvNtNtCs6qJP7SanZgw_10gql_parser3ast7visitor20walk_match_statementNtNtNtB4_8visitors8variable17VariableCollectorEB6_
FNDA:0,_RINvNtNtCs6qJP7SanZgw_10gql_parser3ast7visitor20walk_match_statementNtNtNtNtB6_8semantic9validator19callable_validation25CallableValidationVisitorEB6_
FNDA:1,_RINvNtNtCs6qJP7SanZgw_10gql_parser3ast7visitor20walk_path_factor_mutNtNtB2_5tests16UppercaseMutatorEB6_
FNDA:1,_RINvNtNtCs6qJP7SanZgw_10gql_parser3ast7visitor20walk_query_statementINtNtNtB4_8visitors10collecting17CollectingVisitorNtNtCs5bkkNO3hTYU_5alloc6string6StringNCNvNtB17_5testss_42collecting_visitor_collects_property_names0EEB6_
FNDA:1,_RINvNtNtCs6qJP7SanZgw_10gql_parser3ast7visitor20walk_query_statementNtNtB2_5tests11ExprCounterEB6_
FNDA:1,_RINvNtNtCs6qJP7SanZgw_10gql_parser3ast7visitor20walk_query_statementNtNtNtB4_8visitors4span13SpanCollectorEB6_
FNDA:2,_RINvNtNtCs6qJP7SanZgw_10gql_parser3ast7visitor20walk_query_statementNtNtNtB4_8visitors8variable17VariableCollectorEB6_
FNDA:0,_RINvNtNtCs6qJP7SanZgw_10gql_parser3ast7visitor20walk_query_statementNtNtNtNtB6_8semantic9validator19callable_validation25CallableValidationVisitorEB6_
FNDA:1,_RINvNtNtCs6qJP7SanZgw_10gql_parser3ast7visitor20walk_return_item_mutNtNtB2_5tests16UppercaseMutatorEB6_
FNDA:0,_RINvNtNtCs6qJP7SanZgw_10gql_parser3ast7visitor21walk_edge_pattern_mutNtNtB2_5tests16UppercaseMutatorEB6_
FNDA:0,_RINvNtNtCs6qJP7SanZgw_10gql_parser3ast7visitor21walk_filter_statementINtNtNtB4_8visitors10collecting17CollectingVisitorNtNtCs5bkkNO3hTYU_5alloc6string6StringNCNvNtB18_5testss_42collecting_visitor_collects_property_names0EEB6_
FNDA:0,_RINvNtNtCs6qJP7SanZgw_10gql_parser3ast7visitor21walk_filter_statementNtNtB2_5tests11ExprCounterEB6_
FNDA:0,_RINvNtNtCs6qJP7SanZgw_10gql_parser3ast7visitor21walk_filter_statementNtNtNtB4_8visitors4span13SpanCollectorEB6_
FNDA:0,_RINvNtNtCs6qJP7SanZgw_10gql_parser3ast7visitor21walk_filter_statementNtNtNtB4_8visitors8variable17VariableCollectorEB6_
FNDA:0,_RINvNtNtCs6qJP7SanZgw_10gql_parser3ast7visitor21walk_filter_statementNtNtNtNtB6_8semantic9validator19callable_validation25CallableValidationVisitorEB6_
FNDA:1,_RINvNtNtCs6qJP7SanZgw_10gql_parser3ast7visitor21walk_label_expressionINtNtNtB4_8visitors10collecting17CollectingVisitorNtNtCs5bkkNO3hTYU_5alloc6string6StringNCNvNtB18_5testss_42collecting_visitor_collects_property_names0EEB6_
FNDA:1,_RINvNtNtCs6qJP7SanZgw_10gql_parser3ast7visitor21walk_label_expressionNtNtB2_5tests11ExprCounterEB6_
FNDA:1,_RINvNtNtCs6qJP7SanZgw_10gql_parser3ast7visitor21walk_label_expressionNtNtNtB4_8visitors4span13SpanCollectorEB6_
FNDA:2,_RINvNtNtCs6qJP7SanZgw_10gql_parser3ast7visitor21walk_label_expressionNtNtNtB4_8visitors8variable17VariableCollectorEB6_
FNDA:0,_RINvNtNtCs6qJP7SanZgw_10gql_parser3ast7visitor21walk_label_expressionNtNtNtNtB6_8semantic9validator19callable_validation25CallableValidationVisitorEB6_
FNDA:1,_RINvNtNtCs6qJP7SanZgw_10gql_parser3ast7visitor21walk_linear_query_mutNtNtB2_5tests16UppercaseMutatorEB6_
FNDA:1,_RINvNtNtCs6qJP7SanZgw_10gql_parser3ast7visitor21walk_node_pattern_mutNtNtB2_5tests16UppercaseMutatorEB6_
FNDA:1,_RINvNtNtCs6qJP7SanZgw_10gql_parser3ast7visitor21walk_path_pattern_mutNtNtB2_5tests16UppercaseMutatorEB6_
FNDA:1,_RINvNtNtCs6qJP7SanZgw_10gql_parser3ast7visitor21walk_path_primary_mutNtNtB2_5tests16UppercaseMutatorEB6_
FNDA:1,_RINvNtNtCs6qJP7SanZgw_10gql_parser3ast7visitor21walk_return_statementINtNtNtB4_8visitors10collecting17CollectingVisitorNtNtCs5bkkNO3hTYU_5alloc6string6StringNCNvNtB18_5testss_42collecting_visitor_collects_property_names0EEB6_
FNDA:1,_RINvNtNtCs6qJP7SanZgw_10gql_parser3ast7visitor21walk_return_statementNtNtB2_5tests11ExprCounterEB6_
FNDA:1,_RINvNtNtCs6qJP7SanZgw_10gql_parser3ast7visitor21walk_return_statementNtNtNtB4_8visitors4span13SpanCollectorEB6_
FNDA:2,_RINvNtNtCs6qJP7SanZgw_10gql_parser3ast7visitor21walk_return_statementNtNtNtB4_8visitors8variable17VariableCollectorEB6_
FNDA:0,_RINvNtNtCs6qJP7SanZgw_10gql_parser3ast7visitor21walk_return_statementNtNtNtNtB6_8semantic9validator19callable_validation25CallableValidationVisitorEB6_
FNDA:0,_RINvNtNtCs6qJP7SanZgw_10gql_parser3ast7visitor21walk_select_statementINtNtNtB4_8visitors10collecting17CollectingVisitorNtNtCs5bkkNO3hTYU_5alloc6string6StringNCNvNtB18_5testss_42collecting_visitor_collects_property_names0EEB6_
FNDA:0,_RINvNtNtCs6qJP7SanZgw_10gql_parser3ast7visitor21walk_select_statementNtNtB2_5tests11ExprCounterEB6_
FNDA:0,_RINvNtNtCs6qJP7SanZgw_10gql_parser3ast7visitor21walk_select_statementNtNtNtB4_8visitors4span13SpanCollectorEB6_
FNDA:0,_RINvNtNtCs6qJP7SanZgw_10gql_parser3ast7visitor21walk_select_statementNtNtNtB4_8visitors8variable17VariableCollectorEB6_
FNDA:0,_RINvNtNtCs6qJP7SanZgw_10gql_parser3ast7visitor21walk_select_statementNtNtNtNtB6_8semantic9validator19callable_validation25CallableValidationVisitorEB6_
FNDA:0,_RINvNtNtCs6qJP7SanZgw_10gql_parser3ast7visitor22walk_for_statement_mutNtNtB2_5tests16UppercaseMutatorEB6_
FNDA:1,_RINvNtNtCs6qJP7SanZgw_10gql_parser3ast7visitor22walk_graph_pattern_mutNtNtB2_5tests16UppercaseMutatorEB6_
FNDA:0,_RINvNtNtCs6qJP7SanZgw_10gql_parser3ast7visitor22walk_let_statement_mutNtNtB2_5tests16UppercaseMutatorEB6_
FNDA:1,_RINvNtNtCs6qJP7SanZgw_10gql_parser3ast7visitor24walk_element_pattern_mutNtNtB2_5tests16UppercaseMutatorEB6_
FNDA:1,_RINvNtNtCs6qJP7SanZgw_10gql_parser3ast7visitor24walk_match_statement_mutNtNtB2_5tests16UppercaseMutatorEB6_
FNDA:1,_RINvNtNtCs6qJP7SanZgw_10gql_parser3ast7visitor24walk_query_statement_mutNtNtB2_5tests16UppercaseMutatorEB6_
FNDA:0,_RINvNtNtCs6qJP7SanZgw_10gql_parser3ast7visitor25walk_filter_statement_mutNtNtB2_5tests16UppercaseMutatorEB6_
FNDA:0,_RINvNtNtCs6qJP7SanZgw_10gql_parser3ast7visitor25walk_label_expression_mutNtNtB2_5tests16UppercaseMutatorEB6_
FNDA:1,_RINvNtNtCs6qJP7SanZgw_10gql_parser3ast7visitor25walk_return_statement_mutNtNtB2_5tests16UppercaseMutatorEB6_
FNDA:0,_RINvNtNtCs6qJP7SanZgw_10gql_parser3ast7visitor25walk_select_statement_mutNtNtB2_5tests16UppercaseMutatorEB6_
FNDA:0,_RINvNtNtCs6qJP7SanZgw_10gql_parser3ast7visitor26walk_simplified_expressionINtNtNtB4_8visitors10collecting17CollectingVisitorNtNtCs5bkkNO3hTYU_5alloc6string6StringNCNvNtB1d_5testss_42collecting_visitor_collects_property_names0EEB6_
FNDA:0,_RINvNtNtCs6qJP7SanZgw_10gql_parser3ast7visitor26walk_simplified_expressionNtNtB2_5tests11ExprCounterEB6_
FNDA:0,_RINvNtNtCs6qJP7SanZgw_10gql_parser3ast7visitor26walk_simplified_expressionNtNtNtB4_8visitors4span13SpanCollectorEB6_
FNDA:0,_RINvNtNtCs6qJP7SanZgw_10gql_parser3ast7visitor26walk_simplified_expressionNtNtNtB4_8visitors8variable17VariableCollectorEB6_
FNDA:0,_RINvNtNtCs6qJP7SanZgw_10gql_parser3ast7visitor26walk_simplified_expressionNtNtNtNtB6_8semantic9validator19callable_validation25CallableValidationVisitorEB6_
FNDA:1,_RINvNtNtCs6qJP7SanZgw_10gql_parser3ast7visitor28walk_path_pattern_expressionINtNtNtB4_8visitors10collecting17CollectingVisitorNtNtCs5bkkNO3hTYU_5alloc6string6StringNCNvNtB1f_5testss_42collecting_visitor_collects_property_names0EEB6_
FNDA:1,_RINvNtNtCs6qJP7SanZgw_10gql_parser3ast7visitor28walk_path_pattern_expressionNtNtB2_5tests11ExprCounterEB6_
FNDA:1,_RINvNtNtCs6qJP7SanZgw_10gql_parser3ast7visitor28walk_path_pattern_expressionNtNtNtB4_8visitors4span13SpanCollectorEB6_
FNDA:6,_RINvNtNtCs6qJP7SanZgw_10gql_parser3ast7visitor28walk_path_pattern_expressionNtNtNtB4_8visitors8variable17VariableCollectorEB6_
FNDA:0,_RINvNtNtCs6qJP7SanZgw_10gql_parser3ast7visitor28walk_path_pattern_expressionNtNtNtNtB6_8semantic9validator19callable_validation25CallableValidationVisitorEB6_
FNDA:0,_RINvNtNtCs6qJP7SanZgw_10gql_parser3ast7visitor29walk_call_procedure_statementINtNtNtB4_8visitors10collecting17CollectingVisitorNtNtCs5bkkNO3hTYU_5alloc6string6StringNCNvNtB1g_5testss_42collecting_visitor_collects_property_names0EEB6_
FNDA:0,_RINvNtNtCs6qJP7SanZgw_10gql_parser3ast7visitor29walk_call_procedure_statementNtNtB2_5tests11ExprCounterEB6_
FNDA:0,_RINvNtNtCs6qJP7SanZgw_10gql_parser3ast7visitor29walk_call_procedure_statementNtNtNtB4_8visitors4span13SpanCollectorEB6_
FNDA:0,_RINvNtNtCs6qJP7SanZgw_10gql_parser3ast7visitor29walk_call_procedure_statementNtNtNtB4_8visitors8variable17VariableCollectorEB6_
FNDA:0,_RINvNtNtCs6qJP7SanZgw_10gql_parser3ast7visitor29walk_call_procedure_statementNtNtNtNtB6_8semantic9validator19callable_validation25CallableValidationVisitorEB6_
FNDA:1,_RINvNtNtCs6qJP7SanZgw_10gql_parser3ast7visitor30walk_primitive_query_statementINtNtNtB4_8visitors10collecting17CollectingVisitorNtNtCs5bkkNO3hTYU_5alloc6string6StringNCNvNtB1h_5testss_42collecting_visitor_collects_property_names0EEB6_
FNDA:2,_RINvNtNtCs6qJP7SanZgw_10gql_parser3ast7visitor30walk_primitive_query_statementNtNtB2_5tests11ExprCounterEB6_
FNDA:1,_RINvNtNtCs6qJP7SanZgw_10gql_parser3ast7visitor30walk_primitive_query_statementNtNtNtB4_8visitors4span13SpanCollectorEB6_
FNDA:3,_RINvNtNtCs6qJP7SanZgw_10gql_parser3ast7visitor30walk_primitive_query_statementNtNtNtB4_8visitors8variable17VariableCollectorEB6_
FNDA:0,_RINvNtNtCs6qJP7SanZgw_10gql_parser3ast7visitor30walk_primitive_query_statementNtNtNtNtB6_8semantic9validator19callable_validation25CallableValidationVisitorEB6_
FNDA:0,_RINvNtNtCs6qJP7SanZgw_10gql_parser3ast7visitor30walk_simplified_expression_mutNtNtB2_5tests16UppercaseMutatorEB6_
FNDA:1,_RINvNtNtCs6qJP7SanZgw_10gql_parser3ast7visitor31walk_primitive_result_statementINtNtNtB4_8visitors10collecting17CollectingVisitorNtNtCs5bkkNO3hTYU_5alloc6string6StringNCNvNtB1i_5testss_42collecting_visitor_collects_property_names0EEB6_
FNDA:1,_RINvNtNtCs6qJP7SanZgw_10gql_parser3ast7visitor31walk_primitive_result_statementNtNtB2_5tests11ExprCounterEB6_
FNDA:1,_RINvNtNtCs6qJP7SanZgw_10gql_parser3ast7visitor31walk_primitive_result_statementNtNtNtB4_8visitors4span13SpanCollectorEB6_
FNDA:2,_RINvNtNtCs6qJP7SanZgw_10gql_parser3ast7visitor31walk_primitive_result_statementNtNtNtB4_8visitors8variable17VariableCollectorEB6_
FNDA:0,_RINvNtNtCs6qJP7SanZgw_10gql_parser3ast7visitor31walk_primitive_result_statementNtNtNtNtB6_8semantic9validator19callable_validation25CallableValidationVisitorEB6_
FNDA:1,_RINvNtNtCs6qJP7SanZgw_10gql_parser3ast7visitor32walk_path_pattern_expression_mutNtNtB2_5tests16UppercaseMutatorEB6_
FNDA:0,_RINvNtNtCs6qJP7SanZgw_10gql_parser3ast7visitor33walk_call_procedure_statement_mutNtNtB2_5tests16UppercaseMutatorEB6_
FNDA:1,_RINvNtNtCs6qJP7SanZgw_10gql_parser3ast7visitor34walk_primitive_query_statement_mutNtNtB2_5tests16UppercaseMutatorEB6_
FNDA:1,_RINvNtNtCs6qJP7SanZgw_10gql_parser3ast7visitor35walk_primitive_result_statement_mutNtNtB2_5tests16UppercaseMutatorEB6_
FNDA:2,_RNvYNtNtNtNtCs6qJP7SanZgw_10gql_parser3ast8visitors8variable17VariableCollectorNtNtB8_7visitor10AstVisitor11visit_queryBa_
FNDA:2,_RNvYNtNtNtNtCs6qJP7SanZgw_10gql_parser3ast8visitors8variable17VariableCollectorNtNtB8_7visitor10AstVisitor13visit_programBa_
FNDA:2,_RNvYNtNtNtNtCs6qJP7SanZgw_10gql_parser3ast8visitors8variable17VariableCollectorNtNtB8_7visitor10AstVisitor15visit_statementBa_
FNDA:10,_RNvYNtNtNtNtCs6qJP7SanZgw_10gql_parser3ast8visitors8variable17VariableCollectorNtNtB8_7visitor10AstVisitor17visit_path_factorBa_
FNDA:3,_RNvYNtNtNtNtCs6qJP7SanZgw_10gql_parser3ast8visitors8variable17VariableCollectorNtNtB8_7visitor10AstVisitor17visit_return_itemBa_
FNDA:2,_RNvYNtNtNtNtCs6qJP7SanZgw_10gql_parser3ast8visitors8variable17VariableCollectorNtNtB8_7visitor10AstVisitor18visit_linear_queryBa_
FNDA:10,_RNvYNtNtNtNtCs6qJP7SanZgw_10gql_parser3ast8visitors8variable17VariableCollectorNtNtB8_7visitor10AstVisitor18visit_path_primaryBa_
FNDA:6,_RNvYNtNtNtNtCs6qJP7SanZgw_10gql_parser3ast8visitors8variable17VariableCollectorNtNtB8_7visitor10AstVisitor19visit_graph_patternBa_
FNDA:1,_RNvYNtNtNtNtCs6qJP7SanZgw_10gql_parser3ast8visitors8variable17VariableCollectorNtNtB8_7visitor10AstVisitor19visit_let_statementBa_
FNDA:10,_RNvYNtNtNtNtCs6qJP7SanZgw_10gql_parser3ast8visitors8variable17VariableCollectorNtNtB8_7visitor10AstVisitor21visit_element_patternBa_
FNDA:6,_RNvYNtNtNtNtCs6qJP7SanZgw_10gql_parser3ast8visitors8variable17VariableCollectorNtNtB8_7visitor10AstVisitor21visit_match_statementBa_
FNDA:2,_RNvYNtNtNtNtCs6qJP7SanZgw_10gql_parser3ast8visitors8variable17VariableCollectorNtNtB8_7visitor10AstVisitor21visit_query_statementBa_
FNDA:0,_RNvYNtNtNtNtCs6qJP7SanZgw_10gql_parser3ast8visitors8variable17VariableCollectorNtNtB8_7visitor10AstVisitor22visit_filter_statementBa_
FNDA:2,_RNvYNtNtNtNtCs6qJP7SanZgw_10gql_parser3ast8visitors8variable17VariableCollectorNtNtB8_7visitor10AstVisitor22visit_label_expressionBa_
FNDA:2,_RNvYNtNtNtNtCs6qJP7SanZgw_10gql_parser3ast8visitors8variable17VariableCollectorNtNtB8_7visitor10AstVisitor22visit_return_statementBa_
FNDA:0,_RNvYNtNtNtNtCs6qJP7SanZgw_10gql_parser3ast8visitors8variable17VariableCollectorNtNtB8_7visitor10AstVisitor22visit_select_statementBa_
FNDA:6,_RNvYNtNtNtNtCs6qJP7SanZgw_10gql_parser3ast8visitors8variable17VariableCollectorNtNtB8_7visitor10AstVisitor29visit_path_pattern_expressionBa_
FNDA:3,_RNvYNtNtNtNtCs6qJP7SanZgw_10gql_parser3ast8visitors8variable17VariableCollectorNtNtB8_7visitor10AstVisitor31visit_primitive_query_statementBa_
FNDA:2,_RNvYNtNtNtNtCs6qJP7SanZgw_10gql_parser3ast8visitors8variable17VariableCollectorNtNtB8_7visitor10AstVisitor32visit_primitive_result_statementBa_
FNDA:1,_RNvYNtNtNtNtCs6qJP7SanZgw_10gql_parser3ast8visitors4span13SpanCollectorNtNtB8_7visitor10AstVisitor17visit_path_factorBa_
FNDA:1,_RNvYNtNtNtNtCs6qJP7SanZgw_10gql_parser3ast8visitors4span13SpanCollectorNtNtB8_7visitor10AstVisitor18visit_linear_queryBa_
FNDA:1,_RNvYNtNtNtNtCs6qJP7SanZgw_10gql_parser3ast8visitors4span13SpanCollectorNtNtB8_7visitor10AstVisitor18visit_path_primaryBa_
FNDA:1,_RNvYNtNtNtNtCs6qJP7SanZgw_10gql_parser3ast8visitors4span13SpanCollectorNtNtB8_7visitor10AstVisitor29visit_path_pattern_expressionBa_
FNDA:1,_RNvYINtNtNtNtCs6qJP7SanZgw_10gql_parser3ast8visitors10collecting17CollectingVisitorNtNtCs5bkkNO3hTYU_5alloc6string6StringNCNvNtB5_5testss_42collecting_visitor_collects_property_names0ENtNtB9_7visitor10AstVisitor17visit_path_factorBb_
FNDA:1,_RNvYINtNtNtNtCs6qJP7SanZgw_10gql_parser3ast8visitors10collecting17CollectingVisitorNtNtCs5bkkNO3hTYU_5alloc6string6StringNCNvNtB5_5testss_42collecting_visitor_collects_property_names0ENtNtB9_7visitor10AstVisitor18visit_linear_queryBb_
FNDA:1,_RNvYINtNtNtNtCs6qJP7SanZgw_10gql_parser3ast8visitors10collecting17CollectingVisitorNtNtCs5bkkNO3hTYU_5alloc6string6StringNCNvNtB5_5testss_42collecting_visitor_collects_property_names0ENtNtB9_7visitor10AstVisitor18visit_path_primaryBb_
FNDA:1,_RNvYINtNtNtNtCs6qJP7SanZgw_10gql_parser3ast8visitors10collecting17CollectingVisitorNtNtCs5bkkNO3hTYU_5alloc6string6StringNCNvNtB5_5testss_42collecting_visitor_collects_property_names0ENtNtB9_7visitor10AstVisitor29visit_path_pattern_expressionBb_
FNDA:0,_RNvYNtNtNtNtCs6qJP7SanZgw_10gql_parser8semantic9validator19callable_validation25CallableValidationVisitorNtNtNtBa_3ast7visitor10AstVisitor11visit_queryBa_
FNDA:0,_RNvYNtNtNtNtCs6qJP7SanZgw_10gql_parser8semantic9validator19callable_validation25CallableValidationVisitorNtNtNtBa_3ast7visitor10AstVisitor15visit_statementBa_
FNDA:0,_RNvYNtNtNtNtCs6qJP7SanZgw_10gql_parser8semantic9validator19callable_validation25CallableValidationVisitorNtNtNtBa_3ast7visitor10AstVisitor17visit_let_bindingBa_
FNDA:0,_RNvYNtNtNtNtCs6qJP7SanZgw_10gql_parser8semantic9validator19callable_validation25CallableValidationVisitorNtNtNtBa_3ast7visitor10AstVisitor17visit_path_factorBa_
FNDA:0,_RNvYNtNtNtNtCs6qJP7SanZgw_10gql_parser8semantic9validator19callable_validation25CallableValidationVisitorNtNtNtBa_3ast7visitor10AstVisitor17visit_return_itemBa_
FNDA:0,_RNvYNtNtNtNtCs6qJP7SanZgw_10gql_parser8semantic9validator19callable_validation25CallableValidationVisitorNtNtNtBa_3ast7visitor10AstVisitor18visit_edge_patternBa_
FNDA:0,_RNvYNtNtNtNtCs6qJP7SanZgw_10gql_parser8semantic9validator19callable_validation25CallableValidationVisitorNtNtNtBa_3ast7visitor10AstVisitor18visit_node_patternBa_
FNDA:0,_RNvYNtNtNtNtCs6qJP7SanZgw_10gql_parser8semantic9validator19callable_validation25CallableValidationVisitorNtNtNtBa_3ast7visitor10AstVisitor18visit_path_patternBa_
FNDA:0,_RNvYNtNtNtNtCs6qJP7SanZgw_10gql_parser8semantic9validator19callable_validation25CallableValidationVisitorNtNtNtBa_3ast7visitor10AstVisitor18visit_path_primaryBa_
FNDA:0,_RNvYNtNtNtNtCs6qJP7SanZgw_10gql_parser8semantic9validator19callable_validation25CallableValidationVisitorNtNtNtBa_3ast7visitor10AstVisitor19visit_for_statementBa_
FNDA:0,_RNvYNtNtNtNtCs6qJP7SanZgw_10gql_parser8semantic9validator19callable_validation25CallableValidationVisitorNtNtNtBa_3ast7visitor10AstVisitor19visit_graph_patternBa_
FNDA:0,_RNvYNtNtNtNtCs6qJP7SanZgw_10gql_parser8semantic9validator19callable_validation25CallableValidationVisitorNtNtNtBa_3ast7visitor10AstVisitor19visit_let_statementBa_
FNDA:0,_RNvYNtNtNtNtCs6qJP7SanZgw_10gql_parser8semantic9validator19callable_validation25CallableValidationVisitorNtNtNtBa_3ast7visitor10AstVisitor21visit_element_patternBa_
FNDA:0,_RNvYNtNtNtNtCs6qJP7SanZgw_10gql_parser8semantic9validator19callable_validation25CallableValidationVisitorNtNtNtBa_3ast7visitor10AstVisitor21visit_match_statementBa_
FNDA:0,_RNvYNtNtNtNtCs6qJP7SanZgw_10gql_parser8semantic9validator19callable_validation25CallableValidationVisitorNtNtNtBa_3ast7visitor10AstVisitor21visit_query_statementBa_
FNDA:0,_RNvYNtNtNtNtCs6qJP7SanZgw_10gql_parser8semantic9validator19callable_validation25CallableValidationVisitorNtNtNtBa_3ast7visitor10AstVisitor22visit_filter_statementBa_
FNDA:0,_RNvYNtNtNtNtCs6qJP7SanZgw_10gql_parser8semantic9validator19callable_validation25CallableValidationVisitorNtNtNtBa_3ast7visitor10AstVisitor22visit_label_expressionBa_
FNDA:0,_RNvYNtNtNtNtCs6qJP7SanZgw_10gql_parser8semantic9validator19callable_validation25CallableValidationVisitorNtNtNtBa_3ast7visitor10AstVisitor22visit_return_statementBa_
FNDA:0,_RNvYNtNtNtNtCs6qJP7SanZgw_10gql_parser8semantic9validator19callable_validation25CallableValidationVisitorNtNtNtBa_3ast7visitor10AstVisitor22visit_select_statementBa_
FNDA:0,_RNvYNtNtNtNtCs6qJP7SanZgw_10gql_parser8semantic9validator19callable_validation25CallableValidationVisitorNtNtNtBa_3ast7visitor10AstVisitor29visit_path_pattern_expressionBa_
FNDA:0,_RNvYNtNtNtNtCs6qJP7SanZgw_10gql_parser8semantic9validator19callable_validation25CallableValidationVisitorNtNtNtBa_3ast7visitor10AstVisitor32visit_primitive_result_statementBa_
FNDA:1,_RNvNtNtNtCs6qJP7SanZgw_10gql_parser3ast7visitor5testss_31visitor_walks_query_expressions
FNDA:1,_RNvNtNtNtCs6qJP7SanZgw_10gql_parser3ast7visitor5testss_49mutable_visitor_can_transform_variable_references
FNDA:10,_RNvXNtNtNtCs6qJP7SanZgw_10gql_parser3ast7visitor5testsNtB2_11ExprCounterNtB4_10AstVisitor16visit_expression
FNDA:1,_RNvXs_NtNtNtCs6qJP7SanZgw_10gql_parser3ast7visitor5testsNtB4_16UppercaseMutatorNtB6_13AstVisitorMut20visit_expression_mut
FNDA:1,_RNvYNtNtNtNtCs6qJP7SanZgw_10gql_parser3ast7visitor5tests11ExprCounterNtB6_10AstVisitor11visit_queryBa_
FNDA:1,_RNvYNtNtNtNtCs6qJP7SanZgw_10gql_parser3ast7visitor5tests11ExprCounterNtB6_10AstVisitor13visit_programBa_
FNDA:1,_RNvYNtNtNtNtCs6qJP7SanZgw_10gql_parser3ast7visitor5tests11ExprCounterNtB6_10AstVisitor15visit_statementBa_
FNDA:1,_RNvYNtNtNtNtCs6qJP7SanZgw_10gql_parser3ast7visitor5tests11ExprCounterNtB6_10AstVisitor17visit_let_bindingBa_
FNDA:1,_RNvYNtNtNtNtCs6qJP7SanZgw_10gql_parser3ast7visitor5tests11ExprCounterNtB6_10AstVisitor17visit_path_factorBa_
FNDA:1,_RNvYNtNtNtNtCs6qJP7SanZgw_10gql_parser3ast7visitor5tests11ExprCounterNtB6_10AstVisitor17visit_return_itemBa_
FNDA:0,_RNvYNtNtNtNtCs6qJP7SanZgw_10gql_parser3ast7visitor5tests11ExprCounterNtB6_10AstVisitor18visit_edge_patternBa_
FNDA:1,_RNvYNtNtNtNtCs6qJP7SanZgw_10gql_parser3ast7visitor5tests11ExprCounterNtB6_10AstVisitor18visit_linear_queryBa_
FNDA:1,_RNvYNtNtNtNtCs6qJP7SanZgw_10gql_parser3ast7visitor5tests11ExprCounterNtB6_10AstVisitor18visit_node_patternBa_
FNDA:1,_RNvYNtNtNtNtCs6qJP7SanZgw_10gql_parser3ast7visitor5tests11ExprCounterNtB6_10AstVisitor18visit_path_patternBa_
FNDA:1,_RNvYNtNtNtNtCs6qJP7SanZgw_10gql_parser3ast7visitor5tests11ExprCounterNtB6_10AstVisitor18visit_path_primaryBa_
FNDA:0,_RNvYNtNtNtNtCs6qJP7SanZgw_10gql_parser3ast7visitor5tests11ExprCounterNtB6_10AstVisitor19visit_for_statementBa_
FNDA:1,_RNvYNtNtNtNtCs6qJP7SanZgw_10gql_parser3ast7visitor5tests11ExprCounterNtB6_10AstVisitor19visit_graph_patternBa_
FNDA:1,_RNvYNtNtNtNtCs6qJP7SanZgw_10gql_parser3ast7visitor5tests11ExprCounterNtB6_10AstVisitor19visit_let_statementBa_
FNDA:1,_RNvYNtNtNtNtCs6qJP7SanZgw_10gql_parser3ast7visitor5tests11ExprCounterNtB6_10AstVisitor21visit_element_patternBa_
FNDA:1,_RNvYNtNtNtNtCs6qJP7SanZgw_10gql_parser3ast7visitor5tests11ExprCounterNtB6_10AstVisitor21visit_match_statementBa_
FNDA:1,_RNvYNtNtNtNtCs6qJP7SanZgw_10gql_parser3ast7visitor5tests11ExprCounterNtB6_10AstVisitor21visit_query_statementBa_
FNDA:0,_RNvYNtNtNtNtCs6qJP7SanZgw_10gql_parser3ast7visitor5tests11ExprCounterNtB6_10AstVisitor22visit_filter_statementBa_
FNDA:1,_RNvYNtNtNtNtCs6qJP7SanZgw_10gql_parser3ast7visitor5tests11ExprCounterNtB6_10AstVisitor22visit_label_expressionBa_
FNDA:1,_RNvYNtNtNtNtCs6qJP7SanZgw_10gql_parser3ast7visitor5tests11ExprCounterNtB6_10AstVisitor22visit_return_statementBa_
FNDA:0,_RNvYNtNtNtNtCs6qJP7SanZgw_10gql_parser3ast7visitor5tests11ExprCounterNtB6_10AstVisitor22visit_select_statementBa_
FNDA:1,_RNvYNtNtNtNtCs6qJP7SanZgw_10gql_parser3ast7visitor5tests11ExprCounterNtB6_10AstVisitor29visit_path_pattern_expressionBa_
FNDA:2,_RNvYNtNtNtNtCs6qJP7SanZgw_10gql_parser3ast7visitor5tests11ExprCounterNtB6_10AstVisitor31visit_primitive_query_statementBa_
FNDA:1,_RNvYNtNtNtNtCs6qJP7SanZgw_10gql_parser3ast7visitor5tests11ExprCounterNtB6_10AstVisitor32visit_primitive_result_statementBa_
FNDA:1,_RNvYNtNtNtNtCs6qJP7SanZgw_10gql_parser3ast7visitor5tests16UppercaseMutatorNtB6_13AstVisitorMut15visit_query_mutBa_
FNDA:1,_RNvYNtNtNtNtCs6qJP7SanZgw_10gql_parser3ast7visitor5tests16UppercaseMutatorNtB6_13AstVisitorMut17visit_program_mutBa_
FNDA:1,_RNvYNtNtNtNtCs6qJP7SanZgw_10gql_parser3ast7visitor5tests16UppercaseMutatorNtB6_13AstVisitorMut19visit_statement_mutBa_
FNDA:0,_RNvYNtNtNtNtCs6qJP7SanZgw_10gql_parser3ast7visitor5tests16UppercaseMutatorNtB6_13AstVisitorMut21visit_let_binding_mutBa_
FNDA:1,_RNvYNtNtNtNtCs6qJP7SanZgw_10gql_parser3ast7visitor5tests16UppercaseMutatorNtB6_13AstVisitorMut21visit_path_factor_mutBa_
FNDA:1,_RNvYNtNtNtNtCs6qJP7SanZgw_10gql_parser3ast7visitor5tests16UppercaseMutatorNtB6_13AstVisitorMut21visit_return_item_mutBa_
FNDA:0,_RNvYNtNtNtNtCs6qJP7SanZgw_10gql_parser3ast7visitor5tests16UppercaseMutatorNtB6_13AstVisitorMut22visit_edge_pattern_mutBa_
FNDA:1,_RNvYNtNtNtNtCs6qJP7SanZgw_10gql_parser3ast7visitor5tests16UppercaseMutatorNtB6_13AstVisitorMut22visit_linear_query_mutBa_
FNDA:1,_RNvYNtNtNtNtCs6qJP7SanZgw_10gql_parser3ast7visitor5tests16UppercaseMutatorNtB6_13AstVisitorMut22visit_node_pattern_mutBa_
FNDA:1,_RNvYNtNtNtNtCs6qJP7SanZgw_10gql_parser3ast7visitor5tests16UppercaseMutatorNtB6_13AstVisitorMut22visit_path_pattern_mutBa_
FNDA:1,_RNvYNtNtNtNtCs6qJP7SanZgw_10gql_parser3ast7visitor5tests16UppercaseMutatorNtB6_13AstVisitorMut22visit_path_primary_mutBa_
FNDA:0,_RNvYNtNtNtNtCs6qJP7SanZgw_10gql_parser3ast7visitor5tests16UppercaseMutatorNtB6_13AstVisitorMut23visit_for_statement_mutBa_
FNDA:1,_RNvYNtNtNtNtCs6qJP7SanZgw_10gql_parser3ast7visitor5tests16UppercaseMutatorNtB6_13AstVisitorMut23visit_graph_pattern_mutBa_
FNDA:0,_RNvYNtNtNtNtCs6qJP7SanZgw_10gql_parser3ast7visitor5tests16UppercaseMutatorNtB6_13AstVisitorMut23visit_let_statement_mutBa_
FNDA:1,_RNvYNtNtNtNtCs6qJP7SanZgw_10gql_parser3ast7visitor5tests16UppercaseMutatorNtB6_13AstVisitorMut25visit_element_pattern_mutBa_
FNDA:1,_RNvYNtNtNtNtCs6qJP7SanZgw_10gql_parser3ast7visitor5tests16UppercaseMutatorNtB6_13AstVisitorMut25visit_match_statement_mutBa_
FNDA:1,_RNvYNtNtNtNtCs6qJP7SanZgw_10gql_parser3ast7visitor5tests16UppercaseMutatorNtB6_13AstVisitorMut25visit_query_statement_mutBa_
FNDA:0,_RNvYNtNtNtNtCs6qJP7SanZgw_10gql_parser3ast7visitor5tests16UppercaseMutatorNtB6_13AstVisitorMut26visit_filter_statement_mutBa_
FNDA:0,_RNvYNtNtNtNtCs6qJP7SanZgw_10gql_parser3ast7visitor5tests16UppercaseMutatorNtB6_13AstVisitorMut26visit_label_expression_mutBa_
FNDA:1,_RNvYNtNtNtNtCs6qJP7SanZgw_10gql_parser3ast7visitor5tests16UppercaseMutatorNtB6_13AstVisitorMut26visit_return_statement_mutBa_
FNDA:0,_RNvYNtNtNtNtCs6qJP7SanZgw_10gql_parser3ast7visitor5tests16UppercaseMutatorNtB6_13AstVisitorMut26visit_select_statement_mutBa_
FNDA:1,_RNvYNtNtNtNtCs6qJP7SanZgw_10gql_parser3ast7visitor5tests16UppercaseMutatorNtB6_13AstVisitorMut33visit_path_pattern_expression_mutBa_
FNDA:1,_RNvYNtNtNtNtCs6qJP7SanZgw_10gql_parser3ast7visitor5tests16UppercaseMutatorNtB6_13AstVisitorMut35visit_primitive_query_statement_mutBa_
FNDA:1,_RNvYNtNtNtNtCs6qJP7SanZgw_10gql_parser3ast7visitor5tests16UppercaseMutatorNtB6_13AstVisitorMut36visit_primitive_result_statement_mutBa_
FNDA:0,_RNvYNtNtNtNtCs87GxMFlPkU4_10gql_parser3ast8visitors4span13SpanCollectorNtNtB8_7visitor10AstVisitor17visit_path_factorBa_
FNDA:0,_RNvYNtNtNtNtCs87GxMFlPkU4_10gql_parser3ast8visitors4span13SpanCollectorNtNtB8_7visitor10AstVisitor18visit_linear_queryBa_
FNDA:0,_RNvYNtNtNtNtCs87GxMFlPkU4_10gql_parser3ast8visitors4span13SpanCollectorNtNtB8_7visitor10AstVisitor18visit_path_primaryBa_
FNDA:0,_RNvYNtNtNtNtCs87GxMFlPkU4_10gql_parser3ast8visitors4span13SpanCollectorNtNtB8_7visitor10AstVisitor29visit_path_pattern_expressionBa_
FNDA:0,_RNvYNtNtNtNtCs87GxMFlPkU4_10gql_parser3ast8visitors8variable17VariableCollectorNtNtB8_7visitor10AstVisitor11visit_queryBa_
FNDA:0,_RNvYNtNtNtNtCs87GxMFlPkU4_10gql_parser3ast8visitors8variable17VariableCollectorNtNtB8_7visitor10AstVisitor17visit_path_factorBa_
FNDA:0,_RNvYNtNtNtNtCs87GxMFlPkU4_10gql_parser3ast8visitors8variable17VariableCollectorNtNtB8_7visitor10AstVisitor17visit_return_itemBa_
FNDA:0,_RNvYNtNtNtNtCs87GxMFlPkU4_10gql_parser3ast8visitors8variable17VariableCollectorNtNtB8_7visitor10AstVisitor18visit_linear_queryBa_
FNDA:0,_RNvYNtNtNtNtCs87GxMFlPkU4_10gql_parser3ast8visitors8variable17VariableCollectorNtNtB8_7visitor10AstVisitor18visit_path_primaryBa_
FNDA:0,_RNvYNtNtNtNtCs87GxMFlPkU4_10gql_parser3ast8visitors8variable17VariableCollectorNtNtB8_7visitor10AstVisitor19visit_graph_patternBa_
FNDA:0,_RNvYNtNtNtNtCs87GxMFlPkU4_10gql_parser3ast8visitors8variable17VariableCollectorNtNtB8_7visitor10AstVisitor19visit_let_statementBa_
FNDA:0,_RNvYNtNtNtNtCs87GxMFlPkU4_10gql_parser3ast8visitors8variable17VariableCollectorNtNtB8_7visitor10AstVisitor21visit_element_patternBa_
FNDA:0,_RNvYNtNtNtNtCs87GxMFlPkU4_10gql_parser3ast8visitors8variable17VariableCollectorNtNtB8_7visitor10AstVisitor21visit_match_statementBa_
FNDA:0,_RNvYNtNtNtNtCs87GxMFlPkU4_10gql_parser3ast8visitors8variable17VariableCollectorNtNtB8_7visitor10AstVisitor22visit_filter_statementBa_
FNDA:0,_RNvYNtNtNtNtCs87GxMFlPkU4_10gql_parser3ast8visitors8variable17VariableCollectorNtNtB8_7visitor10AstVisitor22visit_label_expressionBa_
FNDA:0,_RNvYNtNtNtNtCs87GxMFlPkU4_10gql_parser3ast8visitors8variable17VariableCollectorNtNtB8_7visitor10AstVisitor22visit_return_statementBa_
FNDA:0,_RNvYNtNtNtNtCs87GxMFlPkU4_10gql_parser3ast8visitors8variable17VariableCollectorNtNtB8_7visitor10AstVisitor22visit_select_statementBa_
FNDA:0,_RNvYNtNtNtNtCs87GxMFlPkU4_10gql_parser3ast8visitors8variable17VariableCollectorNtNtB8_7visitor10AstVisitor29visit_path_pattern_expressionBa_
FNDA:0,_RNvYNtNtNtNtCs87GxMFlPkU4_10gql_parser3ast8visitors8variable17VariableCollectorNtNtB8_7visitor10AstVisitor31visit_primitive_query_statementBa_
FNDA:0,_RNvYNtNtNtNtCs87GxMFlPkU4_10gql_parser3ast8visitors8variable17VariableCollectorNtNtB8_7visitor10AstVisitor32visit_primitive_result_statementBa_
FNDA:0,_RNvYNtNtNtNtCs87GxMFlPkU4_10gql_parser8semantic9validator19callable_validation25CallableValidationVisitorNtNtNtBa_3ast7visitor10AstVisitor11visit_queryBa_
FNDA:0,_RNvYNtNtNtNtCs87GxMFlPkU4_10gql_parser8semantic9validator19callable_validation25CallableValidationVisitorNtNtNtBa_3ast7visitor10AstVisitor15visit_statementBa_
FNDA:0,_RNvYNtNtNtNtCs87GxMFlPkU4_10gql_parser8semantic9validator19callable_validation25CallableValidationVisitorNtNtNtBa_3ast7visitor10AstVisitor17visit_let_bindingBa_
FNDA:0,_RNvYNtNtNtNtCs87GxMFlPkU4_10gql_parser8semantic9validator19callable_validation25CallableValidationVisitorNtNtNtBa_3ast7visitor10AstVisitor17visit_path_factorBa_
FNDA:0,_RNvYNtNtNtNtCs87GxMFlPkU4_10gql_parser8semantic9validator19callable_validation25CallableValidationVisitorNtNtNtBa_3ast7visitor10AstVisitor17visit_return_itemBa_
FNDA:0,_RNvYNtNtNtNtCs87GxMFlPkU4_10gql_parser8semantic9validator19callable_validation25CallableValidationVisitorNtNtNtBa_3ast7visitor10AstVisitor18visit_edge_patternBa_
FNDA:0,_RNvYNtNtNtNtCs87GxMFlPkU4_10gql_parser8semantic9validator19callable_validation25CallableValidationVisitorNtNtNtBa_3ast7visitor10AstVisitor18visit_node_patternBa_
FNDA:0,_RNvYNtNtNtNtCs87GxMFlPkU4_10gql_parser8semantic9validator19callable_validation25CallableValidationVisitorNtNtNtBa_3ast7visitor10AstVisitor18visit_path_patternBa_
FNDA:0,_RNvYNtNtNtNtCs87GxMFlPkU4_10gql_parser8semantic9validator19callable_validation25CallableValidationVisitorNtNtNtBa_3ast7visitor10AstVisitor18visit_path_primaryBa_
FNDA:0,_RNvYNtNtNtNtCs87GxMFlPkU4_10gql_parser8semantic9validator19callable_validation25CallableValidationVisitorNtNtNtBa_3ast7visitor10AstVisitor19visit_for_statementBa_
FNDA:0,_RNvYNtNtNtNtCs87GxMFlPkU4_10gql_parser8semantic9validator19callable_validation25CallableValidationVisitorNtNtNtBa_3ast7visitor10AstVisitor19visit_graph_patternBa_
FNDA:0,_RNvYNtNtNtNtCs87GxMFlPkU4_10gql_parser8semantic9validator19callable_validation25CallableValidationVisitorNtNtNtBa_3ast7visitor10AstVisitor19visit_let_statementBa_
FNDA:0,_RNvYNtNtNtNtCs87GxMFlPkU4_10gql_parser8semantic9validator19callable_validation25CallableValidationVisitorNtNtNtBa_3ast7visitor10AstVisitor21visit_element_patternBa_
FNDA:0,_RNvYNtNtNtNtCs87GxMFlPkU4_10gql_parser8semantic9validator19callable_validation25CallableValidationVisitorNtNtNtBa_3ast7visitor10AstVisitor21visit_match_statementBa_
FNDA:0,_RNvYNtNtNtNtCs87GxMFlPkU4_10gql_parser8semantic9validator19callable_validation25CallableValidationVisitorNtNtNtBa_3ast7visitor10AstVisitor21visit_query_statementBa_
FNDA:0,_RNvYNtNtNtNtCs87GxMFlPkU4_10gql_parser8semantic9validator19callable_validation25CallableValidationVisitorNtNtNtBa_3ast7visitor10AstVisitor22visit_filter_statementBa_
FNDA:0,_RNvYNtNtNtNtCs87GxMFlPkU4_10gql_parser8semantic9validator19callable_validation25CallableValidationVisitorNtNtNtBa_3ast7visitor10AstVisitor22visit_label_expressionBa_
FNDA:0,_RNvYNtNtNtNtCs87GxMFlPkU4_10gql_parser8semantic9validator19callable_validation25CallableValidationVisitorNtNtNtBa_3ast7visitor10AstVisitor22visit_return_statementBa_
FNDA:0,_RNvYNtNtNtNtCs87GxMFlPkU4_10gql_parser8semantic9validator19callable_validation25CallableValidationVisitorNtNtNtBa_3ast7visitor10AstVisitor22visit_select_statementBa_
FNDA:0,_RNvYNtNtNtNtCs87GxMFlPkU4_10gql_parser8semantic9validator19callable_validation25CallableValidationVisitorNtNtNtBa_3ast7visitor10AstVisitor29visit_path_pattern_expressionBa_
FNDA:0,_RNvYNtNtNtNtCs87GxMFlPkU4_10gql_parser8semantic9validator19callable_validation25CallableValidationVisitorNtNtNtBa_3ast7visitor10AstVisitor32visit_primitive_result_statementBa_
FNDA:0,_RINvNtNtCs87GxMFlPkU4_10gql_parser3ast7visitor10walk_queryNtNtNtB4_8visitors4span13SpanCollectorEB6_
FNDA:0,_RINvNtNtCs87GxMFlPkU4_10gql_parser3ast7visitor10walk_queryNtNtNtB4_8visitors8variable17VariableCollectorEB6_
FNDA:0,_RINvNtNtCs87GxMFlPkU4_10gql_parser3ast7visitor10walk_queryNtNtNtNtB6_8semantic9validator19callable_validation25CallableValidationVisitorEB6_
FNDA:0,_RINvNtNtCs87GxMFlPkU4_10gql_parser3ast7visitor12walk_literalNtNtNtB4_8visitors4span13SpanCollectorEB6_
FNDA:0,_RINvNtNtCs87GxMFlPkU4_10gql_parser3ast7visitor12walk_literalNtNtNtB4_8visitors8variable17VariableCollectorEB6_
FNDA:0,_RINvNtNtCs87GxMFlPkU4_10gql_parser3ast7visitor12walk_literalNtNtNtB6_8analysis15expression_info23ExpressionInfoCollectorEB6_
FNDA:0,_RINvNtNtCs87GxMFlPkU4_10gql_parser3ast7visitor12walk_literalNtNtNtNtB6_8semantic9validator19callable_validation25CallableValidationVisitorEB6_
FNDA:0,_RINvNtNtCs87GxMFlPkU4_10gql_parser3ast7visitor12walk_programNtNtNtB4_8visitors4span13SpanCollectorEB6_
FNDA:0,_RINvNtNtCs87GxMFlPkU4_10gql_parser3ast7visitor12walk_programNtNtNtNtB6_8semantic9validator19callable_validation25CallableValidationVisitorEB6_
FNDA:0,_RINvNtNtCs87GxMFlPkU4_10gql_parser3ast7visitor14walk_predicateNtNtNtB4_8visitors4span13SpanCollectorEB6_
FNDA:0,_RINvNtNtCs87GxMFlPkU4_10gql_parser3ast7visitor14walk_predicateNtNtNtB4_8visitors8variable17VariableCollectorEB6_
FNDA:0,_RINvNtNtCs87GxMFlPkU4_10gql_parser3ast7visitor14walk_predicateNtNtNtB6_8analysis15expression_info23ExpressionInfoCollectorEB6_
FNDA:0,_RINvNtNtCs87GxMFlPkU4_10gql_parser3ast7visitor14walk_predicateNtNtNtNtB6_8semantic9validator19callable_validation25CallableValidationVisitorEB6_
FNDA:0,_RINvNtNtCs87GxMFlPkU4_10gql_parser3ast7visitor14walk_statementNtNtNtB4_8visitors4span13SpanCollectorEB6_
FNDA:0,_RINvNtNtCs87GxMFlPkU4_10gql_parser3ast7visitor14walk_statementNtNtNtNtB6_8semantic9validator19callable_validation25CallableValidationVisitorEB6_
FNDA:0,_RINvNtNtCs87GxMFlPkU4_10gql_parser3ast7visitor15walk_expressionNtNtNtB4_8visitors4span13SpanCollectorEB6_
FNDA:0,_RINvNtNtCs87GxMFlPkU4_10gql_parser3ast7visitor15walk_expressionNtNtNtB4_8visitors8variable17VariableCollectorEB6_
FNDA:0,_RINvNtNtCs87GxMFlPkU4_10gql_parser3ast7visitor15walk_expressionNtNtNtB6_8analysis15expression_info23ExpressionInfoCollectorEB6_
FNDA:0,_RINvNtNtCs87GxMFlPkU4_10gql_parser3ast7visitor15walk_expressionNtNtNtNtB6_8semantic9validator19callable_validation25CallableValidationVisitorEB6_
FNDA:0,_RINvNtNtCs87GxMFlPkU4_10gql_parser3ast7visitor16walk_let_bindingNtNtNtB4_8visitors4span13SpanCollectorEB6_
FNDA:0,_RINvNtNtCs87GxMFlPkU4_10gql_parser3ast7visitor16walk_let_bindingNtNtNtB4_8visitors8variable17VariableCollectorEB6_
FNDA:0,_RINvNtNtCs87GxMFlPkU4_10gql_parser3ast7visitor16walk_let_bindingNtNtNtNtB6_8semantic9validator19callable_validation25CallableValidationVisitorEB6_
FNDA:0,_RINvNtNtCs87GxMFlPkU4_10gql_parser3ast7visitor16walk_path_factorNtNtNtB4_8visitors4span13SpanCollectorEB6_
FNDA:0,_RINvNtNtCs87GxMFlPkU4_10gql_parser3ast7visitor16walk_path_factorNtNtNtB4_8visitors8variable17VariableCollectorEB6_
FNDA:0,_RINvNtNtCs87GxMFlPkU4_10gql_parser3ast7visitor16walk_path_factorNtNtNtNtB6_8semantic9validator19callable_validation25CallableValidationVisitorEB6_
FNDA:0,_RINvNtNtCs87GxMFlPkU4_10gql_parser3ast7visitor16walk_return_itemNtNtNtB4_8visitors4span13SpanCollectorEB6_
FNDA:0,_RINvNtNtCs87GxMFlPkU4_10gql_parser3ast7visitor16walk_return_itemNtNtNtB4_8visitors8variable17VariableCollectorEB6_
FNDA:0,_RINvNtNtCs87GxMFlPkU4_10gql_parser3ast7visitor16walk_return_itemNtNtNtNtB6_8semantic9validator19callable_validation25CallableValidationVisitorEB6_
FNDA:0,_RINvNtNtCs87GxMFlPkU4_10gql_parser3ast7visitor17walk_edge_patternNtNtNtB4_8visitors4span13SpanCollectorEB6_
FNDA:0,_RINvNtNtCs87GxMFlPkU4_10gql_parser3ast7visitor17walk_edge_patternNtNtNtB4_8visitors8variable17VariableCollectorEB6_
FNDA:0,_RINvNtNtCs87GxMFlPkU4_10gql_parser3ast7visitor17walk_edge_patternNtNtNtNtB6_8semantic9validator19callable_validation25CallableValidationVisitorEB6_
FNDA:0,_RINvNtNtCs87GxMFlPkU4_10gql_parser3ast7visitor17walk_linear_queryNtNtNtB4_8visitors4span13SpanCollectorEB6_
FNDA:0,_RINvNtNtCs87GxMFlPkU4_10gql_parser3ast7visitor17walk_linear_queryNtNtNtB4_8visitors8variable17VariableCollectorEB6_
FNDA:0,_RINvNtNtCs87GxMFlPkU4_10gql_parser3ast7visitor17walk_linear_queryNtNtNtNtB6_8semantic9validator19callable_validation25CallableValidationVisitorEB6_
FNDA:0,_RINvNtNtCs87GxMFlPkU4_10gql_parser3ast7visitor17walk_node_patternNtNtNtB4_8visitors4span13SpanCollectorEB6_
FNDA:0,_RINvNtNtCs87GxMFlPkU4_10gql_parser3ast7visitor17walk_node_patternNtNtNtB4_8visitors8variable17VariableCollectorEB6_
FNDA:0,_RINvNtNtCs87GxMFlPkU4_10gql_parser3ast7visitor17walk_node_patternNtNtNtNtB6_8semantic9validator19callable_validation25CallableValidationVisitorEB6_
FNDA:0,_RINvNtNtCs87GxMFlPkU4_10gql_parser3ast7visitor17walk_path_patternNtNtNtB4_8visitors4span13SpanCollectorEB6_
FNDA:0,_RINvNtNtCs87GxMFlPkU4_10gql_parser3ast7visitor17walk_path_patternNtNtNtB4_8visitors8variable17VariableCollectorEB6_
FNDA:0,_RINvNtNtCs87GxMFlPkU4_10gql_parser3ast7visitor17walk_path_patternNtNtNtNtB6_8semantic9validator19callable_validation25CallableValidationVisitorEB6_
FNDA:0,_RINvNtNtCs87GxMFlPkU4_10gql_parser3ast7visitor17walk_path_primaryNtNtNtB4_8visitors4span13SpanCollectorEB6_
FNDA:0,_RINvNtNtCs87GxMFlPkU4_10gql_parser3ast7visitor17walk_path_primaryNtNtNtB4_8visitors8variable17VariableCollectorEB6_
FNDA:0,_RINvNtNtCs87GxMFlPkU4_10gql_parser3ast7visitor17walk_path_primaryNtNtNtNtB6_8semantic9validator19callable_validation25CallableValidationVisitorEB6_
FNDA:0,_RINvNtNtCs87GxMFlPkU4_10gql_parser3ast7visitor18walk_for_statementNtNtNtB4_8visitors4span13SpanCollectorEB6_
FNDA:0,_RINvNtNtCs87GxMFlPkU4_10gql_parser3ast7visitor18walk_for_statementNtNtNtB4_8visitors8variable17VariableCollectorEB6_
FNDA:0,_RINvNtNtCs87GxMFlPkU4_10gql_parser3ast7visitor18walk_for_statementNtNtNtNtB6_8semantic9validator19callable_validation25CallableValidationVisitorEB6_
FNDA:0,_RINvNtNtCs87GxMFlPkU4_10gql_parser3ast7visitor18walk_graph_patternNtNtNtB4_8visitors4span13SpanCollectorEB6_
FNDA:0,_RINvNtNtCs87GxMFlPkU4_10gql_parser3ast7visitor18walk_graph_patternNtNtNtB4_8visitors8variable17VariableCollectorEB6_
FNDA:0,_RINvNtNtCs87GxMFlPkU4_10gql_parser3ast7visitor18walk_graph_patternNtNtNtNtB6_8semantic9validator19callable_validation25CallableValidationVisitorEB6_
FNDA:0,_RINvNtNtCs87GxMFlPkU4_10gql_parser3ast7visitor18walk_let_statementNtNtNtB4_8visitors4span13SpanCollectorEB6_
FNDA:0,_RINvNtNtCs87GxMFlPkU4_10gql_parser3ast7visitor18walk_let_statementNtNtNtB4_8visitors8variable17VariableCollectorEB6_
FNDA:0,_RINvNtNtCs87GxMFlPkU4_10gql_parser3ast7visitor18walk_let_statementNtNtNtNtB6_8semantic9validator19callable_validation25CallableValidationVisitorEB6_
FNDA:0,_RINvNtNtCs87GxMFlPkU4_10gql_parser3ast7visitor20walk_element_patternNtNtNtB4_8visitors4span13SpanCollectorEB6_
FNDA:0,_RINvNtNtCs87GxMFlPkU4_10gql_parser3ast7visitor20walk_element_patternNtNtNtB4_8visitors8variable17VariableCollectorEB6_
FNDA:0,_RINvNtNtCs87GxMFlPkU4_10gql_parser3ast7visitor20walk_element_patternNtNtNtNtB6_8semantic9validator19callable_validation25CallableValidationVisitorEB6_
FNDA:0,_RINvNtNtCs87GxMFlPkU4_10gql_parser3ast7visitor20walk_match_statementNtNtNtB4_8visitors4span13SpanCollectorEB6_
FNDA:0,_RINvNtNtCs87GxMFlPkU4_10gql_parser3ast7visitor20walk_match_statementNtNtNtB4_8visitors8variable17VariableCollectorEB6_
FNDA:0,_RINvNtNtCs87GxMFlPkU4_10gql_parser3ast7visitor20walk_match_statementNtNtNtNtB6_8semantic9validator19callable_validation25CallableValidationVisitorEB6_
FNDA:0,_RINvNtNtCs87GxMFlPkU4_10gql_parser3ast7visitor20walk_query_statementNtNtNtB4_8visitors4span13SpanCollectorEB6_
FNDA:0,_RINvNtNtCs87GxMFlPkU4_10gql_parser3ast7visitor20walk_query_statementNtNtNtNtB6_8semantic9validator19callable_validation25CallableValidationVisitorEB6_
FNDA:0,_RINvNtNtCs87GxMFlPkU4_10gql_parser3ast7visitor21walk_filter_statementNtNtNtB4_8visitors4span13SpanCollectorEB6_
FNDA:0,_RINvNtNtCs87GxMFlPkU4_10gql_parser3ast7visitor21walk_filter_statementNtNtNtB4_8visitors8variable17VariableCollectorEB6_
FNDA:0,_RINvNtNtCs87GxMFlPkU4_10gql_parser3ast7visitor21walk_filter_statementNtNtNtNtB6_8semantic9validator19callable_validation25CallableValidationVisitorEB6_
FNDA:0,_RINvNtNtCs87GxMFlPkU4_10gql_parser3ast7visitor21walk_label_expressionNtNtNtB4_8visitors4span13SpanCollectorEB6_
FNDA:0,_RINvNtNtCs87GxMFlPkU4_10gql_parser3ast7visitor21walk_label_expressionNtNtNtB4_8visitors8variable17VariableCollectorEB6_
FNDA:0,_RINvNtNtCs87GxMFlPkU4_10gql_parser3ast7visitor21walk_label_expressionNtNtNtNtB6_8semantic9validator19callable_validation25CallableValidationVisitorEB6_
FNDA:0,_RINvNtNtCs87GxMFlPkU4_10gql_parser3ast7visitor21walk_return_statementNtNtNtB4_8visitors4span13SpanCollectorEB6_
FNDA:0,_RINvNtNtCs87GxMFlPkU4_10gql_parser3ast7visitor21walk_return_statementNtNtNtB4_8visitors8variable17VariableCollectorEB6_
FNDA:0,_RINvNtNtCs87GxMFlPkU4_10gql_parser3ast7visitor21walk_return_statementNtNtNtNtB6_8semantic9validator19callable_validation25CallableValidationVisitorEB6_
FNDA:0,_RINvNtNtCs87GxMFlPkU4_10gql_parser3ast7visitor21walk_select_statementNtNtNtB4_8visitors4span13SpanCollectorEB6_
FNDA:0,_RINvNtNtCs87GxMFlPkU4_10gql_parser3ast7visitor21walk_select_statementNtNtNtB4_8visitors8variable17VariableCollectorEB6_
FNDA:0,_RINvNtNtCs87GxMFlPkU4_10gql_parser3ast7visitor21walk_select_statementNtNtNtNtB6_8semantic9validator19callable_validation25CallableValidationVisitorEB6_
FNDA:0,_RINvNtNtCs87GxMFlPkU4_10gql_parser3ast7visitor26walk_simplified_expressionNtNtNtB4_8visitors4span13SpanCollectorEB6_
FNDA:0,_RINvNtNtCs87GxMFlPkU4_10gql_parser3ast7visitor26walk_simplified_expressionNtNtNtB4_8visitors8variable17VariableCollectorEB6_
FNDA:0,_RINvNtNtCs87GxMFlPkU4_10gql_parser3ast7visitor26walk_simplified_expressionNtNtNtNtB6_8semantic9validator19callable_validation25CallableValidationVisitorEB6_
FNDA:0,_RINvNtNtCs87GxMFlPkU4_10gql_parser3ast7visitor28walk_path_pattern_expressionNtNtNtB4_8visitors4span13SpanCollectorEB6_
FNDA:0,_RINvNtNtCs87GxMFlPkU4_10gql_parser3ast7visitor28walk_path_pattern_expressionNtNtNtB4_8visitors8variable17VariableCollectorEB6_
FNDA:0,_RINvNtNtCs87GxMFlPkU4_10gql_parser3ast7visitor28walk_path_pattern_expressionNtNtNtNtB6_8semantic9validator19callable_validation25CallableValidationVisitorEB6_
FNDA:0,_RINvNtNtCs87GxMFlPkU4_10gql_parser3ast7visitor29walk_call_procedure_statementNtNtNtB4_8visitors4span13SpanCollectorEB6_
FNDA:0,_RINvNtNtCs87GxMFlPkU4_10gql_parser3ast7visitor29walk_call_procedure_statementNtNtNtB4_8visitors8variable17VariableCollectorEB6_
FNDA:0,_RINvNtNtCs87GxMFlPkU4_10gql_parser3ast7visitor29walk_call_procedure_statementNtNtNtNtB6_8semantic9validator19callable_validation25CallableValidationVisitorEB6_
FNDA:0,_RINvNtNtCs87GxMFlPkU4_10gql_parser3ast7visitor30walk_primitive_query_statementNtNtNtB4_8visitors4span13SpanCollectorEB6_
FNDA:0,_RINvNtNtCs87GxMFlPkU4_10gql_parser3ast7visitor30walk_primitive_query_statementNtNtNtB4_8visitors8variable17VariableCollectorEB6_
FNDA:0,_RINvNtNtCs87GxMFlPkU4_10gql_parser3ast7visitor30walk_primitive_query_statementNtNtNtNtB6_8semantic9validator19callable_validation25CallableValidationVisitorEB6_
FNDA:0,_RINvNtNtCs87GxMFlPkU4_10gql_parser3ast7visitor31walk_primitive_result_statementNtNtNtB4_8visitors4span13SpanCollectorEB6_
FNDA:0,_RINvNtNtCs87GxMFlPkU4_10gql_parser3ast7visitor31walk_primitive_result_statementNtNtNtB4_8visitors8variable17VariableCollectorEB6_
FNDA:0,_RINvNtNtCs87GxMFlPkU4_10gql_parser3ast7visitor31walk_primitive_result_statementNtNtNtNtB6_8semantic9validator19callable_validation25CallableValidationVisitorEB6_
FNF:112
FNH:82
DA:37,3
DA:38,3
DA:39,3
DA:41,3
DA:42,3
DA:43,3
DA:45,3
DA:46,3
DA:47,3
DA:49,3
DA:50,3
DA:51,3
DA:53,5
DA:54,5
DA:55,5
DA:57,5
DA:58,5
DA:59,5
DA:60,5
DA:61,5
DA:62,5
DA:64,3
DA:65,3
DA:66,3
DA:67,3
DA:68,3
DA:69,3
DA:71,7
DA:72,7
DA:73,7
DA:75,7
DA:76,7
DA:77,7
DA:79,1
DA:80,1
DA:81,1
DA:83,9
DA:84,9
DA:85,9
DA:86,9
DA:87,9
DA:88,9
DA:90,13
DA:91,13
DA:92,13
DA:94,13
DA:95,13
DA:96,13
DA:98,11
DA:99,11
DA:100,11
DA:102,1
DA:103,1
DA:104,1
DA:106,0
DA:107,0
DA:108,0
DA:110,3
DA:111,3
DA:112,3
DA:114,0
DA:115,0
DA:116,0
DA:118,2
DA:119,2
DA:120,2
DA:122,1
DA:123,1
DA:124,1
DA:126,0
DA:127,0
DA:128,0
DA:130,0
DA:131,0
DA:132,0
DA:134,3
DA:135,3
DA:136,3
DA:138,4
DA:139,4
DA:140,4
DA:142,0
DA:143,0
DA:144,0
DA:152,1
DA:153,1
DA:154,1
DA:156,1
DA:157,1
DA:158,1
DA:160,1
DA:161,1
DA:162,1
DA:163,1
DA:164,1
DA:165,1
DA:167,1
DA:168,1
DA:169,1
DA:171,1
DA:172,1
DA:173,1
DA:175,1
DA:176,1
DA:177,1
DA:178,1
DA:179,1
DA:180,1
DA:182,1
DA:183,1
DA:184,1
DA:185,1
DA:186,1
DA:187,1
DA:189,1
DA:190,1
DA:191,1
DA:192,1
DA:193,1
DA:194,1
DA:196,1
DA:197,1
DA:198,1
DA:200,1
DA:201,1
DA:202,1
DA:204,1
DA:205,1
DA:206,1
DA:207,1
DA:208,1
DA:209,1
DA:211,1
DA:212,1
DA:213,1
DA:215,1
DA:216,1
DA:217,1
DA:219,1
DA:220,1
DA:221,1
DA:222,1
DA:223,1
DA:224,1
DA:226,1
DA:227,1
DA:228,1
DA:230,0
DA:231,0
DA:232,0
DA:234,0
DA:235,0
DA:236,0
DA:237,0
DA:238,0
DA:239,0
DA:241,0
DA:242,0
DA:243,0
DA:244,0
DA:245,0
DA:246,0
DA:248,0
DA:249,0
DA:250,0
DA:251,0
DA:252,0
DA:253,0
DA:255,0
DA:256,0
DA:257,0
DA:258,0
DA:259,0
DA:260,0
DA:262,0
DA:263,0
DA:264,0
DA:265,0
DA:266,0
DA:267,0
DA:269,0
DA:270,0
DA:271,0
DA:272,0
DA:273,0
DA:274,0
DA:276,1
DA:277,1
DA:278,1
DA:279,1
DA:280,1
DA:281,1
DA:283,1
DA:284,1
DA:285,1
DA:287,0
DA:288,0
DA:289,0
DA:293,5
DA:294,5
DA:295,5
DA:296,5
DA:297,5
DA:298,5
DA:300,5
DA:301,5
DA:304,5
DA:305,5
DA:306,5
DA:307,5
DA:308,5
DA:309,5
DA:310,0
DA:312,0
DA:313,5
DA:316,5
DA:317,5
DA:318,5
DA:319,5
DA:320,5
DA:321,5
DA:324,5
DA:325,5
DA:326,5
DA:327,0
DA:328,0
DA:329,0
DA:331,0
DA:333,5
DA:336,5
DA:337,5
DA:338,5
DA:339,5
DA:340,5
DA:341,0
DA:342,0
DA:343,0
DA:344,0
DA:346,0
DA:347,0
DA:348,0
DA:350,5
DA:351,7
DA:352,7
DA:354,5
DA:355,5
DA:356,0
DA:360,5
DA:361,5
DA:364,7
DA:365,7
DA:366,7
DA:367,7
DA:368,7
DA:369,5
DA:370,5
DA:372,0
DA:373,0
DA:374,2
DA:375,0
DA:376,0
DA:377,0
DA:378,0
DA:379,0
DA:381,0
DA:382,0
DA:383,0
DA:384,0
DA:385,0
DA:386,0
DA:387,0
DA:388,0
DA:390,0
DA:392,7
DA:395,5
DA:396,5
DA:397,5
DA:398,5
DA:399,5
DA:400,5
DA:401,5
DA:403,0
DA:405,5
DA:408,9
DA:409,9
DA:410,9
DA:411,9
DA:412,9
DA:413,9
DA:414,0
DA:415,0
DA:416,0
DA:418,0
DA:419,0
DA:420,0
DA:421,0
DA:423,0
DA:427,9
DA:430,9
DA:431,9
DA:432,9
DA:433,9
DA:434,9
DA:435,9
DA:438,9
DA:439,4
DA:440,5
DA:442,9
DA:443,0
DA:444,0
DA:446,9
DA:448,9
DA:449,9
DA:452,9
DA:453,9
DA:454,9
DA:455,9
DA:456,9
DA:457,9
DA:460,9
DA:461,9
DA:462,9
DA:463,9
DA:464,9
DA:465,0
DA:466,0
DA:467,0
DA:469,0
DA:470,0
DA:471,0
DA:473,0
DA:475,9
DA:476,13
DA:477,13
DA:479,9
DA:482,9
DA:485,13
DA:486,13
DA:487,13
DA:488,13
DA:489,13
DA:490,13
DA:493,13
DA:494,13
DA:495,13
DA:496,13
DA:497,13
DA:498,13
DA:499,0
DA:500,0
DA:502,0
DA:503,0
DA:506,13
DA:509,13
DA:510,13
DA:511,13
DA:512,13
DA:513,13
DA:514,11
DA:515,2
DA:517,13
DA:520,11
DA:521,11
DA:522,11
DA:523,11
DA:524,11
DA:525,4
DA:526,7
DA:527,11
DA:528,2
DA:529,2
DA:531,9
DA:532,11
DA:533,0
DA:534,11
DA:536,11
DA:537,11
DA:540,2
DA:541,2
DA:542,2
DA:543,2
DA:544,2
DA:545,2
DA:546,1
DA:547,1
DA:548,2
DA:549,0
DA:550,0
DA:552,2
DA:553,2
DA:554,0
DA:555,2
DA:556,0
DA:558,2
DA:559,2
DA:562,5
DA:563,5
DA:564,5
DA:565,5
DA:566,5
DA:567,0
DA:568,0
DA:569,0
DA:570,0
DA:571,0
DA:574,5
DA:576,0
DA:577,0
DA:580,5
DA:583,0
DA:584,0
DA:585,0
DA:586,0
DA:587,0
DA:588,0
DA:591,2
DA:592,2
DA:593,2
DA:594,2
DA:595,2
DA:596,2
DA:599,2
DA:600,2
DA:603,2
DA:604,2
DA:605,2
DA:606,2
DA:607,2
DA:608,2
DA:611,0
DA:612,0
DA:613,0
DA:614,0
DA:615,0
DA:616,0
DA:619,0
DA:620,0
DA:621,0
DA:622,0
DA:623,0
DA:624,0
DA:625,0
DA:627,0
DA:629,0
DA:630,0
DA:631,0
DA:632,0
DA:633,0
DA:638,0
DA:639,0
DA:640,0
DA:641,0
DA:642,0
DA:645,0
DA:646,0
DA:648,0
DA:649,0
DA:650,0
DA:652,0
DA:653,0
DA:654,0
DA:655,0
DA:656,0
DA:658,0
DA:659,0
DA:660,0
DA:662,0
DA:663,0
DA:669,0
DA:671,0
DA:672,0
DA:673,0
DA:675,0
DA:676,0
DA:677,0
DA:678,0
DA:679,0
DA:681,0
DA:683,0
DA:684,0
DA:685,0
DA:687,0
DA:688,0
DA:689,0
DA:691,0
DA:693,0
DA:694,0
DA:695,0
DA:697,0
DA:698,0
DA:699,0
DA:701,0
DA:702,0
DA:705,5
DA:706,5
DA:707,5
DA:708,5
DA:709,5
DA:710,0
DA:711,5
DA:712,6
DA:713,6
DA:718,5
DA:719,0
DA:720,0
DA:721,0
DA:722,0
DA:724,5
DA:726,5
DA:727,5
DA:730,6
DA:731,6
DA:732,6
DA:733,6
DA:734,6
DA:735,6
DA:738,60
DA:739,60
DA:740,60
DA:741,60
DA:742,60
DA:743,8
DA:744,0
DA:745,0
DA:746,0
DA:747,0
DA:748,0
DA:749,4
DA:750,5
DA:751,0
DA:752,9
DA:753,9
DA:755,14
DA:757,26
DA:759,1
DA:760,1
DA:761,1
DA:763,1
DA:765,0
DA:766,0
DA:767,0
DA:768,0
DA:769,0
DA:770,0
DA:772,0
DA:773,0
DA:774,0
DA:775,0
DA:777,0
DA:778,0
DA:779,0
DA:780,0
DA:782,0
DA:783,0
DA:784,0
DA:785,0
DA:788,0
DA:789,2
DA:791,0
DA:793,2
DA:794,2
DA:796,0
DA:797,0
DA:798,0
DA:801,0
DA:802,0
DA:803,0
DA:804,0
DA:805,0
DA:807,0
DA:809,0
DA:810,0
DA:811,0
DA:813,0
DA:815,0
DA:816,0
DA:817,0
DA:819,0
DA:821,60
DA:823,0
DA:824,0
DA:825,0
DA:826,0
DA:827,0
DA:828,0
DA:829,0
DA:830,0
DA:831,0
DA:832,0
DA:833,0
DA:834,0
DA:835,0
DA:836,0
DA:837,0
DA:838,0
DA:840,0
DA:841,0
DA:842,0
DA:844,0
DA:846,0
DA:847,0
DA:848,0
DA:851,0
DA:853,8
DA:854,8
DA:855,8
DA:856,8
DA:857,8
DA:858,0
DA:859,0
DA:860,0
DA:862,0
DA:864,0
DA:865,0
DA:866,0
DA:868,0
DA:870,8
DA:872,8
DA:874,0
DA:875,0
DA:876,0
DA:877,0
DA:878,0
DA:879,0
DA:880,0
DA:881,0
DA:882,0
DA:883,0
DA:885,0
DA:886,0
DA:887,0
DA:888,0
DA:890,0
DA:891,0
DA:894,0
DA:897,0
DA:898,0
DA:899,0
DA:900,0
DA:901,0
DA:902,0
DA:903,0
DA:904,0
DA:905,0
DA:907,0
DA:908,0
DA:909,0
DA:911,0
DA:913,0
DA:914,0
DA:915,0
DA:917,0
DA:918,0
DA:919,0
DA:921,0
DA:923,0
DA:924,0
DA:926,0
DA:927,0
DA:929,0
DA:930,0
DA:932,0
DA:933,0
DA:936,0
DA:939,1
DA:940,1
DA:941,1
DA:942,1
DA:943,1
DA:944,1
DA:946,1
DA:947,1
DA:950,1
DA:951,1
DA:952,1
DA:953,1
DA:954,1
DA:955,1
DA:956,0
DA:958,0
DA:959,1
DA:962,1
DA:963,1
DA:964,1
DA:965,1
DA:966,1
DA:967,1
DA:970,1
DA:971,1
DA:972,1
DA:973,1
DA:974,1
DA:975,1
DA:976,0
DA:977,0
DA:978,0
DA:980,0
DA:982,1
DA:985,1
DA:986,1
DA:987,1
DA:988,1
DA:989,1
DA:990,0
DA:991,0
DA:992,0
DA:993,0
DA:995,0
DA:996,0
DA:997,0
DA:999,1
DA:1000,1
DA:1001,1
DA:1003,1
DA:1004,1
DA:1005,0
DA:1009,1
DA:1010,1
DA:1013,1
DA:1014,1
DA:1015,1
DA:1016,1
DA:1017,1
DA:1018,1
DA:1019,1
DA:1021,0
DA:1022,0
DA:1023,0
DA:1024,0
DA:1026,0
DA:1027,0
DA:1029,0
DA:1030,0
DA:1031,0
DA:1032,0
DA:1034,0
DA:1035,0
DA:1036,0
DA:1037,0
DA:1038,0
DA:1039,0
DA:1040,0
DA:1041,0
DA:1043,0
DA:1045,1
DA:1048,1
DA:1049,1
DA:1050,1
DA:1051,1
DA:1052,1
DA:1053,1
DA:1054,1
DA:1056,0
DA:1058,1
DA:1061,1
DA:1062,1
DA:1063,1
DA:1064,1
DA:1065,1
DA:1066,1
DA:1067,0
DA:1068,0
DA:1069,0
DA:1071,0
DA:1072,0
DA:1073,0
DA:1074,0
DA:1076,0
DA:1080,1
DA:1083,1
DA:1084,1
DA:1085,1
DA:1086,1
DA:1087,1
DA:1088,1
DA:1091,1
DA:1092,0
DA:1093,1
DA:1095,1
DA:1096,0
DA:1097,0
DA:1099,1
DA:1101,1
DA:1102,1
DA:1105,1
DA:1106,1
DA:1107,1
DA:1108,1
DA:1109,1
DA:1110,1
DA:1113,1
DA:1114,1
DA:1115,1
DA:1116,1
DA:1117,1
DA:1118,0
DA:1119,0
DA:1120,0
DA:1122,0
DA:1123,0
DA:1124,0
DA:1126,0
DA:1128,1
DA:1129,1
DA:1130,1
DA:1132,1
DA:1135,1
DA:1138,1
DA:1139,1
DA:1140,1
DA:1141,1
DA:1142,1
DA:1143,1
DA:1146,1
DA:1147,1
DA:1148,1
DA:1149,1
DA:1150,1
DA:1151,1
DA:1152,0
DA:1153,0
DA:1155,0
DA:1156,0
DA:1159,1
DA:1162,1
DA:1163,1
DA:1164,1
DA:1165,1
DA:1166,1
DA:1167,1
DA:1168,0
DA:1170,1
DA:1173,1
DA:1174,1
DA:1175,1
DA:1176,1
DA:1177,1
DA:1178,0
DA:1179,1
DA:1180,1
DA:1181,0
DA:1182,0
DA:1184,1
DA:1185,1
DA:1186,0
DA:1187,1
DA:1189,1
DA:1190,1
DA:1193,0
DA:1194,0
DA:1195,0
DA:1196,0
DA:1197,0
DA:1198,0
DA:1199,0
DA:1200,0
DA:1201,0
DA:1202,0
DA:1203,0
DA:1205,0
DA:1206,0
DA:1207,0
DA:1208,0
DA:1209,0
DA:1211,0
DA:1212,0
DA:1215,0
DA:1216,0
DA:1217,0
DA:1218,0
DA:1219,0
DA:1220,0
DA:1221,0
DA:1222,0
DA:1223,0
DA:1224,0
DA:1227,0
DA:1229,0
DA:1230,0
DA:1233,0
DA:1236,0
DA:1237,0
DA:1238,0
DA:1239,0
DA:1240,0
DA:1241,0
DA:1244,0
DA:1245,0
DA:1246,0
DA:1247,0
DA:1248,0
DA:1249,0
DA:1252,0
DA:1253,0
DA:1256,0
DA:1257,0
DA:1258,0
DA:1259,0
DA:1260,0
DA:1261,0
DA:1264,0
DA:1265,0
DA:1266,0
DA:1267,0
DA:1268,0
DA:1269,0
DA:1272,0
DA:1273,0
DA:1274,0
DA:1275,0
DA:1276,0
DA:1277,0
DA:1278,0
DA:1280,0
DA:1282,0
DA:1283,0
DA:1284,0
DA:1285,0
DA:1286,0
DA:1291,0
DA:1292,0
DA:1293,0
DA:1294,0
DA:1295,0
DA:1298,0
DA:1299,0
DA:1301,0
DA:1302,0
DA:1303,0
DA:1305,0
DA:1306,0
DA:1307,0
DA:1308,0
DA:1309,0
DA:1311,0
DA:1312,0
DA:1313,0
DA:1315,0
DA:1316,0
DA:1322,0
DA:1324,0
DA:1325,0
DA:1326,0
DA:1328,0
DA:1329,0
DA:1330,0
DA:1331,0
DA:1332,0
DA:1334,0
DA:1336,0
DA:1337,0
DA:1338,0
DA:1340,0
DA:1341,0
DA:1342,0
DA:1344,0
DA:1346,0
DA:1347,0
DA:1348,0
DA:1350,0
DA:1351,0
DA:1352,0
DA:1354,0
DA:1355,0
DA:1358,1
DA:1359,1
DA:1360,1
DA:1361,1
DA:1362,1
DA:1363,0
DA:1364,1
DA:1365,1
DA:1366,1
DA:1371,1
DA:1372,0
DA:1373,0
DA:1374,0
DA:1375,0
DA:1377,1
DA:1379,1
DA:1380,1
DA:1383,1
DA:1384,1
DA:1385,1
DA:1386,1
DA:1387,1
DA:1388,1
DA:1391,1
DA:1392,1
DA:1393,1
DA:1394,1
DA:1395,1
DA:1396,0
DA:1397,0
DA:1398,0
DA:1399,0
DA:1400,0
DA:1401,0
DA:1402,0
DA:1403,0
DA:1404,0
DA:1405,0
DA:1406,0
DA:1408,0
DA:1410,1
DA:1412,0
DA:1413,0
DA:1414,0
DA:1416,0
DA:1418,0
DA:1419,0
DA:1420,0
DA:1421,0
DA:1422,0
DA:1423,0
DA:1425,0
DA:1426,0
DA:1427,0
DA:1428,0
DA:1430,0
DA:1431,0
DA:1432,0
DA:1433,0
DA:1435,0
DA:1436,0
DA:1437,0
DA:1438,0
DA:1441,0
DA:1442,0
DA:1444,0
DA:1446,0
DA:1447,0
DA:1449,0
DA:1450,0
DA:1451,0
DA:1453,0
DA:1456,0
DA:1457,0
DA:1458,0
DA:1459,0
DA:1460,0
DA:1462,0
DA:1464,0
DA:1465,0
DA:1466,0
DA:1468,0
DA:1470,0
DA:1471,0
DA:1472,0
DA:1474,0
DA:1476,1
DA:1478,0
DA:1479,0
DA:1480,0
DA:1481,0
DA:1482,0
DA:1483,0
DA:1484,0
DA:1485,0
DA:1486,0
DA:1487,0
DA:1488,0
DA:1489,0
DA:1490,0
DA:1491,0
DA:1492,0
DA:1493,0
DA:1495,0
DA:1496,0
DA:1497,0
DA:1499,0
DA:1501,0
DA:1502,0
DA:1503,0
DA:1506,0
DA:1508,0
DA:1509,0
DA:1510,0
DA:1511,0
DA:1512,0
DA:1513,0
DA:1514,0
DA:1515,0
DA:1517,0
DA:1519,0
DA:1520,0
DA:1521,0
DA:1523,0
DA:1525,0
DA:1527,0
DA:1529,0
DA:1530,0
DA:1531,0
DA:1532,0
DA:1533,0
DA:1534,0
DA:1535,0
DA:1536,0
DA:1537,0
DA:1538,0
DA:1540,0
DA:1541,0
DA:1542,0
DA:1543,0
DA:1545,0
DA:1546,0
DA:1549,0
DA:1552,0
DA:1553,0
DA:1554,0
DA:1555,0
DA:1556,0
DA:1557,0
DA:1558,0
DA:1559,0
DA:1560,0
DA:1562,0
DA:1563,0
DA:1564,0
DA:1566,0
DA:1568,0
DA:1569,0
DA:1570,0
DA:1571,0
DA:1572,0
DA:1573,0
DA:1575,0
DA:1576,0
DA:1577,0
DA:1579,0
DA:1581,0
DA:1582,0
DA:1584,0
DA:1585,0
DA:1587,0
DA:1588,0
DA:1590,0
DA:1591,0
DA:1594,0
DA:1611,10
DA:1612,10
DA:1613,10
DA:1614,10
DA:1615,10
DA:1616,10
DA:1617,10
DA:1621,1
DA:1622,1
DA:1623,1
DA:1625,1
DA:1627,1
DA:1628,1
DA:1630,1
DA:1631,1
DA:1632,1
DA:1635,1
DA:1643,1
DA:1644,1
DA:1645,1
DA:1646,1
DA:1647,1
DA:1648,1
DA:1649,1
DA:1650,1
DA:1651,1
DA:1655,1
DA:1656,1
DA:1657,1
DA:1659,1
DA:1660,1
DA:1662,1
DA:1664,1
DA:1665,1
DA:1666,1
BRF:0
BRH:0
LF:1174
LH:528
end_of_record
SF:/Users/d072013/SAPDevelop/gql_parser/src/ast/visitors/collecting.rs
FN:218,_RNCNvNtNtNtNtCs6qJP7SanZgw_10gql_parser3ast8visitors10collecting5testss_42collecting_visitor_collects_property_names0Bb_
FN:72,_RNvMNtNtNtCs6qJP7SanZgw_10gql_parser3ast8visitors10collectingINtB2_17CollectingVisitorppE10into_itemsB8_
FN:76,_RNvMNtNtNtCs6qJP7SanZgw_10gql_parser3ast8visitors10collectingINtB2_17CollectingVisitorNtNtCs5bkkNO3hTYU_5alloc6string6StringNCNvNtB2_5testss_42collecting_visitor_collects_property_names0E13maybe_collectB8_
FN:59,_RNvMNtNtNtCs6qJP7SanZgw_10gql_parser3ast8visitors10collectingINtB2_17CollectingVisitorNtNtCs5bkkNO3hTYU_5alloc6string6StringNCNvNtB2_5testss_42collecting_visitor_collects_property_names0E3newB8_
FN:67,_RNvMNtNtNtCs6qJP7SanZgw_10gql_parser3ast8visitors10collectingINtB2_17CollectingVisitorNtNtCs5bkkNO3hTYU_5alloc6string6StringNCNvNtB2_5testss_42collecting_visitor_collects_property_names0E5itemsB8_
FN:104,_RNvXs_NtNtNtCs6qJP7SanZgw_10gql_parser3ast8visitors10collectingINtB4_17CollectingVisitorNtNtCs5bkkNO3hTYU_5alloc6string6StringNCNvNtB4_5testss_42collecting_visitor_collects_property_names0ENtNtB8_7visitor10AstVisitor11visit_queryBa_
FN:89,_RNvXs_NtNtNtCs6qJP7SanZgw_10gql_parser3ast8visitors10collectingINtB4_17CollectingVisitorNtNtCs5bkkNO3hTYU_5alloc6string6StringNCNvNtB4_5testss_42collecting_visitor_collects_property_names0ENtNtB8_7visitor10AstVisitor13visit_programBa_
FN:94,_RNvXs_NtNtNtCs6qJP7SanZgw_10gql_parser3ast8visitors10collectingINtB4_17CollectingVisitorNtNtCs5bkkNO3hTYU_5alloc6string6StringNCNvNtB4_5testss_42collecting_visitor_collects_property_names0ENtNtB8_7visitor10AstVisitor15visit_statementBa_
FN:201,_RNvXs_NtNtNtCs6qJP7SanZgw_10gql_parser3ast8visitors10collectingINtB4_17CollectingVisitorNtNtCs5bkkNO3hTYU_5alloc6string6StringNCNvNtB4_5testss_42collecting_visitor_collects_property_names0ENtNtB8_7visitor10AstVisitor16visit_expressionBa_
FN:173,_RNvXs_NtNtNtCs6qJP7SanZgw_10gql_parser3ast8visitors10collectingINtB4_17CollectingVisitorNtNtCs5bkkNO3hTYU_5alloc6string6StringNCNvNtB4_5testss_42collecting_visitor_collects_property_names0ENtNtB8_7visitor10AstVisitor17visit_let_bindingBa_
FN:196,_RNvXs_NtNtNtCs6qJP7SanZgw_10gql_parser3ast8visitors10collectingINtB4_17CollectingVisitorNtNtCs5bkkNO3hTYU_5alloc6string6StringNCNvNtB4_5testss_42collecting_visitor_collects_property_names0ENtNtB8_7visitor10AstVisitor17visit_return_itemBa_
FN:150,_RNvXs_NtNtNtCs6qJP7SanZgw_10gql_parser3ast8visitors10collectingINtB4_17CollectingVisitorNtNtCs5bkkNO3hTYU_5alloc6string6StringNCNvNtB4_5testss_42collecting_visitor_collects_property_names0ENtNtB8_7visitor10AstVisitor18visit_edge_patternBa_
FN:145,_RNvXs_NtNtNtCs6qJP7SanZgw_10gql_parser3ast8visitors10collectingINtB4_17CollectingVisitorNtNtCs5bkkNO3hTYU_5alloc6string6StringNCNvNtB4_5testss_42collecting_visitor_collects_property_names0ENtNtB8_7visitor10AstVisitor18visit_node_patternBa_
FN:135,_RNvXs_NtNtNtCs6qJP7SanZgw_10gql_parser3ast8visitors10collectingINtB4_17CollectingVisitorNtNtCs5bkkNO3hTYU_5alloc6string6StringNCNvNtB4_5testss_42collecting_visitor_collects_property_names0ENtNtB8_7visitor10AstVisitor18visit_path_patternBa_
FN:181,_RNvXs_NtNtNtCs6qJP7SanZgw_10gql_parser3ast8visitors10collectingINtB4_17CollectingVisitorNtNtCs5bkkNO3hTYU_5alloc6string6StringNCNvNtB4_5testss_42collecting_visitor_collects_property_names0ENtNtB8_7visitor10AstVisitor19visit_for_statementBa_
FN:130,_RNvXs_NtNtNtCs6qJP7SanZgw_10gql_parser3ast8visitors10collectingINtB4_17CollectingVisitorNtNtCs5bkkNO3hTYU_5alloc6string6StringNCNvNtB4_5testss_42collecting_visitor_collects_property_names0ENtNtB8_7visitor10AstVisitor19visit_graph_patternBa_
FN:168,_RNvXs_NtNtNtCs6qJP7SanZgw_10gql_parser3ast8visitors10collectingINtB4_17CollectingVisitorNtNtCs5bkkNO3hTYU_5alloc6string6StringNCNvNtB4_5testss_42collecting_visitor_collects_property_names0ENtNtB8_7visitor10AstVisitor19visit_let_statementBa_
FN:140,_RNvXs_NtNtNtCs6qJP7SanZgw_10gql_parser3ast8visitors10collectingINtB4_17CollectingVisitorNtNtCs5bkkNO3hTYU_5alloc6string6StringNCNvNtB4_5testss_42collecting_visitor_collects_property_names0ENtNtB8_7visitor10AstVisitor21visit_element_patternBa_
FN:125,_RNvXs_NtNtNtCs6qJP7SanZgw_10gql_parser3ast8visitors10collectingINtB4_17CollectingVisitorNtNtCs5bkkNO3hTYU_5alloc6string6StringNCNvNtB4_5testss_42collecting_visitor_collects_property_names0ENtNtB8_7visitor10AstVisitor21visit_match_statementBa_
FN:99,_RNvXs_NtNtNtCs6qJP7SanZgw_10gql_parser3ast8visitors10collectingINtB4_17CollectingVisitorNtNtCs5bkkNO3hTYU_5alloc6string6StringNCNvNtB4_5testss_42collecting_visitor_collects_property_names0ENtNtB8_7visitor10AstVisitor21visit_query_statementBa_
FN:163,_RNvXs_NtNtNtCs6qJP7SanZgw_10gql_parser3ast8visitors10collectingINtB4_17CollectingVisitorNtNtCs5bkkNO3hTYU_5alloc6string6StringNCNvNtB4_5testss_42collecting_visitor_collects_property_names0ENtNtB8_7visitor10AstVisitor22visit_filter_statementBa_
FN:155,_RNvXs_NtNtNtCs6qJP7SanZgw_10gql_parser3ast8visitors10collectingINtB4_17CollectingVisitorNtNtCs5bkkNO3hTYU_5alloc6string6StringNCNvNtB4_5testss_42collecting_visitor_collects_property_names0ENtNtB8_7visitor10AstVisitor22visit_label_expressionBa_
FN:191,_RNvXs_NtNtNtCs6qJP7SanZgw_10gql_parser3ast8visitors10collectingINtB4_17CollectingVisitorNtNtCs5bkkNO3hTYU_5alloc6string6StringNCNvNtB4_5testss_42collecting_visitor_collects_property_names0ENtNtB8_7visitor10AstVisitor22visit_return_statementBa_
FN:186,_RNvXs_NtNtNtCs6qJP7SanZgw_10gql_parser3ast8visitors10collectingINtB4_17CollectingVisitorNtNtCs5bkkNO3hTYU_5alloc6string6StringNCNvNtB4_5testss_42collecting_visitor_collects_property_names0ENtNtB8_7visitor10AstVisitor22visit_select_statementBa_
FN:109,_RNvXs_NtNtNtCs6qJP7SanZgw_10gql_parser3ast8visitors10collectingINtB4_17CollectingVisitorNtNtCs5bkkNO3hTYU_5alloc6string6StringNCNvNtB4_5testss_42collecting_visitor_collects_property_names0ENtNtB8_7visitor10AstVisitor31visit_primitive_query_statementBa_
FN:117,_RNvXs_NtNtNtCs6qJP7SanZgw_10gql_parser3ast8visitors10collectingINtB4_17CollectingVisitorNtNtCs5bkkNO3hTYU_5alloc6string6StringNCNvNtB4_5testss_42collecting_visitor_collects_property_names0ENtNtB8_7visitor10AstVisitor32visit_primitive_result_statementBa_
FN:214,_RNvNtNtNtNtCs6qJP7SanZgw_10gql_parser3ast8visitors10collecting5testss_42collecting_visitor_collects_property_names
FNDA:6,_RNCNvNtNtNtNtCs6qJP7SanZgw_10gql_parser3ast8visitors10collecting5testss_42collecting_visitor_collects_property_names0Bb_
FNDA:0,_RNvMNtNtNtCs6qJP7SanZgw_10gql_parser3ast8visitors10collectingINtB2_17CollectingVisitorppE10into_itemsB8_
FNDA:20,_RNvMNtNtNtCs6qJP7SanZgw_10gql_parser3ast8visitors10collectingINtB2_17CollectingVisitorNtNtCs5bkkNO3hTYU_5alloc6string6StringNCNvNtB2_5testss_42collecting_visitor_collects_property_names0E13maybe_collectB8_
FNDA:1,_RNvMNtNtNtCs6qJP7SanZgw_10gql_parser3ast8visitors10collectingINtB2_17CollectingVisitorNtNtCs5bkkNO3hTYU_5alloc6string6StringNCNvNtB2_5testss_42collecting_visitor_collects_property_names0E3newB8_
FNDA:1,_RNvMNtNtNtCs6qJP7SanZgw_10gql_parser3ast8visitors10collectingINtB2_17CollectingVisitorNtNtCs5bkkNO3hTYU_5alloc6string6StringNCNvNtB2_5testss_42collecting_visitor_collects_property_names0E5itemsB8_
FNDA:1,_RNvXs_NtNtNtCs6qJP7SanZgw_10gql_parser3ast8visitors10collectingINtB4_17CollectingVisitorNtNtCs5bkkNO3hTYU_5alloc6string6StringNCNvNtB4_5testss_42collecting_visitor_collects_property_names0ENtNtB8_7visitor10AstVisitor11visit_queryBa_
FNDA:1,_RNvXs_NtNtNtCs6qJP7SanZgw_10gql_parser3ast8visitors10collectingINtB4_17CollectingVisitorNtNtCs5bkkNO3hTYU_5alloc6string6StringNCNvNtB4_5testss_42collecting_visitor_collects_property_names0ENtNtB8_7visitor10AstVisitor13visit_programBa_
FNDA:1,_RNvXs_NtNtNtCs6qJP7SanZgw_10gql_parser3ast8visitors10collectingINtB4_17CollectingVisitorNtNtCs5bkkNO3hTYU_5alloc6string6StringNCNvNtB4_5testss_42collecting_visitor_collects_property_names0ENtNtB8_7visitor10AstVisitor15visit_statementBa_
FNDA:6,_RNvXs_NtNtNtCs6qJP7SanZgw_10gql_parser3ast8visitors10collectingINtB4_17CollectingVisitorNtNtCs5bkkNO3hTYU_5alloc6string6StringNCNvNtB4_5testss_42collecting_visitor_collects_property_names0ENtNtB8_7visitor10AstVisitor16visit_expressionBa_
FNDA:0,_RNvXs_NtNtNtCs6qJP7SanZgw_10gql_parser3ast8visitors10collectingINtB4_17CollectingVisitorNtNtCs5bkkNO3hTYU_5alloc6string6StringNCNvNtB4_5testss_42collecting_visitor_collects_property_names0ENtNtB8_7visitor10AstVisitor17visit_let_bindingBa_
FNDA:1,_RNvXs_NtNtNtCs6qJP7SanZgw_10gql_parser3ast8visitors10collectingINtB4_17CollectingVisitorNtNtCs5bkkNO3hTYU_5alloc6string6StringNCNvNtB4_5testss_42collecting_visitor_collects_property_names0ENtNtB8_7visitor10AstVisitor17visit_return_itemBa_
FNDA:0,_RNvXs_NtNtNtCs6qJP7SanZgw_10gql_parser3ast8visitors10collectingINtB4_17CollectingVisitorNtNtCs5bkkNO3hTYU_5alloc6string6StringNCNvNtB4_5testss_42collecting_visitor_collects_property_names0ENtNtB8_7visitor10AstVisitor18visit_edge_patternBa_
FNDA:1,_RNvXs_NtNtNtCs6qJP7SanZgw_10gql_parser3ast8visitors10collectingINtB4_17CollectingVisitorNtNtCs5bkkNO3hTYU_5alloc6string6StringNCNvNtB4_5testss_42collecting_visitor_collects_property_names0ENtNtB8_7visitor10AstVisitor18visit_node_patternBa_
FNDA:1,_RNvXs_NtNtNtCs6qJP7SanZgw_10gql_parser3ast8visitors10collectingINtB4_17CollectingVisitorNtNtCs5bkkNO3hTYU_5alloc6string6StringNCNvNtB4_5testss_42collecting_visitor_collects_property_names0ENtNtB8_7visitor10AstVisitor18visit_path_patternBa_
FNDA:0,_RNvXs_NtNtNtCs6qJP7SanZgw_10gql_parser3ast8visitors10collectingINtB4_17CollectingVisitorNtNtCs5bkkNO3hTYU_5alloc6string6StringNCNvNtB4_5testss_42collecting_visitor_collects_property_names0ENtNtB8_7visitor10AstVisitor19visit_for_statementBa_
FNDA:1,_RNvXs_NtNtNtCs6qJP7SanZgw_10gql_parser3ast8visitors10collectingINtB4_17CollectingVisitorNtNtCs5bkkNO3hTYU_5alloc6string6StringNCNvNtB4_5testss_42collecting_visitor_collects_property_names0ENtNtB8_7visitor10AstVisitor19visit_graph_patternBa_
FNDA:0,_RNvXs_NtNtNtCs6qJP7SanZgw_10gql_parser3ast8visitors10collectingINtB4_17CollectingVisitorNtNtCs5bkkNO3hTYU_5alloc6string6StringNCNvNtB4_5testss_42collecting_visitor_collects_property_names0ENtNtB8_7visitor10AstVisitor19visit_let_statementBa_
FNDA:1,_RNvXs_NtNtNtCs6qJP7SanZgw_10gql_parser3ast8visitors10collectingINtB4_17CollectingVisitorNtNtCs5bkkNO3hTYU_5alloc6string6StringNCNvNtB4_5testss_42collecting_visitor_collects_property_names0ENtNtB8_7visitor10AstVisitor21visit_element_patternBa_
FNDA:1,_RNvXs_NtNtNtCs6qJP7SanZgw_10gql_parser3ast8visitors10collectingINtB4_17CollectingVisitorNtNtCs5bkkNO3hTYU_5alloc6string6StringNCNvNtB4_5testss_42collecting_visitor_collects_property_names0ENtNtB8_7visitor10AstVisitor21visit_match_statementBa_
FNDA:1,_RNvXs_NtNtNtCs6qJP7SanZgw_10gql_parser3ast8visitors10collectingINtB4_17CollectingVisitorNtNtCs5bkkNO3hTYU_5alloc6string6StringNCNvNtB4_5testss_42collecting_visitor_collects_property_names0ENtNtB8_7visitor10AstVisitor21visit_query_statementBa_
FNDA:0,_RNvXs_NtNtNtCs6qJP7SanZgw_10gql_parser3ast8visitors10collectingINtB4_17CollectingVisitorNtNtCs5bkkNO3hTYU_5alloc6string6StringNCNvNtB4_5testss_42collecting_visitor_collects_property_names0ENtNtB8_7visitor10AstVisitor22visit_filter_statementBa_
FNDA:1,_RNvXs_NtNtNtCs6qJP7SanZgw_10gql_parser3ast8visitors10collectingINtB4_17CollectingVisitorNtNtCs5bkkNO3hTYU_5alloc6string6StringNCNvNtB4_5testss_42collecting_visitor_collects_property_names0ENtNtB8_7visitor10AstVisitor22visit_label_expressionBa_
FNDA:1,_RNvXs_NtNtNtCs6qJP7SanZgw_10gql_parser3ast8visitors10collectingINtB4_17CollectingVisitorNtNtCs5bkkNO3hTYU_5alloc6string6StringNCNvNtB4_5testss_42collecting_visitor_collects_property_names0ENtNtB8_7visitor10AstVisitor22visit_return_statementBa_
FNDA:0,_RNvXs_NtNtNtCs6qJP7SanZgw_10gql_parser3ast8visitors10collectingINtB4_17CollectingVisitorNtNtCs5bkkNO3hTYU_5alloc6string6StringNCNvNtB4_5testss_42collecting_visitor_collects_property_names0ENtNtB8_7visitor10AstVisitor22visit_select_statementBa_
FNDA:1,_RNvXs_NtNtNtCs6qJP7SanZgw_10gql_parser3ast8visitors10collectingINtB4_17CollectingVisitorNtNtCs5bkkNO3hTYU_5alloc6string6StringNCNvNtB4_5testss_42collecting_visitor_collects_property_names0ENtNtB8_7visitor10AstVisitor31visit_primitive_query_statementBa_
FNDA:1,_RNvXs_NtNtNtCs6qJP7SanZgw_10gql_parser3ast8visitors10collectingINtB4_17CollectingVisitorNtNtCs5bkkNO3hTYU_5alloc6string6StringNCNvNtB4_5testss_42collecting_visitor_collects_property_names0ENtNtB8_7visitor10AstVisitor32visit_primitive_result_statementBa_
FNDA:1,_RNvNtNtNtNtCs6qJP7SanZgw_10gql_parser3ast8visitors10collecting5testss_42collecting_visitor_collects_property_names
FNF:27
FNH:20
DA:59,1
DA:60,1
DA:61,1
DA:62,1
DA:63,1
DA:64,1
DA:67,1
DA:68,1
DA:69,1
DA:72,0
DA:73,0
DA:74,0
DA:76,20
DA:77,20
DA:78,2
DA:79,18
DA:80,20
DA:89,1
DA:90,1
DA:91,1
DA:92,1
DA:94,1
DA:95,1
DA:96,1
DA:97,1
DA:99,1
DA:100,1
DA:101,1
DA:102,1
DA:104,1
DA:105,1
DA:106,1
DA:107,1
DA:109,1
DA:110,1
DA:111,1
DA:112,1
DA:113,1
DA:114,1
DA:115,1
DA:117,1
DA:118,1
DA:119,1
DA:120,1
DA:121,1
DA:122,1
DA:123,1
DA:125,1
DA:126,1
DA:127,1
DA:128,1
DA:130,1
DA:131,1
DA:132,1
DA:133,1
DA:135,1
DA:136,1
DA:137,1
DA:138,1
DA:140,1
DA:141,1
DA:142,1
DA:143,1
DA:145,1
DA:146,1
DA:147,1
DA:148,1
DA:150,0
DA:151,0
DA:152,0
DA:153,0
DA:155,1
DA:156,1
DA:157,1
DA:158,1
DA:159,1
DA:160,1
DA:161,1
DA:163,0
DA:164,0
DA:165,0
DA:166,0
DA:168,0
DA:169,0
DA:170,0
DA:171,0
DA:173,0
DA:174,0
DA:175,0
DA:176,0
DA:177,0
DA:178,0
DA:179,0
DA:181,0
DA:182,0
DA:183,0
DA:184,0
DA:186,0
DA:187,0
DA:188,0
DA:189,0
DA:191,1
DA:192,1
DA:193,1
DA:194,1
DA:196,1
DA:197,1
DA:198,1
DA:199,1
DA:201,6
DA:202,6
DA:203,6
DA:204,6
DA:214,1
DA:215,1
DA:216,1
DA:218,6
DA:219,2
DA:220,2
DA:222,18
DA:223,20
DA:225,1
DA:226,1
DA:227,1
DA:228,1
BRF:0
BRH:0
LF:126
LH:96
end_of_record
SF:/Users/d072013/SAPDevelop/gql_parser/src/ast/visitors/span.rs
FN:54,_RNvMNtNtNtCs6qJP7SanZgw_10gql_parser3ast8visitors4spanNtB2_13SpanCollector10into_spans
FN:42,_RNvMNtNtNtCs6qJP7SanZgw_10gql_parser3ast8visitors4spanNtB2_13SpanCollector18collect_expression
FN:49,_RNvMNtNtNtCs6qJP7SanZgw_10gql_parser3ast8visitors4spanNtB2_13SpanCollector5spans
FN:35,_RNvMNtNtNtCs6qJP7SanZgw_10gql_parser3ast8visitors4spanNtB2_13SpanCollector15collect_program
FN:30,_RNvMNtNtNtCs6qJP7SanZgw_10gql_parser3ast8visitors4spanNtB2_13SpanCollector3new
FN:58,_RNvMNtNtNtCs6qJP7SanZgw_10gql_parser3ast8visitors4spanNtB2_13SpanCollector9push_span
FN:89,_RNvXs_NtNtNtCs6qJP7SanZgw_10gql_parser3ast8visitors4spanNtB4_13SpanCollectorNtNtB8_7visitor10AstVisitor11visit_query
FN:66,_RNvXs_NtNtNtCs6qJP7SanZgw_10gql_parser3ast8visitors4spanNtB4_13SpanCollectorNtNtB8_7visitor10AstVisitor13visit_program
FN:71,_RNvXs_NtNtNtCs6qJP7SanZgw_10gql_parser3ast8visitors4spanNtB4_13SpanCollectorNtNtB8_7visitor10AstVisitor15visit_statement
FN:195,_RNvXs_NtNtNtCs6qJP7SanZgw_10gql_parser3ast8visitors4spanNtB4_13SpanCollectorNtNtB8_7visitor10AstVisitor16visit_expression
FN:167,_RNvXs_NtNtNtCs6qJP7SanZgw_10gql_parser3ast8visitors4spanNtB4_13SpanCollectorNtNtB8_7visitor10AstVisitor17visit_let_binding
FN:190,_RNvXs_NtNtNtCs6qJP7SanZgw_10gql_parser3ast8visitors4spanNtB4_13SpanCollectorNtNtB8_7visitor10AstVisitor17visit_return_item
FN:140,_RNvXs_NtNtNtCs6qJP7SanZgw_10gql_parser3ast8visitors4spanNtB4_13SpanCollectorNtNtB8_7visitor10AstVisitor18visit_edge_pattern
FN:135,_RNvXs_NtNtNtCs6qJP7SanZgw_10gql_parser3ast8visitors4spanNtB4_13SpanCollectorNtNtB8_7visitor10AstVisitor18visit_node_pattern
FN:120,_RNvXs_NtNtNtCs6qJP7SanZgw_10gql_parser3ast8visitors4spanNtB4_13SpanCollectorNtNtB8_7visitor10AstVisitor18visit_path_pattern
FN:175,_RNvXs_NtNtNtCs6qJP7SanZgw_10gql_parser3ast8visitors4spanNtB4_13SpanCollectorNtNtB8_7visitor10AstVisitor19visit_for_statement
FN:115,_RNvXs_NtNtNtCs6qJP7SanZgw_10gql_parser3ast8visitors4spanNtB4_13SpanCollectorNtNtB8_7visitor10AstVisitor19visit_graph_pattern
FN:162,_RNvXs_NtNtNtCs6qJP7SanZgw_10gql_parser3ast8visitors4spanNtB4_13SpanCollectorNtNtB8_7visitor10AstVisitor19visit_let_statement
FN:125,_RNvXs_NtNtNtCs6qJP7SanZgw_10gql_parser3ast8visitors4spanNtB4_13SpanCollectorNtNtB8_7visitor10AstVisitor21visit_element_pattern
FN:110,_RNvXs_NtNtNtCs6qJP7SanZgw_10gql_parser3ast8visitors4spanNtB4_13SpanCollectorNtNtB8_7visitor10AstVisitor21visit_match_statement
FN:84,_RNvXs_NtNtNtCs6qJP7SanZgw_10gql_parser3ast8visitors4spanNtB4_13SpanCollectorNtNtB8_7visitor10AstVisitor21visit_query_statement
FN:157,_RNvXs_NtNtNtCs6qJP7SanZgw_10gql_parser3ast8visitors4spanNtB4_13SpanCollectorNtNtB8_7visitor10AstVisitor22visit_filter_statement
FN:149,_RNvXs_NtNtNtCs6qJP7SanZgw_10gql_parser3ast8visitors4spanNtB4_13SpanCollectorNtNtB8_7visitor10AstVisitor22visit_label_expression
FN:185,_RNvXs_NtNtNtCs6qJP7SanZgw_10gql_parser3ast8visitors4spanNtB4_13SpanCollectorNtNtB8_7visitor10AstVisitor22visit_return_statement
FN:180,_RNvXs_NtNtNtCs6qJP7SanZgw_10gql_parser3ast8visitors4spanNtB4_13SpanCollectorNtNtB8_7visitor10AstVisitor22visit_select_statement
FN:94,_RNvXs_NtNtNtCs6qJP7SanZgw_10gql_parser3ast8visitors4spanNtB4_13SpanCollectorNtNtB8_7visitor10AstVisitor31visit_primitive_query_statement
FN:102,_RNvXs_NtNtNtCs6qJP7SanZgw_10gql_parser3ast8visitors4spanNtB4_13SpanCollectorNtNtB8_7visitor10AstVisitor32visit_primitive_result_statement
FN:207,_RNvNtNtNtNtCs6qJP7SanZgw_10gql_parser3ast8visitors4span5testss_36span_collector_collects_nested_spans
FN:54,_RNvMNtNtNtCs87GxMFlPkU4_10gql_parser3ast8visitors4spanNtB2_13SpanCollector10into_spans
FN:35,_RNvMNtNtNtCs87GxMFlPkU4_10gql_parser3ast8visitors4spanNtB2_13SpanCollector15collect_program
FN:42,_RNvMNtNtNtCs87GxMFlPkU4_10gql_parser3ast8visitors4spanNtB2_13SpanCollector18collect_expression
FN:30,_RNvMNtNtNtCs87GxMFlPkU4_10gql_parser3ast8visitors4spanNtB2_13SpanCollector3new
FN:49,_RNvMNtNtNtCs87GxMFlPkU4_10gql_parser3ast8visitors4spanNtB2_13SpanCollector5spans
FN:58,_RNvMNtNtNtCs87GxMFlPkU4_10gql_parser3ast8visitors4spanNtB2_13SpanCollector9push_span
FN:89,_RNvXs_NtNtNtCs87GxMFlPkU4_10gql_parser3ast8visitors4spanNtB4_13SpanCollectorNtNtB8_7visitor10AstVisitor11visit_query
FN:66,_RNvXs_NtNtNtCs87GxMFlPkU4_10gql_parser3ast8visitors4spanNtB4_13SpanCollectorNtNtB8_7visitor10AstVisitor13visit_program
FN:71,_RNvXs_NtNtNtCs87GxMFlPkU4_10gql_parser3ast8visitors4spanNtB4_13SpanCollectorNtNtB8_7visitor10AstVisitor15visit_statement
FN:195,_RNvXs_NtNtNtCs87GxMFlPkU4_10gql_parser3ast8visitors4spanNtB4_13SpanCollectorNtNtB8_7visitor10AstVisitor16visit_expression
FN:167,_RNvXs_NtNtNtCs87GxMFlPkU4_10gql_parser3ast8visitors4spanNtB4_13SpanCollectorNtNtB8_7visitor10AstVisitor17visit_let_binding
FN:190,_RNvXs_NtNtNtCs87GxMFlPkU4_10gql_parser3ast8visitors4spanNtB4_13SpanCollectorNtNtB8_7visitor10AstVisitor17visit_return_item
FN:140,_RNvXs_NtNtNtCs87GxMFlPkU4_10gql_parser3ast8visitors4spanNtB4_13SpanCollectorNtNtB8_7visitor10AstVisitor18visit_edge_pattern
FN:135,_RNvXs_NtNtNtCs87GxMFlPkU4_10gql_parser3ast8visitors4spanNtB4_13SpanCollectorNtNtB8_7visitor10AstVisitor18visit_node_pattern
FN:120,_RNvXs_NtNtNtCs87GxMFlPkU4_10gql_parser3ast8visitors4spanNtB4_13SpanCollectorNtNtB8_7visitor10AstVisitor18visit_path_pattern
FN:175,_RNvXs_NtNtNtCs87GxMFlPkU4_10gql_parser3ast8visitors4spanNtB4_13SpanCollectorNtNtB8_7visitor10AstVisitor19visit_for_statement
FN:115,_RNvXs_NtNtNtCs87GxMFlPkU4_10gql_parser3ast8visitors4spanNtB4_13SpanCollectorNtNtB8_7visitor10AstVisitor19visit_graph_pattern
FN:162,_RNvXs_NtNtNtCs87GxMFlPkU4_10gql_parser3ast8visitors4spanNtB4_13SpanCollectorNtNtB8_7visitor10AstVisitor19visit_let_statement
FN:125,_RNvXs_NtNtNtCs87GxMFlPkU4_10gql_parser3ast8visitors4spanNtB4_13SpanCollectorNtNtB8_7visitor10AstVisitor21visit_element_pattern
FN:110,_RNvXs_NtNtNtCs87GxMFlPkU4_10gql_parser3ast8visitors4spanNtB4_13SpanCollectorNtNtB8_7visitor10AstVisitor21visit_match_statement
FN:84,_RNvXs_NtNtNtCs87GxMFlPkU4_10gql_parser3ast8visitors4spanNtB4_13SpanCollectorNtNtB8_7visitor10AstVisitor21visit_query_statement
FN:157,_RNvXs_NtNtNtCs87GxMFlPkU4_10gql_parser3ast8visitors4spanNtB4_13SpanCollectorNtNtB8_7visitor10AstVisitor22visit_filter_statement
FN:149,_RNvXs_NtNtNtCs87GxMFlPkU4_10gql_parser3ast8visitors4spanNtB4_13SpanCollectorNtNtB8_7visitor10AstVisitor22visit_label_expression
FN:185,_RNvXs_NtNtNtCs87GxMFlPkU4_10gql_parser3ast8visitors4spanNtB4_13SpanCollectorNtNtB8_7visitor10AstVisitor22visit_return_statement
FN:180,_RNvXs_NtNtNtCs87GxMFlPkU4_10gql_parser3ast8visitors4spanNtB4_13SpanCollectorNtNtB8_7visitor10AstVisitor22visit_select_statement
FN:94,_RNvXs_NtNtNtCs87GxMFlPkU4_10gql_parser3ast8visitors4spanNtB4_13SpanCollectorNtNtB8_7visitor10AstVisitor31visit_primitive_query_statement
FN:102,_RNvXs_NtNtNtCs87GxMFlPkU4_10gql_parser3ast8visitors4spanNtB4_13SpanCollectorNtNtB8_7visitor10AstVisitor32visit_primitive_result_statement
FNDA:0,_RNvMNtNtNtCs6qJP7SanZgw_10gql_parser3ast8visitors4spanNtB2_13SpanCollector10into_spans
FNDA:0,_RNvMNtNtNtCs6qJP7SanZgw_10gql_parser3ast8visitors4spanNtB2_13SpanCollector18collect_expression
FNDA:0,_RNvMNtNtNtCs6qJP7SanZgw_10gql_parser3ast8visitors4spanNtB2_13SpanCollector5spans
FNDA:1,_RNvMNtNtNtCs6qJP7SanZgw_10gql_parser3ast8visitors4spanNtB2_13SpanCollector15collect_program
FNDA:1,_RNvMNtNtNtCs6qJP7SanZgw_10gql_parser3ast8visitors4spanNtB2_13SpanCollector3new
FNDA:21,_RNvMNtNtNtCs6qJP7SanZgw_10gql_parser3ast8visitors4spanNtB2_13SpanCollector9push_span
FNDA:1,_RNvXs_NtNtNtCs6qJP7SanZgw_10gql_parser3ast8visitors4spanNtB4_13SpanCollectorNtNtB8_7visitor10AstVisitor11visit_query
FNDA:1,_RNvXs_NtNtNtCs6qJP7SanZgw_10gql_parser3ast8visitors4spanNtB4_13SpanCollectorNtNtB8_7visitor10AstVisitor13visit_program
FNDA:1,_RNvXs_NtNtNtCs6qJP7SanZgw_10gql_parser3ast8visitors4spanNtB4_13SpanCollectorNtNtB8_7visitor10AstVisitor15visit_statement
FNDA:7,_RNvXs_NtNtNtCs6qJP7SanZgw_10gql_parser3ast8visitors4spanNtB4_13SpanCollectorNtNtB8_7visitor10AstVisitor16visit_expression
FNDA:0,_RNvXs_NtNtNtCs6qJP7SanZgw_10gql_parser3ast8visitors4spanNtB4_13SpanCollectorNtNtB8_7visitor10AstVisitor17visit_let_binding
FNDA:1,_RNvXs_NtNtNtCs6qJP7SanZgw_10gql_parser3ast8visitors4spanNtB4_13SpanCollectorNtNtB8_7visitor10AstVisitor17visit_return_item
FNDA:0,_RNvXs_NtNtNtCs6qJP7SanZgw_10gql_parser3ast8visitors4spanNtB4_13SpanCollectorNtNtB8_7visitor10AstVisitor18visit_edge_pattern
FNDA:1,_RNvXs_NtNtNtCs6qJP7SanZgw_10gql_parser3ast8visitors4spanNtB4_13SpanCollectorNtNtB8_7visitor10AstVisitor18visit_node_pattern
FNDA:1,_RNvXs_NtNtNtCs6qJP7SanZgw_10gql_parser3ast8visitors4spanNtB4_13SpanCollectorNtNtB8_7visitor10AstVisitor18visit_path_pattern
FNDA:0,_RNvXs_NtNtNtCs6qJP7SanZgw_10gql_parser3ast8visitors4spanNtB4_13SpanCollectorNtNtB8_7visitor10AstVisitor19visit_for_statement
FNDA:1,_RNvXs_NtNtNtCs6qJP7SanZgw_10gql_parser3ast8visitors4spanNtB4_13SpanCollectorNtNtB8_7visitor10AstVisitor19visit_graph_pattern
FNDA:0,_RNvXs_NtNtNtCs6qJP7SanZgw_10gql_parser3ast8visitors4spanNtB4_13SpanCollectorNtNtB8_7visitor10AstVisitor19visit_let_statement
FNDA:1,_RNvXs_NtNtNtCs6qJP7SanZgw_10gql_parser3ast8visitors4spanNtB4_13SpanCollectorNtNtB8_7visitor10AstVisitor21visit_element_pattern
FNDA:1,_RNvXs_NtNtNtCs6qJP7SanZgw_10gql_parser3ast8visitors4spanNtB4_13SpanCollectorNtNtB8_7visitor10AstVisitor21visit_match_statement
FNDA:1,_RNvXs_NtNtNtCs6qJP7SanZgw_10gql_parser3ast8visitors4spanNtB4_13SpanCollectorNtNtB8_7visitor10AstVisitor21visit_query_statement
FNDA:0,_RNvXs_NtNtNtCs6qJP7SanZgw_10gql_parser3ast8visitors4spanNtB4_13SpanCollectorNtNtB8_7visitor10AstVisitor22visit_filter_statement
FNDA:1,_RNvXs_NtNtNtCs6qJP7SanZgw_10gql_parser3ast8visitors4spanNtB4_13SpanCollectorNtNtB8_7visitor10AstVisitor22visit_label_expression
FNDA:1,_RNvXs_NtNtNtCs6qJP7SanZgw_10gql_parser3ast8visitors4spanNtB4_13SpanCollectorNtNtB8_7visitor10AstVisitor22visit_return_statement
FNDA:0,_RNvXs_NtNtNtCs6qJP7SanZgw_10gql_parser3ast8visitors4spanNtB4_13SpanCollectorNtNtB8_7visitor10AstVisitor22visit_select_statement
FNDA:1,_RNvXs_NtNtNtCs6qJP7SanZgw_10gql_parser3ast8visitors4spanNtB4_13SpanCollectorNtNtB8_7visitor10AstVisitor31visit_primitive_query_statement
FNDA:1,_RNvXs_NtNtNtCs6qJP7SanZgw_10gql_parser3ast8visitors4spanNtB4_13SpanCollectorNtNtB8_7visitor10AstVisitor32visit_primitive_result_statement
FNDA:1,_RNvNtNtNtNtCs6qJP7SanZgw_10gql_parser3ast8visitors4span5testss_36span_collector_collects_nested_spans
FNDA:0,_RNvMNtNtNtCs87GxMFlPkU4_10gql_parser3ast8visitors4spanNtB2_13SpanCollector10into_spans
FNDA:0,_RNvMNtNtNtCs87GxMFlPkU4_10gql_parser3ast8visitors4spanNtB2_13SpanCollector15collect_program
FNDA:0,_RNvMNtNtNtCs87GxMFlPkU4_10gql_parser3ast8visitors4spanNtB2_13SpanCollector18collect_expression
FNDA:0,_RNvMNtNtNtCs87GxMFlPkU4_10gql_parser3ast8visitors4spanNtB2_13SpanCollector3new
FNDA:0,_RNvMNtNtNtCs87GxMFlPkU4_10gql_parser3ast8visitors4spanNtB2_13SpanCollector5spans
FNDA:0,_RNvMNtNtNtCs87GxMFlPkU4_10gql_parser3ast8visitors4spanNtB2_13SpanCollector9push_span
FNDA:0,_RNvXs_NtNtNtCs87GxMFlPkU4_10gql_parser3ast8visitors4spanNtB4_13SpanCollectorNtNtB8_7visitor10AstVisitor11visit_query
FNDA:0,_RNvXs_NtNtNtCs87GxMFlPkU4_10gql_parser3ast8visitors4spanNtB4_13SpanCollectorNtNtB8_7visitor10AstVisitor13visit_program
FNDA:0,_RNvXs_NtNtNtCs87GxMFlPkU4_10gql_parser3ast8visitors4spanNtB4_13SpanCollectorNtNtB8_7visitor10AstVisitor15visit_statement
FNDA:0,_RNvXs_NtNtNtCs87GxMFlPkU4_10gql_parser3ast8visitors4spanNtB4_13SpanCollectorNtNtB8_7visitor10AstVisitor16visit_expression
FNDA:0,_RNvXs_NtNtNtCs87GxMFlPkU4_10gql_parser3ast8visitors4spanNtB4_13SpanCollectorNtNtB8_7visitor10AstVisitor17visit_let_binding
FNDA:0,_RNvXs_NtNtNtCs87GxMFlPkU4_10gql_parser3ast8visitors4spanNtB4_13SpanCollectorNtNtB8_7visitor10AstVisitor17visit_return_item
FNDA:0,_RNvXs_NtNtNtCs87GxMFlPkU4_10gql_parser3ast8visitors4spanNtB4_13SpanCollectorNtNtB8_7visitor10AstVisitor18visit_edge_pattern
FNDA:0,_RNvXs_NtNtNtCs87GxMFlPkU4_10gql_parser3ast8visitors4spanNtB4_13SpanCollectorNtNtB8_7visitor10AstVisitor18visit_node_pattern
FNDA:0,_RNvXs_NtNtNtCs87GxMFlPkU4_10gql_parser3ast8visitors4spanNtB4_13SpanCollectorNtNtB8_7visitor10AstVisitor18visit_path_pattern
FNDA:0,_RNvXs_NtNtNtCs87GxMFlPkU4_10gql_parser3ast8visitors4spanNtB4_13SpanCollectorNtNtB8_7visitor10AstVisitor19visit_for_statement
FNDA:0,_RNvXs_NtNtNtCs87GxMFlPkU4_10gql_parser3ast8visitors4spanNtB4_13SpanCollectorNtNtB8_7visitor10AstVisitor19visit_graph_pattern
FNDA:0,_RNvXs_NtNtNtCs87GxMFlPkU4_10gql_parser3ast8visitors4spanNtB4_13SpanCollectorNtNtB8_7visitor10AstVisitor19visit_let_statement
FNDA:0,_RNvXs_NtNtNtCs87GxMFlPkU4_10gql_parser3ast8visitors4spanNtB4_13SpanCollectorNtNtB8_7visitor10AstVisitor21visit_element_pattern
FNDA:0,_RNvXs_NtNtNtCs87GxMFlPkU4_10gql_parser3ast8visitors4spanNtB4_13SpanCollectorNtNtB8_7visitor10AstVisitor21visit_match_statement
FNDA:0,_RNvXs_NtNtNtCs87GxMFlPkU4_10gql_parser3ast8visitors4spanNtB4_13SpanCollectorNtNtB8_7visitor10AstVisitor21visit_query_statement
FNDA:0,_RNvXs_NtNtNtCs87GxMFlPkU4_10gql_parser3ast8visitors4spanNtB4_13SpanCollectorNtNtB8_7visitor10AstVisitor22visit_filter_statement
FNDA:0,_RNvXs_NtNtNtCs87GxMFlPkU4_10gql_parser3ast8visitors4spanNtB4_13SpanCollectorNtNtB8_7visitor10AstVisitor22visit_label_expression
FNDA:0,_RNvXs_NtNtNtCs87GxMFlPkU4_10gql_parser3ast8visitors4spanNtB4_13SpanCollectorNtNtB8_7visitor10AstVisitor22visit_return_statement
FNDA:0,_RNvXs_NtNtNtCs87GxMFlPkU4_10gql_parser3ast8visitors4spanNtB4_13SpanCollectorNtNtB8_7visitor10AstVisitor22visit_select_statement
FNDA:0,_RNvXs_NtNtNtCs87GxMFlPkU4_10gql_parser3ast8visitors4spanNtB4_13SpanCollectorNtNtB8_7visitor10AstVisitor31visit_primitive_query_statement
FNDA:0,_RNvXs_NtNtNtCs87GxMFlPkU4_10gql_parser3ast8visitors4spanNtB4_13SpanCollectorNtNtB8_7visitor10AstVisitor32visit_primitive_result_statement
FNF:28
FNH:19
DA:30,1
DA:31,1
DA:32,1
DA:35,1
DA:36,1
DA:37,1
DA:38,1
DA:39,1
DA:42,0
DA:43,0
DA:44,0
DA:45,0
DA:46,0
DA:49,0
DA:50,0
DA:51,0
DA:54,0
DA:55,0
DA:56,0
DA:58,21
DA:59,21
DA:60,21
DA:66,1
DA:67,1
DA:68,1
DA:69,1
DA:71,1
DA:72,1
DA:73,1
DA:74,0
DA:75,0
DA:76,0
DA:77,0
DA:78,0
DA:80,1
DA:81,1
DA:82,1
DA:84,1
DA:85,1
DA:86,1
DA:87,1
DA:89,1
DA:90,1
DA:91,1
DA:92,1
DA:94,1
DA:95,1
DA:96,1
DA:97,1
DA:98,1
DA:99,1
DA:100,1
DA:102,1
DA:103,1
DA:104,1
DA:105,1
DA:106,1
DA:107,1
DA:108,1
DA:110,1
DA:111,1
DA:112,1
DA:113,1
DA:115,1
DA:116,1
DA:117,1
DA:118,1
DA:120,1
DA:121,1
DA:122,1
DA:123,1
DA:125,1
DA:126,1
DA:127,1
DA:128,0
DA:129,0
DA:131,1
DA:132,1
DA:133,1
DA:135,1
DA:136,1
DA:137,1
DA:138,1
DA:140,0
DA:141,0
DA:142,0
DA:143,0
DA:145,0
DA:146,0
DA:147,0
DA:149,1
DA:150,1
DA:151,1
DA:152,1
DA:153,1
DA:154,1
DA:155,1
DA:157,0
DA:158,0
DA:159,0
DA:160,0
DA:162,0
DA:163,0
DA:164,0
DA:165,0
DA:167,0
DA:168,0
DA:169,0
DA:170,0
DA:171,0
DA:172,0
DA:173,0
DA:175,0
DA:176,0
DA:177,0
DA:178,0
DA:180,0
DA:181,0
DA:182,0
DA:183,0
DA:185,1
DA:186,1
DA:187,1
DA:188,1
DA:190,1
DA:191,1
DA:192,1
DA:193,1
DA:195,7
DA:196,7
DA:197,7
DA:198,7
DA:207,1
DA:208,1
DA:209,1
DA:211,1
DA:213,1
DA:214,1
DA:215,1
BRF:0
BRH:0
LF:139
LH:91
end_of_record
SF:/Users/d072013/SAPDevelop/gql_parser/src/ast/visitors/variable.rs
FN:142,_RNvNtNtNtNtCs6qJP7SanZgw_10gql_parser3ast8visitors8variable5testss_45variable_collector_collects_query_definitions
FN:130,_RNvNtNtNtNtCs6qJP7SanZgw_10gql_parser3ast8visitors8variable5testss_49variable_collector_collects_expression_references
FN:39,_RNvMNtNtNtCs6qJP7SanZgw_10gql_parser3ast8visitors8variableNtB2_17VariableCollector10references
FN:44,_RNvMNtNtNtCs6qJP7SanZgw_10gql_parser3ast8visitors8variableNtB2_17VariableCollector11definitions
FN:27,_RNvMNtNtNtCs6qJP7SanZgw_10gql_parser3ast8visitors8variableNtB2_17VariableCollector3new
FN:53,_RNvMNtNtNtCs6qJP7SanZgw_10gql_parser3ast8visitors8variableNtB2_17VariableCollector6define
FN:57,_RNvMNtNtNtCs6qJP7SanZgw_10gql_parser3ast8visitors8variableNtB2_17VariableCollector9reference
FN:65,_RNvXs_NtNtNtCs6qJP7SanZgw_10gql_parser3ast8visitors8variableNtB4_17VariableCollectorNtNtB8_7visitor10AstVisitor16visit_expression
FN:73,_RNvXs_NtNtNtCs6qJP7SanZgw_10gql_parser3ast8visitors8variableNtB4_17VariableCollectorNtNtB8_7visitor10AstVisitor17visit_let_binding
FN:112,_RNvXs_NtNtNtCs6qJP7SanZgw_10gql_parser3ast8visitors8variableNtB4_17VariableCollectorNtNtB8_7visitor10AstVisitor18visit_edge_pattern
FN:104,_RNvXs_NtNtNtCs6qJP7SanZgw_10gql_parser3ast8visitors8variableNtB4_17VariableCollectorNtNtB8_7visitor10AstVisitor18visit_node_pattern
FN:96,_RNvXs_NtNtNtCs6qJP7SanZgw_10gql_parser3ast8visitors8variableNtB4_17VariableCollectorNtNtB8_7visitor10AstVisitor18visit_path_pattern
FN:81,_RNvXs_NtNtNtCs6qJP7SanZgw_10gql_parser3ast8visitors8variableNtB4_17VariableCollectorNtNtB8_7visitor10AstVisitor19visit_for_statement
FN:49,_RNvMNtNtNtCs6qJP7SanZgw_10gql_parser3ast8visitors8variableNtB2_17VariableCollector15into_references
FN:32,_RNvMNtNtNtCs6qJP7SanZgw_10gql_parser3ast8visitors8variableNtB2_17VariableCollector34collect_references_from_expression
FN:39,_RNvMNtNtNtCs87GxMFlPkU4_10gql_parser3ast8visitors8variableNtB2_17VariableCollector10references
FN:44,_RNvMNtNtNtCs87GxMFlPkU4_10gql_parser3ast8visitors8variableNtB2_17VariableCollector11definitions
FN:49,_RNvMNtNtNtCs87GxMFlPkU4_10gql_parser3ast8visitors8variableNtB2_17VariableCollector15into_references
FN:32,_RNvMNtNtNtCs87GxMFlPkU4_10gql_parser3ast8visitors8variableNtB2_17VariableCollector34collect_references_from_expression
FN:27,_RNvMNtNtNtCs87GxMFlPkU4_10gql_parser3ast8visitors8variableNtB2_17VariableCollector3new
FN:53,_RNvMNtNtNtCs87GxMFlPkU4_10gql_parser3ast8visitors8variableNtB2_17VariableCollector6define
FN:57,_RNvMNtNtNtCs87GxMFlPkU4_10gql_parser3ast8visitors8variableNtB2_17VariableCollector9reference
FN:65,_RNvXs_NtNtNtCs87GxMFlPkU4_10gql_parser3ast8visitors8variableNtB4_17VariableCollectorNtNtB8_7visitor10AstVisitor16visit_expression
FN:73,_RNvXs_NtNtNtCs87GxMFlPkU4_10gql_parser3ast8visitors8variableNtB4_17VariableCollectorNtNtB8_7visitor10AstVisitor17visit_let_binding
FN:112,_RNvXs_NtNtNtCs87GxMFlPkU4_10gql_parser3ast8visitors8variableNtB4_17VariableCollectorNtNtB8_7visitor10AstVisitor18visit_edge_pattern
FN:104,_RNvXs_NtNtNtCs87GxMFlPkU4_10gql_parser3ast8visitors8variableNtB4_17VariableCollectorNtNtB8_7visitor10AstVisitor18visit_node_pattern
FN:96,_RNvXs_NtNtNtCs87GxMFlPkU4_10gql_parser3ast8visitors8variableNtB4_17VariableCollectorNtNtB8_7visitor10AstVisitor18visit_path_pattern
FN:81,_RNvXs_NtNtNtCs87GxMFlPkU4_10gql_parser3ast8visitors8variableNtB4_17VariableCollectorNtNtB8_7visitor10AstVisitor19visit_for_statement
FNDA:1,_RNvNtNtNtNtCs6qJP7SanZgw_10gql_parser3ast8visitors8variable5testss_45variable_collector_collects_query_definitions
FNDA:1,_RNvNtNtNtNtCs6qJP7SanZgw_10gql_parser3ast8visitors8variable5testss_49variable_collector_collects_expression_references
FNDA:6,_RNvMNtNtNtCs6qJP7SanZgw_10gql_parser3ast8visitors8variableNtB2_17VariableCollector10references
FNDA:8,_RNvMNtNtNtCs6qJP7SanZgw_10gql_parser3ast8visitors8variableNtB2_17VariableCollector11definitions
FNDA:6,_RNvMNtNtNtCs6qJP7SanZgw_10gql_parser3ast8visitors8variableNtB2_17VariableCollector3new
FNDA:1,_RNvMNtNtNtCs6qJP7SanZgw_10gql_parser3ast8visitors8variableNtB2_17VariableCollector6define
FNDA:6,_RNvMNtNtNtCs6qJP7SanZgw_10gql_parser3ast8visitors8variableNtB2_17VariableCollector9reference
FNDA:10,_RNvXs_NtNtNtCs6qJP7SanZgw_10gql_parser3ast8visitors8variableNtB4_17VariableCollectorNtNtB8_7visitor10AstVisitor16visit_expression
FNDA:1,_RNvXs_NtNtNtCs6qJP7SanZgw_10gql_parser3ast8visitors8variableNtB4_17VariableCollectorNtNtB8_7visitor10AstVisitor17visit_let_binding
FNDA:2,_RNvXs_NtNtNtCs6qJP7SanZgw_10gql_parser3ast8visitors8variableNtB4_17VariableCollectorNtNtB8_7visitor10AstVisitor18visit_edge_pattern
FNDA:8,_RNvXs_NtNtNtCs6qJP7SanZgw_10gql_parser3ast8visitors8variableNtB4_17VariableCollectorNtNtB8_7visitor10AstVisitor18visit_node_pattern
FNDA:6,_RNvXs_NtNtNtCs6qJP7SanZgw_10gql_parser3ast8visitors8variableNtB4_17VariableCollectorNtNtB8_7visitor10AstVisitor18visit_path_pattern
FNDA:0,_RNvXs_NtNtNtCs6qJP7SanZgw_10gql_parser3ast8visitors8variableNtB4_17VariableCollectorNtNtB8_7visitor10AstVisitor19visit_for_statement
FNDA:0,_RNvMNtNtNtCs6qJP7SanZgw_10gql_parser3ast8visitors8variableNtB2_17VariableCollector15into_references
FNDA:0,_RNvMNtNtNtCs6qJP7SanZgw_10gql_parser3ast8visitors8variableNtB2_17VariableCollector34collect_references_from_expression
FNDA:0,_RNvMNtNtNtCs87GxMFlPkU4_10gql_parser3ast8visitors8variableNtB2_17VariableCollector10references
FNDA:0,_RNvMNtNtNtCs87GxMFlPkU4_10gql_parser3ast8visitors8variableNtB2_17VariableCollector11definitions
FNDA:0,_RNvMNtNtNtCs87GxMFlPkU4_10gql_parser3ast8visitors8variableNtB2_17VariableCollector15into_references
FNDA:0,_RNvMNtNtNtCs87GxMFlPkU4_10gql_parser3ast8visitors8variableNtB2_17VariableCollector34collect_references_from_expression
FNDA:0,_RNvMNtNtNtCs87GxMFlPkU4_10gql_parser3ast8visitors8variableNtB2_17VariableCollector3new
FNDA:0,_RNvMNtNtNtCs87GxMFlPkU4_10gql_parser3ast8visitors8variableNtB2_17VariableCollector6define
FNDA:0,_RNvMNtNtNtCs87GxMFlPkU4_10gql_parser3ast8visitors8variableNtB2_17VariableCollector9reference
FNDA:0,_RNvXs_NtNtNtCs87GxMFlPkU4_10gql_parser3ast8visitors8variableNtB4_17VariableCollectorNtNtB8_7visitor10AstVisitor16visit_expression
FNDA:0,_RNvXs_NtNtNtCs87GxMFlPkU4_10gql_parser3ast8visitors8variableNtB4_17VariableCollectorNtNtB8_7visitor10AstVisitor17visit_let_binding
FNDA:0,_RNvXs_NtNtNtCs87GxMFlPkU4_10gql_parser3ast8visitors8variableNtB4_17VariableCollectorNtNtB8_7visitor10AstVisitor18visit_edge_pattern
FNDA:0,_RNvXs_NtNtNtCs87GxMFlPkU4_10gql_parser3ast8visitors8variableNtB4_17VariableCollectorNtNtB8_7visitor10AstVisitor18visit_node_pattern
FNDA:0,_RNvXs_NtNtNtCs87GxMFlPkU4_10gql_parser3ast8visitors8variableNtB4_17VariableCollectorNtNtB8_7visitor10AstVisitor18visit_path_pattern
FNDA:0,_RNvXs_NtNtNtCs87GxMFlPkU4_10gql_parser3ast8visitors8variableNtB4_17VariableCollectorNtNtB8_7visitor10AstVisitor19visit_for_statement
FNF:15
FNH:12
DA:27,6
DA:28,6
DA:29,6
DA:32,0
DA:33,0
DA:34,0
DA:35,0
DA:36,0
DA:39,6
DA:40,6
DA:41,6
DA:44,8
DA:45,8
DA:46,8
DA:49,0
DA:50,0
DA:51,0
DA:53,1
DA:54,1
DA:55,1
DA:57,6
DA:58,6
DA:59,6
DA:65,10
DA:66,10
DA:67,6
DA:68,6
DA:70,10
DA:71,10
DA:73,1
DA:74,1
DA:75,1
DA:76,1
DA:77,1
DA:78,1
DA:79,1
DA:81,0
DA:82,0
DA:84,0
DA:85,0
DA:86,0
DA:87,0
DA:88,0
DA:89,0
DA:91,0
DA:93,0
DA:94,0
DA:96,6
DA:97,6
DA:98,0
DA:99,6
DA:101,6
DA:102,6
DA:104,8
DA:105,8
DA:106,8
DA:107,8
DA:109,8
DA:110,8
DA:112,2
DA:113,2
DA:114,2
DA:115,2
DA:116,2
DA:117,2
DA:119,2
DA:120,2
DA:130,1
DA:131,1
DA:132,1
DA:134,1
DA:135,1
DA:137,1
DA:138,1
DA:139,1
DA:142,1
DA:143,1
DA:144,1
DA:146,1
DA:147,1
DA:149,1
DA:150,1
DA:151,1
DA:152,1
DA:153,1
BRF:0
BRH:0
LF:85
LH:65
end_of_record
SF:/Users/d072013/SAPDevelop/gql_parser/src/diag.rs
FN:125,_RINvMs0_NtCs6qJP7SanZgw_10gql_parser4diagNtB6_4Diag18with_primary_labelNtNtCs5bkkNO3hTYU_5alloc6string6StringEB8_
FN:125,_RINvMs0_NtCs6qJP7SanZgw_10gql_parser4diagNtB6_4Diag18with_primary_labelReEB8_
FN:131,_RINvMs0_NtCs6qJP7SanZgw_10gql_parser4diagNtB6_4Diag20with_secondary_labelReEB8_
FN:98,_RINvMs0_NtCs6qJP7SanZgw_10gql_parser4diagNtB6_4Diag3newNtNtCs5bkkNO3hTYU_5alloc6string6StringEB8_
FN:98,_RINvMs0_NtCs6qJP7SanZgw_10gql_parser4diagNtB6_4Diag3newReEB8_
FN:120,_RINvMs0_NtCs6qJP7SanZgw_10gql_parser4diagNtB6_4Diag4noteReEB8_
FN:110,_RINvMs0_NtCs6qJP7SanZgw_10gql_parser4diagNtB6_4Diag5errorNtNtCs5bkkNO3hTYU_5alloc6string6StringEB8_
FN:110,_RINvMs0_NtCs6qJP7SanZgw_10gql_parser4diagNtB6_4Diag5errorReEB8_
FN:115,_RINvMs0_NtCs6qJP7SanZgw_10gql_parser4diagNtB6_4Diag7warningReEB8_
FN:155,_RINvMs0_NtCs6qJP7SanZgw_10gql_parser4diagNtB6_4Diag9with_codeReEB8_
FN:143,_RINvMs0_NtCs6qJP7SanZgw_10gql_parser4diagNtB6_4Diag9with_helpReEB8_
FN:149,_RINvMs0_NtCs6qJP7SanZgw_10gql_parser4diagNtB6_4Diag9with_noteNtNtCs5bkkNO3hTYU_5alloc6string6StringEB8_
FN:149,_RINvMs0_NtCs6qJP7SanZgw_10gql_parser4diagNtB6_4Diag9with_noteReEB8_
FN:176,_RINvMs1_NtCs6qJP7SanZgw_10gql_parser4diagNtB6_10SourceFile3newReEB8_
FN:184,_RINvMs1_NtCs6qJP7SanZgw_10gql_parser4diagNtB6_10SourceFile9with_nameReB14_EB8_
FN:57,_RINvMs_NtCs6qJP7SanZgw_10gql_parser4diagNtB5_9DiagLabel7primaryNtNtCs5bkkNO3hTYU_5alloc6string6StringEB7_
FN:57,_RINvMs_NtCs6qJP7SanZgw_10gql_parser4diagNtB5_9DiagLabel7primaryReEB7_
FN:66,_RINvMs_NtCs6qJP7SanZgw_10gql_parser4diagNtB5_9DiagLabel9secondaryReEB7_
FN:223,_RNCNvNtCs6qJP7SanZgw_10gql_parser4diag30convert_diagnostics_to_reports0B5_
FN:332,_RNCNvXs7_NtCs6qJP7SanZgw_10gql_parser4diagNtB7_15BuiltDiagnosticNtNtCsb7QDHIk6yQo_6miette8protocol10Diagnostic4code0B9_
FN:338,_RNCNvXs7_NtCs6qJP7SanZgw_10gql_parser4diagNtB7_15BuiltDiagnosticNtNtCsb7QDHIk6yQo_6miette8protocol10Diagnostic4help0B9_
FN:354,_RNCNvXs7_NtCs6qJP7SanZgw_10gql_parser4diagNtB7_15BuiltDiagnosticNtNtCsb7QDHIk6yQo_6miette8protocol10Diagnostic7related0B9_
FN:137,_RNvMs0_NtCs6qJP7SanZgw_10gql_parser4diagNtB5_4Diag10with_label
FN:207,_RNvMs1_NtCs6qJP7SanZgw_10gql_parser4diagNtB5_10SourceFile10clamp_span
FN:202,_RNvMs1_NtCs6qJP7SanZgw_10gql_parser4diagNtB5_10SourceFile13is_valid_span
FN:197,_RNvMs1_NtCs6qJP7SanZgw_10gql_parser4diagNtB5_10SourceFile4name
FN:192,_RNvMs1_NtCs6qJP7SanZgw_10gql_parser4diagNtB5_10SourceFile7content
FN:304,_RNvMs2_NtCs6qJP7SanZgw_10gql_parser4diagNtB5_14NoteDiagnostic3new
FN:252,_RNvNtCs6qJP7SanZgw_10gql_parser4diag16build_diagnostic
FN:235,_RNvNtCs6qJP7SanZgw_10gql_parser4diag22convert_diag_to_report
FN:220,_RNvNtCs6qJP7SanZgw_10gql_parser4diag30convert_diagnostics_to_reports
FN:23,_RNvXNtCs6qJP7SanZgw_10gql_parser4diagNtB2_12DiagSeverityNtNtCsezyhsC6CBT9_4core3fmt7Display3fmt
FN:310,_RNvXs3_NtCs6qJP7SanZgw_10gql_parser4diagNtB5_14NoteDiagnosticNtNtCsezyhsC6CBT9_4core3fmt7Display3fmt
FN:316,_RNvXs4_NtCs6qJP7SanZgw_10gql_parser4diagNtB5_15BuiltDiagnosticNtNtCsezyhsC6CBT9_4core3fmt7Display3fmt
FN:329,_RNvXs7_NtCs6qJP7SanZgw_10gql_parser4diagNtB5_15BuiltDiagnosticNtNtCsb7QDHIk6yQo_6miette8protocol10Diagnostic4code
FN:335,_RNvXs7_NtCs6qJP7SanZgw_10gql_parser4diagNtB5_15BuiltDiagnosticNtNtCsb7QDHIk6yQo_6miette8protocol10Diagnostic4help
FN:341,_RNvXs7_NtCs6qJP7SanZgw_10gql_parser4diagNtB5_15BuiltDiagnosticNtNtCsb7QDHIk6yQo_6miette8protocol10Diagnostic6labels
FN:349,_RNvXs7_NtCs6qJP7SanZgw_10gql_parser4diagNtB5_15BuiltDiagnosticNtNtCsb7QDHIk6yQo_6miette8protocol10Diagnostic7related
FN:325,_RNvXs7_NtCs6qJP7SanZgw_10gql_parser4diagNtB5_15BuiltDiagnosticNtNtCsb7QDHIk6yQo_6miette8protocol10Diagnostic8severity
FN:361,_RNvXs8_NtCs6qJP7SanZgw_10gql_parser4diagNtB5_14NoteDiagnosticNtNtCsb7QDHIk6yQo_6miette8protocol10Diagnostic8severity
FN:518,_RNvNtNtCs6qJP7SanZgw_10gql_parser4diag5testss_12convert_note
FN:419,_RNvNtNtCs6qJP7SanZgw_10gql_parser4diag5testss_14diag_with_code
FN:508,_RNvNtNtCs6qJP7SanZgw_10gql_parser4diag5testss_15convert_warning
FN:371,_RNvNtNtCs6qJP7SanZgw_10gql_parser4diag5testss_16severity_display
FN:425,_RNvNtNtCs6qJP7SanZgw_10gql_parser4diag5testss_17source_file_basic
FN:394,_RNvNtNtCs6qJP7SanZgw_10gql_parser4diag5testss_18diag_builder_error
FN:378,_RNvNtNtCs6qJP7SanZgw_10gql_parser4diag5testss_18diag_label_primary
FN:591,_RNvNtNtCs6qJP7SanZgw_10gql_parser4diag5testss_20convert_empty_labels
FN:469,_RNvNtNtCs6qJP7SanZgw_10gql_parser4diag5testss_20convert_simple_error
FN:386,_RNvNtNtCs6qJP7SanZgw_10gql_parser4diag5testss_20diag_label_secondary
FN:460,_RNvNtNtCs6qJP7SanZgw_10gql_parser4diag5testss_21diag_warning_and_note
FN:432,_RNvNtNtCs6qJP7SanZgw_10gql_parser4diag5testss_21source_file_with_name
FN:450,_RNvNtNtCs6qJP7SanZgw_10gql_parser4diag5testss_22source_file_clamp_span
FN:439,_RNvNtNtCs6qJP7SanZgw_10gql_parser4diag5testss_22source_file_valid_span
FN:406,_RNvNtNtCs6qJP7SanZgw_10gql_parser4diag5testss_24diag_builder_multi_label
FN:479,_RNvNtNtCs6qJP7SanZgw_10gql_parser4diag5testss_25convert_multi_label_error
FN:567,_RNvNtNtCs6qJP7SanZgw_10gql_parser4diag5testss_25convert_with_invalid_span
FN:491,_RNvNtNtCs6qJP7SanZgw_10gql_parser4diag5testss_26convert_with_help_and_code
FN:577,_RNvNtNtCs6qJP7SanZgw_10gql_parser4diag5testss_28convert_multiple_diagnostics
FN:530,_RNvNtNtCs6qJP7SanZgw_10gql_parser4diag5testss_29convert_preserves_label_roles
FN:601,_RNvNtNtCs6qJP7SanZgw_10gql_parser4diag5testss_30structural_assertions_for_diag
FN:547,_RNvNtNtCs6qJP7SanZgw_10gql_parser4diag5testss_44convert_exposes_notes_as_related_diagnostics
FN:137,_RNvMs0_NtCs87GxMFlPkU4_10gql_parser4diagNtB5_4Diag10with_label
FN:207,_RNvMs1_NtCs87GxMFlPkU4_10gql_parser4diagNtB5_10SourceFile10clamp_span
FN:202,_RNvMs1_NtCs87GxMFlPkU4_10gql_parser4diagNtB5_10SourceFile13is_valid_span
FN:197,_RNvMs1_NtCs87GxMFlPkU4_10gql_parser4diagNtB5_10SourceFile4name
FN:192,_RNvMs1_NtCs87GxMFlPkU4_10gql_parser4diagNtB5_10SourceFile7content
FN:304,_RNvMs2_NtCs87GxMFlPkU4_10gql_parser4diagNtB5_14NoteDiagnostic3new
FN:252,_RNvNtCs87GxMFlPkU4_10gql_parser4diag16build_diagnostic
FN:235,_RNvNtCs87GxMFlPkU4_10gql_parser4diag22convert_diag_to_report
FN:220,_RNvNtCs87GxMFlPkU4_10gql_parser4diag30convert_diagnostics_to_reports
FN:23,_RNvXNtCs87GxMFlPkU4_10gql_parser4diagNtB2_12DiagSeverityNtNtCsezyhsC6CBT9_4core3fmt7Display3fmt
FN:310,_RNvXs3_NtCs87GxMFlPkU4_10gql_parser4diagNtB5_14NoteDiagnosticNtNtCsezyhsC6CBT9_4core3fmt7Display3fmt
FN:316,_RNvXs4_NtCs87GxMFlPkU4_10gql_parser4diagNtB5_15BuiltDiagnosticNtNtCsezyhsC6CBT9_4core3fmt7Display3fmt
FN:329,_RNvXs7_NtCs87GxMFlPkU4_10gql_parser4diagNtB5_15BuiltDiagnosticNtNtCsb7QDHIk6yQo_6miette8protocol10Diagnostic4code
FN:335,_RNvXs7_NtCs87GxMFlPkU4_10gql_parser4diagNtB5_15BuiltDiagnosticNtNtCsb7QDHIk6yQo_6miette8protocol10Diagnostic4help
FN:341,_RNvXs7_NtCs87GxMFlPkU4_10gql_parser4diagNtB5_15BuiltDiagnosticNtNtCsb7QDHIk6yQo_6miette8protocol10Diagnostic6labels
FN:349,_RNvXs7_NtCs87GxMFlPkU4_10gql_parser4diagNtB5_15BuiltDiagnosticNtNtCsb7QDHIk6yQo_6miette8protocol10Diagnostic7related
FN:325,_RNvXs7_NtCs87GxMFlPkU4_10gql_parser4diagNtB5_15BuiltDiagnosticNtNtCsb7QDHIk6yQo_6miette8protocol10Diagnostic8severity
FN:361,_RNvXs8_NtCs87GxMFlPkU4_10gql_parser4diagNtB5_14NoteDiagnosticNtNtCsb7QDHIk6yQo_6miette8protocol10Diagnostic8severity
FN:125,_RINvMs0_NtCs87GxMFlPkU4_10gql_parser4diagNtB6_4Diag18with_primary_labelNtNtCs5bkkNO3hTYU_5alloc6string6StringEB8_
FN:125,_RINvMs0_NtCs87GxMFlPkU4_10gql_parser4diagNtB6_4Diag18with_primary_labelReEB8_
FN:98,_RINvMs0_NtCs87GxMFlPkU4_10gql_parser4diagNtB6_4Diag3newNtNtCs5bkkNO3hTYU_5alloc6string6StringEB8_
FN:98,_RINvMs0_NtCs87GxMFlPkU4_10gql_parser4diagNtB6_4Diag3newReEB8_
FN:110,_RINvMs0_NtCs87GxMFlPkU4_10gql_parser4diagNtB6_4Diag5errorNtNtCs5bkkNO3hTYU_5alloc6string6StringEB8_
FN:110,_RINvMs0_NtCs87GxMFlPkU4_10gql_parser4diagNtB6_4Diag5errorReEB8_
FN:115,_RINvMs0_NtCs87GxMFlPkU4_10gql_parser4diagNtB6_4Diag7warningReEB8_
FN:155,_RINvMs0_NtCs87GxMFlPkU4_10gql_parser4diagNtB6_4Diag9with_codeReEB8_
FN:143,_RINvMs0_NtCs87GxMFlPkU4_10gql_parser4diagNtB6_4Diag9with_helpNtNtCs5bkkNO3hTYU_5alloc6string6StringEB8_
FN:143,_RINvMs0_NtCs87GxMFlPkU4_10gql_parser4diagNtB6_4Diag9with_helpReEB8_
FN:149,_RINvMs0_NtCs87GxMFlPkU4_10gql_parser4diagNtB6_4Diag9with_noteNtNtCs5bkkNO3hTYU_5alloc6string6StringEB8_
FN:176,_RINvMs1_NtCs87GxMFlPkU4_10gql_parser4diagNtB6_10SourceFile3newReEB8_
FN:57,_RINvMs_NtCs87GxMFlPkU4_10gql_parser4diagNtB5_9DiagLabel7primaryNtNtCs5bkkNO3hTYU_5alloc6string6StringEB7_
FN:57,_RINvMs_NtCs87GxMFlPkU4_10gql_parser4diagNtB5_9DiagLabel7primaryReEB7_
FN:223,_RNCNvNtCs87GxMFlPkU4_10gql_parser4diag30convert_diagnostics_to_reports0B5_
FN:332,_RNCNvXs7_NtCs87GxMFlPkU4_10gql_parser4diagNtB7_15BuiltDiagnosticNtNtCsb7QDHIk6yQo_6miette8protocol10Diagnostic4code0B9_
FN:338,_RNCNvXs7_NtCs87GxMFlPkU4_10gql_parser4diagNtB7_15BuiltDiagnosticNtNtCsb7QDHIk6yQo_6miette8protocol10Diagnostic4help0B9_
FN:354,_RNCNvXs7_NtCs87GxMFlPkU4_10gql_parser4diagNtB7_15BuiltDiagnosticNtNtCsb7QDHIk6yQo_6miette8protocol10Diagnostic7related0B9_
FNDA:75318,_RINvMs0_NtCs6qJP7SanZgw_10gql_parser4diagNtB6_4Diag18with_primary_labelNtNtCs5bkkNO3hTYU_5alloc6string6StringEB8_
FNDA:204359,_RINvMs0_NtCs6qJP7SanZgw_10gql_parser4diagNtB6_4Diag18with_primary_labelReEB8_
FNDA:4,_RINvMs0_NtCs6qJP7SanZgw_10gql_parser4diagNtB6_4Diag20with_secondary_labelReEB8_
FNDA:62164,_RINvMs0_NtCs6qJP7SanZgw_10gql_parser4diagNtB6_4Diag3newNtNtCs5bkkNO3hTYU_5alloc6string6StringEB8_
FNDA:217522,_RINvMs0_NtCs6qJP7SanZgw_10gql_parser4diagNtB6_4Diag3newReEB8_
FNDA:2,_RINvMs0_NtCs6qJP7SanZgw_10gql_parser4diagNtB6_4Diag4noteReEB8_
FNDA:62160,_RINvMs0_NtCs6qJP7SanZgw_10gql_parser4diagNtB6_4Diag5errorNtNtCs5bkkNO3hTYU_5alloc6string6StringEB8_
FNDA:217517,_RINvMs0_NtCs6qJP7SanZgw_10gql_parser4diagNtB6_4Diag5errorReEB8_
FNDA:3,_RINvMs0_NtCs6qJP7SanZgw_10gql_parser4diagNtB6_4Diag7warningReEB8_
FNDA:151186,_RINvMs0_NtCs6qJP7SanZgw_10gql_parser4diagNtB6_4Diag9with_codeReEB8_
FNDA:3,_RINvMs0_NtCs6qJP7SanZgw_10gql_parser4diagNtB6_4Diag9with_helpReEB8_
FNDA:0,_RINvMs0_NtCs6qJP7SanZgw_10gql_parser4diagNtB6_4Diag9with_noteNtNtCs5bkkNO3hTYU_5alloc6string6StringEB8_
FNDA:5,_RINvMs0_NtCs6qJP7SanZgw_10gql_parser4diagNtB6_4Diag9with_noteReEB8_
FNDA:10042,_RINvMs1_NtCs6qJP7SanZgw_10gql_parser4diagNtB6_10SourceFile3newReEB8_
FNDA:3,_RINvMs1_NtCs6qJP7SanZgw_10gql_parser4diagNtB6_10SourceFile9with_nameReB14_EB8_
FNDA:75318,_RINvMs_NtCs6qJP7SanZgw_10gql_parser4diagNtB5_9DiagLabel7primaryNtNtCs5bkkNO3hTYU_5alloc6string6StringEB7_
FNDA:204361,_RINvMs_NtCs6qJP7SanZgw_10gql_parser4diagNtB5_9DiagLabel7primaryReEB7_
FNDA:5,_RINvMs_NtCs6qJP7SanZgw_10gql_parser4diagNtB5_9DiagLabel9secondaryReEB7_
FNDA:279619,_RNCNvNtCs6qJP7SanZgw_10gql_parser4diag30convert_diagnostics_to_reports0B5_
FNDA:0,_RNCNvXs7_NtCs6qJP7SanZgw_10gql_parser4diagNtB7_15BuiltDiagnosticNtNtCsb7QDHIk6yQo_6miette8protocol10Diagnostic4code0B9_
FNDA:0,_RNCNvXs7_NtCs6qJP7SanZgw_10gql_parser4diagNtB7_15BuiltDiagnosticNtNtCsb7QDHIk6yQo_6miette8protocol10Diagnostic4help0B9_
FNDA:2,_RNCNvXs7_NtCs6qJP7SanZgw_10gql_parser4diagNtB7_15BuiltDiagnosticNtNtCsb7QDHIk6yQo_6miette8protocol10Diagnostic7related0B9_
FNDA:4,_RNvMs0_NtCs6qJP7SanZgw_10gql_parser4diagNtB5_4Diag10with_label
FNDA:279636,_RNvMs1_NtCs6qJP7SanZgw_10gql_parser4diagNtB5_10SourceFile10clamp_span
FNDA:5,_RNvMs1_NtCs6qJP7SanZgw_10gql_parser4diagNtB5_10SourceFile13is_valid_span
FNDA:279630,_RNvMs1_NtCs6qJP7SanZgw_10gql_parser4diagNtB5_10SourceFile4name
FNDA:279630,_RNvMs1_NtCs6qJP7SanZgw_10gql_parser4diagNtB5_10SourceFile7content
FNDA:4,_RNvMs2_NtCs6qJP7SanZgw_10gql_parser4diagNtB5_14NoteDiagnostic3new
FNDA:279632,_RNvNtCs6qJP7SanZgw_10gql_parser4diag16build_diagnostic
FNDA:279628,_RNvNtCs6qJP7SanZgw_10gql_parser4diag22convert_diag_to_report
FNDA:10032,_RNvNtCs6qJP7SanZgw_10gql_parser4diag30convert_diagnostics_to_reports
FNDA:3,_RNvXNtCs6qJP7SanZgw_10gql_parser4diagNtB2_12DiagSeverityNtNtCsezyhsC6CBT9_4core3fmt7Display3fmt
FNDA:2,_RNvXs3_NtCs6qJP7SanZgw_10gql_parser4diagNtB5_14NoteDiagnosticNtNtCsezyhsC6CBT9_4core3fmt7Display3fmt
FNDA:12,_RNvXs4_NtCs6qJP7SanZgw_10gql_parser4diagNtB5_15BuiltDiagnosticNtNtCsezyhsC6CBT9_4core3fmt7Display3fmt
FNDA:1,_RNvXs7_NtCs6qJP7SanZgw_10gql_parser4diagNtB5_15BuiltDiagnosticNtNtCsb7QDHIk6yQo_6miette8protocol10Diagnostic4code
FNDA:1,_RNvXs7_NtCs6qJP7SanZgw_10gql_parser4diagNtB5_15BuiltDiagnosticNtNtCsb7QDHIk6yQo_6miette8protocol10Diagnostic4help
FNDA:1,_RNvXs7_NtCs6qJP7SanZgw_10gql_parser4diagNtB5_15BuiltDiagnosticNtNtCsb7QDHIk6yQo_6miette8protocol10Diagnostic6labels
FNDA:2,_RNvXs7_NtCs6qJP7SanZgw_10gql_parser4diagNtB5_15BuiltDiagnosticNtNtCsb7QDHIk6yQo_6miette8protocol10Diagnostic7related
FNDA:2,_RNvXs7_NtCs6qJP7SanZgw_10gql_parser4diagNtB5_15BuiltDiagnosticNtNtCsb7QDHIk6yQo_6miette8protocol10Diagnostic8severity
FNDA:1,_RNvXs8_NtCs6qJP7SanZgw_10gql_parser4diagNtB5_14NoteDiagnosticNtNtCsb7QDHIk6yQo_6miette8protocol10Diagnostic8severity
FNDA:1,_RNvNtNtCs6qJP7SanZgw_10gql_parser4diag5testss_12convert_note
FNDA:1,_RNvNtNtCs6qJP7SanZgw_10gql_parser4diag5testss_14diag_with_code
FNDA:1,_RNvNtNtCs6qJP7SanZgw_10gql_parser4diag5testss_15convert_warning
FNDA:1,_RNvNtNtCs6qJP7SanZgw_10gql_parser4diag5testss_16severity_display
FNDA:1,_RNvNtNtCs6qJP7SanZgw_10gql_parser4diag5testss_17source_file_basic
FNDA:1,_RNvNtNtCs6qJP7SanZgw_10gql_parser4diag5testss_18diag_builder_error
FNDA:1,_RNvNtNtCs6qJP7SanZgw_10gql_parser4diag5testss_18diag_label_primary
FNDA:1,_RNvNtNtCs6qJP7SanZgw_10gql_parser4diag5testss_20convert_empty_labels
FNDA:1,_RNvNtNtCs6qJP7SanZgw_10gql_parser4diag5testss_20convert_simple_error
FNDA:1,_RNvNtNtCs6qJP7SanZgw_10gql_parser4diag5testss_20diag_label_secondary
FNDA:1,_RNvNtNtCs6qJP7SanZgw_10gql_parser4diag5testss_21diag_warning_and_note
FNDA:1,_RNvNtNtCs6qJP7SanZgw_10gql_parser4diag5testss_21source_file_with_name
FNDA:1,_RNvNtNtCs6qJP7SanZgw_10gql_parser4diag5testss_22source_file_clamp_span
FNDA:1,_RNvNtNtCs6qJP7SanZgw_10gql_parser4diag5testss_22source_file_valid_span
FNDA:1,_RNvNtNtCs6qJP7SanZgw_10gql_parser4diag5testss_24diag_builder_multi_label
FNDA:1,_RNvNtNtCs6qJP7SanZgw_10gql_parser4diag5testss_25convert_multi_label_error
FNDA:1,_RNvNtNtCs6qJP7SanZgw_10gql_parser4diag5testss_25convert_with_invalid_span
FNDA:1,_RNvNtNtCs6qJP7SanZgw_10gql_parser4diag5testss_26convert_with_help_and_code
FNDA:1,_RNvNtNtCs6qJP7SanZgw_10gql_parser4diag5testss_28convert_multiple_diagnostics
FNDA:1,_RNvNtNtCs6qJP7SanZgw_10gql_parser4diag5testss_29convert_preserves_label_roles
FNDA:1,_RNvNtNtCs6qJP7SanZgw_10gql_parser4diag5testss_30structural_assertions_for_diag
FNDA:1,_RNvNtNtCs6qJP7SanZgw_10gql_parser4diag5testss_44convert_exposes_notes_as_related_diagnostics
FNDA:0,_RNvMs0_NtCs87GxMFlPkU4_10gql_parser4diagNtB5_4Diag10with_label
FNDA:0,_RNvMs1_NtCs87GxMFlPkU4_10gql_parser4diagNtB5_10SourceFile10clamp_span
FNDA:0,_RNvMs1_NtCs87GxMFlPkU4_10gql_parser4diagNtB5_10SourceFile13is_valid_span
FNDA:0,_RNvMs1_NtCs87GxMFlPkU4_10gql_parser4diagNtB5_10SourceFile4name
FNDA:0,_RNvMs1_NtCs87GxMFlPkU4_10gql_parser4diagNtB5_10SourceFile7content
FNDA:0,_RNvMs2_NtCs87GxMFlPkU4_10gql_parser4diagNtB5_14NoteDiagnostic3new
FNDA:0,_RNvNtCs87GxMFlPkU4_10gql_parser4diag16build_diagnostic
FNDA:0,_RNvNtCs87GxMFlPkU4_10gql_parser4diag22convert_diag_to_report
FNDA:0,_RNvNtCs87GxMFlPkU4_10gql_parser4diag30convert_diagnostics_to_reports
FNDA:0,_RNvXNtCs87GxMFlPkU4_10gql_parser4diagNtB2_12DiagSeverityNtNtCsezyhsC6CBT9_4core3fmt7Display3fmt
FNDA:0,_RNvXs3_NtCs87GxMFlPkU4_10gql_parser4diagNtB5_14NoteDiagnosticNtNtCsezyhsC6CBT9_4core3fmt7Display3fmt
FNDA:0,_RNvXs4_NtCs87GxMFlPkU4_10gql_parser4diagNtB5_15BuiltDiagnosticNtNtCsezyhsC6CBT9_4core3fmt7Display3fmt
FNDA:0,_RNvXs7_NtCs87GxMFlPkU4_10gql_parser4diagNtB5_15BuiltDiagnosticNtNtCsb7QDHIk6yQo_6miette8protocol10Diagnostic4code
FNDA:0,_RNvXs7_NtCs87GxMFlPkU4_10gql_parser4diagNtB5_15BuiltDiagnosticNtNtCsb7QDHIk6yQo_6miette8protocol10Diagnostic4help
FNDA:0,_RNvXs7_NtCs87GxMFlPkU4_10gql_parser4diagNtB5_15BuiltDiagnosticNtNtCsb7QDHIk6yQo_6miette8protocol10Diagnostic6labels
FNDA:0,_RNvXs7_NtCs87GxMFlPkU4_10gql_parser4diagNtB5_15BuiltDiagnosticNtNtCsb7QDHIk6yQo_6miette8protocol10Diagnostic7related
FNDA:0,_RNvXs7_NtCs87GxMFlPkU4_10gql_parser4diagNtB5_15BuiltDiagnosticNtNtCsb7QDHIk6yQo_6miette8protocol10Diagnostic8severity
FNDA:0,_RNvXs8_NtCs87GxMFlPkU4_10gql_parser4diagNtB5_14NoteDiagnosticNtNtCsb7QDHIk6yQo_6miette8protocol10Diagnostic8severity
FNDA:0,_RINvMs0_NtCs87GxMFlPkU4_10gql_parser4diagNtB6_4Diag18with_primary_labelNtNtCs5bkkNO3hTYU_5alloc6string6StringEB8_
FNDA:0,_RINvMs0_NtCs87GxMFlPkU4_10gql_parser4diagNtB6_4Diag18with_primary_labelReEB8_
FNDA:0,_RINvMs0_NtCs87GxMFlPkU4_10gql_parser4diagNtB6_4Diag3newNtNtCs5bkkNO3hTYU_5alloc6string6StringEB8_
FNDA:0,_RINvMs0_NtCs87GxMFlPkU4_10gql_parser4diagNtB6_4Diag3newReEB8_
FNDA:0,_RINvMs0_NtCs87GxMFlPkU4_10gql_parser4diagNtB6_4Diag5errorNtNtCs5bkkNO3hTYU_5alloc6string6StringEB8_
FNDA:0,_RINvMs0_NtCs87GxMFlPkU4_10gql_parser4diagNtB6_4Diag5errorReEB8_
FNDA:0,_RINvMs0_NtCs87GxMFlPkU4_10gql_parser4diagNtB6_4Diag7warningReEB8_
FNDA:0,_RINvMs0_NtCs87GxMFlPkU4_10gql_parser4diagNtB6_4Diag9with_codeReEB8_
FNDA:0,_RINvMs0_NtCs87GxMFlPkU4_10gql_parser4diagNtB6_4Diag9with_helpNtNtCs5bkkNO3hTYU_5alloc6string6StringEB8_
FNDA:0,_RINvMs0_NtCs87GxMFlPkU4_10gql_parser4diagNtB6_4Diag9with_helpReEB8_
FNDA:0,_RINvMs0_NtCs87GxMFlPkU4_10gql_parser4diagNtB6_4Diag9with_noteNtNtCs5bkkNO3hTYU_5alloc6string6StringEB8_
FNDA:0,_RINvMs1_NtCs87GxMFlPkU4_10gql_parser4diagNtB6_10SourceFile3newReEB8_
FNDA:0,_RINvMs_NtCs87GxMFlPkU4_10gql_parser4diagNtB5_9DiagLabel7primaryNtNtCs5bkkNO3hTYU_5alloc6string6StringEB7_
FNDA:0,_RINvMs_NtCs87GxMFlPkU4_10gql_parser4diagNtB5_9DiagLabel7primaryReEB7_
FNDA:0,_RNCNvNtCs87GxMFlPkU4_10gql_parser4diag30convert_diagnostics_to_reports0B5_
FNDA:0,_RNCNvXs7_NtCs87GxMFlPkU4_10gql_parser4diagNtB7_15BuiltDiagnosticNtNtCsb7QDHIk6yQo_6miette8protocol10Diagnostic4code0B9_
FNDA:0,_RNCNvXs7_NtCs87GxMFlPkU4_10gql_parser4diagNtB7_15BuiltDiagnosticNtNtCsb7QDHIk6yQo_6miette8protocol10Diagnostic4help0B9_
FNDA:0,_RNCNvXs7_NtCs87GxMFlPkU4_10gql_parser4diagNtB7_15BuiltDiagnosticNtNtCsb7QDHIk6yQo_6miette8protocol10Diagnostic7related0B9_
FNF:57
FNH:55
DA:23,3
DA:24,3
DA:25,1
DA:26,1
DA:27,1
DA:29,3
DA:57,279679
DA:58,279679
DA:59,279679
DA:60,279679
DA:61,279679
DA:62,279679
DA:63,279679
DA:66,5
DA:67,5
DA:68,5
DA:69,5
DA:70,5
DA:71,5
DA:72,5
DA:98,279686
DA:99,279686
DA:100,279686
DA:101,279686
DA:102,279686
DA:103,279686
DA:104,279686
DA:105,279686
DA:106,279686
DA:107,279686
DA:110,279677
DA:111,279677
DA:112,279677
DA:115,3
DA:116,3
DA:117,3
DA:120,2
DA:121,2
DA:122,2
DA:125,279677
DA:126,279677
DA:127,279677
DA:128,279677
DA:131,4
DA:132,4
DA:133,4
DA:134,4
DA:137,4
DA:138,4
DA:139,4
DA:140,4
DA:143,3
DA:144,3
DA:145,3
DA:146,3
DA:149,5
DA:150,5
DA:151,5
DA:152,5
DA:155,151186
DA:156,151186
DA:157,151186
DA:158,151186
DA:176,10042
DA:177,10042
DA:178,10042
DA:179,10042
DA:180,10042
DA:181,10042
DA:184,3
DA:185,3
DA:186,3
DA:187,3
DA:188,3
DA:189,3
DA:192,279630
DA:193,279630
DA:194,279630
DA:197,279630
DA:198,279630
DA:199,279630
DA:202,5
DA:203,5
DA:204,5
DA:207,279636
DA:208,279636
DA:209,279636
DA:210,279636
DA:211,279636
DA:212,279636
DA:220,10032
DA:221,10032
DA:222,10032
DA:223,279619
DA:224,10032
DA:225,10032
DA:235,279628
DA:236,279628
DA:239,279628
DA:242,279628
DA:243,2
DA:244,2
DA:245,279626
DA:246,279626
DA:247,279626
DA:249,279628
DA:250,279628
DA:252,279632
DA:254,279632
DA:255,279632
DA:256,279632
DA:257,279632
DA:258,279632
DA:260,279629
DA:262,3
DA:264,279632
DA:269,279632
DA:270,279632
DA:271,279628
DA:272,2
DA:273,2
DA:275,279632
DA:276,279632
DA:277,279632
DA:278,279632
DA:279,279632
DA:280,279632
DA:281,279632
DA:282,279632
DA:283,279632
DA:285,279632
DA:304,4
DA:305,4
DA:306,4
DA:310,2
DA:311,2
DA:312,2
DA:316,12
DA:317,12
DA:318,12
DA:325,2
DA:326,2
DA:327,2
DA:329,1
DA:330,1
DA:331,1
DA:332,1
DA:333,1
DA:335,1
DA:336,1
DA:337,1
DA:338,1
DA:339,1
DA:341,1
DA:342,1
DA:343,0
DA:345,1
DA:347,1
DA:349,2
DA:350,2
DA:351,1
DA:353,1
DA:354,2
DA:357,2
DA:361,1
DA:362,1
DA:363,1
DA:371,1
DA:372,1
DA:373,1
DA:374,1
DA:375,1
DA:378,1
DA:379,1
DA:380,1
DA:381,1
DA:382,1
DA:383,1
DA:386,1
DA:387,1
DA:388,1
DA:389,1
DA:390,1
DA:391,1
DA:394,1
DA:395,1
DA:396,1
DA:397,1
DA:399,1
DA:400,1
DA:401,1
DA:402,1
DA:403,1
DA:406,1
DA:407,1
DA:408,1
DA:409,1
DA:410,1
DA:412,1
DA:413,1
DA:414,1
DA:415,1
DA:416,1
DA:419,1
DA:420,1
DA:421,1
DA:422,1
DA:425,1
DA:426,1
DA:427,1
DA:428,1
DA:429,1
DA:432,1
DA:433,1
DA:434,1
DA:435,1
DA:436,1
DA:439,1
DA:440,1
DA:441,1
DA:442,1
DA:443,1
DA:444,1
DA:445,1
DA:446,1
DA:447,1
DA:450,1
DA:451,1
DA:452,1
DA:453,1
DA:454,1
DA:455,1
DA:456,1
DA:457,1
DA:460,1
DA:461,1
DA:462,1
DA:464,1
DA:465,1
DA:466,1
DA:469,1
DA:470,1
DA:471,1
DA:474,1
DA:475,1
DA:476,1
DA:479,1
DA:480,1
DA:481,1
DA:482,1
DA:483,1
DA:486,1
DA:487,1
DA:488,1
DA:491,1
DA:492,1
DA:493,1
DA:494,1
DA:495,1
DA:496,1
DA:498,1
DA:499,1
DA:500,1
DA:501,1
DA:502,1
DA:503,1
DA:504,1
DA:505,1
DA:508,1
DA:509,1
DA:510,1
DA:513,1
DA:514,1
DA:515,1
DA:518,1
DA:519,1
DA:520,1
DA:522,1
DA:523,1
DA:524,1
DA:525,1
DA:526,1
DA:527,1
DA:530,1
DA:531,1
DA:532,1
DA:533,1
DA:534,1
DA:536,1
DA:537,1
DA:538,1
DA:539,1
DA:540,1
DA:541,1
DA:542,1
DA:543,1
DA:544,1
DA:547,1
DA:548,1
DA:549,1
DA:550,1
DA:551,1
DA:553,1
DA:554,1
DA:555,1
DA:556,1
DA:557,1
DA:558,1
DA:559,1
DA:560,1
DA:561,1
DA:562,1
DA:563,1
DA:564,1
DA:567,1
DA:568,1
DA:569,1
DA:572,1
DA:573,1
DA:574,1
DA:577,1
DA:578,1
DA:579,1
DA:580,1
DA:581,1
DA:584,1
DA:585,1
DA:586,1
DA:587,1
DA:588,1
DA:591,1
DA:592,1
DA:593,1
DA:596,1
DA:597,1
DA:598,1
DA:601,1
DA:603,1
DA:604,1
DA:605,1
DA:606,1
DA:607,1
DA:608,1
DA:609,1
DA:611,1
DA:612,1
DA:613,1
DA:614,1
DA:615,1
DA:616,1
DA:617,1
DA:618,1
DA:619,1
DA:620,1
DA:621,1
BRF:0
BRH:0
LF:359
LH:356
end_of_record
SF:/Users/d072013/SAPDevelop/gql_parser/src/ir/mod.rs
FN:108,_RNCNvMs_NtCs6qJP7SanZgw_10gql_parser2irNtB6_17ValidationOutcome10has_errors0B8_
FN:115,_RNCNvMs_NtCs6qJP7SanZgw_10gql_parser2irNtB6_17ValidationOutcome12has_warnings0B8_
FN:54,_RNvMNtCs6qJP7SanZgw_10gql_parser2irNtB2_2IR10type_table
FN:49,_RNvMNtCs6qJP7SanZgw_10gql_parser2irNtB2_2IR12symbol_table
FN:44,_RNvMNtCs6qJP7SanZgw_10gql_parser2irNtB2_2IR7program
FN:105,_RNvMs_NtCs6qJP7SanZgw_10gql_parser2irNtB4_17ValidationOutcome10has_errors
FN:95,_RNvMs_NtCs6qJP7SanZgw_10gql_parser2irNtB4_17ValidationOutcome10is_failure
FN:90,_RNvMs_NtCs6qJP7SanZgw_10gql_parser2irNtB4_17ValidationOutcome10is_success
FN:122,_RNvMs_NtCs6qJP7SanZgw_10gql_parser2irNtB4_17ValidationOutcome11into_result
FN:112,_RNvMs_NtCs6qJP7SanZgw_10gql_parser2irNtB4_17ValidationOutcome12has_warnings
FN:100,_RNvMs_NtCs6qJP7SanZgw_10gql_parser2irNtB4_17ValidationOutcome15has_diagnostics
FN:143,_RNvMs_NtCs6qJP7SanZgw_10gql_parser2irNtB4_17ValidationOutcome6expect
FN:134,_RNvMs_NtCs6qJP7SanZgw_10gql_parser2irNtB4_17ValidationOutcome6unwrap
FN:35,_RNvMNtCs6qJP7SanZgw_10gql_parser2irNtB2_2IR3new
FN:82,_RNvMs_NtCs6qJP7SanZgw_10gql_parser2irNtB4_17ValidationOutcome7failure
FN:74,_RNvMs_NtCs6qJP7SanZgw_10gql_parser2irNtB4_17ValidationOutcome7success
FN:54,_RNvMNtCs87GxMFlPkU4_10gql_parser2irNtB2_2IR10type_table
FN:49,_RNvMNtCs87GxMFlPkU4_10gql_parser2irNtB2_2IR12symbol_table
FN:35,_RNvMNtCs87GxMFlPkU4_10gql_parser2irNtB2_2IR3new
FN:44,_RNvMNtCs87GxMFlPkU4_10gql_parser2irNtB2_2IR7program
FN:105,_RNvMs_NtCs87GxMFlPkU4_10gql_parser2irNtB4_17ValidationOutcome10has_errors
FN:95,_RNvMs_NtCs87GxMFlPkU4_10gql_parser2irNtB4_17ValidationOutcome10is_failure
FN:90,_RNvMs_NtCs87GxMFlPkU4_10gql_parser2irNtB4_17ValidationOutcome10is_success
FN:122,_RNvMs_NtCs87GxMFlPkU4_10gql_parser2irNtB4_17ValidationOutcome11into_result
FN:112,_RNvMs_NtCs87GxMFlPkU4_10gql_parser2irNtB4_17ValidationOutcome12has_warnings
FN:100,_RNvMs_NtCs87GxMFlPkU4_10gql_parser2irNtB4_17ValidationOutcome15has_diagnostics
FN:143,_RNvMs_NtCs87GxMFlPkU4_10gql_parser2irNtB4_17ValidationOutcome6expect
FN:134,_RNvMs_NtCs87GxMFlPkU4_10gql_parser2irNtB4_17ValidationOutcome6unwrap
FN:82,_RNvMs_NtCs87GxMFlPkU4_10gql_parser2irNtB4_17ValidationOutcome7failure
FN:74,_RNvMs_NtCs87GxMFlPkU4_10gql_parser2irNtB4_17ValidationOutcome7success
FN:108,_RNCNvMs_NtCs87GxMFlPkU4_10gql_parser2irNtB6_17ValidationOutcome10has_errors0B8_
FN:115,_RNCNvMs_NtCs87GxMFlPkU4_10gql_parser2irNtB6_17ValidationOutcome12has_warnings0B8_
FNDA:0,_RNCNvMs_NtCs6qJP7SanZgw_10gql_parser2irNtB6_17ValidationOutcome10has_errors0B8_
FNDA:0,_RNCNvMs_NtCs6qJP7SanZgw_10gql_parser2irNtB6_17ValidationOutcome12has_warnings0B8_
FNDA:0,_RNvMNtCs6qJP7SanZgw_10gql_parser2irNtB2_2IR10type_table
FNDA:0,_RNvMNtCs6qJP7SanZgw_10gql_parser2irNtB2_2IR12symbol_table
FNDA:0,_RNvMNtCs6qJP7SanZgw_10gql_parser2irNtB2_2IR7program
FNDA:0,_RNvMs_NtCs6qJP7SanZgw_10gql_parser2irNtB4_17ValidationOutcome10has_errors
FNDA:0,_RNvMs_NtCs6qJP7SanZgw_10gql_parser2irNtB4_17ValidationOutcome10is_failure
FNDA:0,_RNvMs_NtCs6qJP7SanZgw_10gql_parser2irNtB4_17ValidationOutcome10is_success
FNDA:0,_RNvMs_NtCs6qJP7SanZgw_10gql_parser2irNtB4_17ValidationOutcome11into_result
FNDA:0,_RNvMs_NtCs6qJP7SanZgw_10gql_parser2irNtB4_17ValidationOutcome12has_warnings
FNDA:0,_RNvMs_NtCs6qJP7SanZgw_10gql_parser2irNtB4_17ValidationOutcome15has_diagnostics
FNDA:0,_RNvMs_NtCs6qJP7SanZgw_10gql_parser2irNtB4_17ValidationOutcome6expect
FNDA:0,_RNvMs_NtCs6qJP7SanZgw_10gql_parser2irNtB4_17ValidationOutcome6unwrap
FNDA:2,_RNvMNtCs6qJP7SanZgw_10gql_parser2irNtB2_2IR3new
FNDA:3,_RNvMs_NtCs6qJP7SanZgw_10gql_parser2irNtB4_17ValidationOutcome7failure
FNDA:2,_RNvMs_NtCs6qJP7SanZgw_10gql_parser2irNtB4_17ValidationOutcome7success
FNDA:0,_RNvMNtCs87GxMFlPkU4_10gql_parser2irNtB2_2IR10type_table
FNDA:0,_RNvMNtCs87GxMFlPkU4_10gql_parser2irNtB2_2IR12symbol_table
FNDA:0,_RNvMNtCs87GxMFlPkU4_10gql_parser2irNtB2_2IR3new
FNDA:0,_RNvMNtCs87GxMFlPkU4_10gql_parser2irNtB2_2IR7program
FNDA:0,_RNvMs_NtCs87GxMFlPkU4_10gql_parser2irNtB4_17ValidationOutcome10has_errors
FNDA:0,_RNvMs_NtCs87GxMFlPkU4_10gql_parser2irNtB4_17ValidationOutcome10is_failure
FNDA:0,_RNvMs_NtCs87GxMFlPkU4_10gql_parser2irNtB4_17ValidationOutcome10is_success
FNDA:0,_RNvMs_NtCs87GxMFlPkU4_10gql_parser2irNtB4_17ValidationOutcome11into_result
FNDA:0,_RNvMs_NtCs87GxMFlPkU4_10gql_parser2irNtB4_17ValidationOutcome12has_warnings
FNDA:0,_RNvMs_NtCs87GxMFlPkU4_10gql_parser2irNtB4_17ValidationOutcome15has_diagnostics
FNDA:0,_RNvMs_NtCs87GxMFlPkU4_10gql_parser2irNtB4_17ValidationOutcome6expect
FNDA:0,_RNvMs_NtCs87GxMFlPkU4_10gql_parser2irNtB4_17ValidationOutcome6unwrap
FNDA:0,_RNvMs_NtCs87GxMFlPkU4_10gql_parser2irNtB4_17ValidationOutcome7failure
FNDA:0,_RNvMs_NtCs87GxMFlPkU4_10gql_parser2irNtB4_17ValidationOutcome7success
FNDA:0,_RNCNvMs_NtCs87GxMFlPkU4_10gql_parser2irNtB6_17ValidationOutcome10has_errors0B8_
FNDA:0,_RNCNvMs_NtCs87GxMFlPkU4_10gql_parser2irNtB6_17ValidationOutcome12has_warnings0B8_
FNF:16
FNH:3
DA:35,2
DA:36,2
DA:37,2
DA:38,2
DA:39,2
DA:40,2
DA:41,2
DA:44,0
DA:45,0
DA:46,0
DA:49,0
DA:50,0
DA:51,0
DA:54,0
DA:55,0
DA:56,0
DA:74,2
DA:75,2
DA:76,2
DA:77,2
DA:78,2
DA:79,2
DA:82,3
DA:83,3
DA:84,3
DA:85,3
DA:86,3
DA:87,3
DA:90,0
DA:91,0
DA:92,0
DA:95,0
DA:96,0
DA:97,0
DA:100,0
DA:101,0
DA:102,0
DA:105,0
DA:106,0
DA:107,0
DA:108,0
DA:109,0
DA:112,0
DA:113,0
DA:114,0
DA:115,0
DA:116,0
DA:122,0
DA:123,0
DA:124,0
DA:125,0
DA:127,0
DA:134,0
DA:135,0
DA:136,0
DA:143,0
DA:144,0
DA:145,0
BRF:0
BRH:0
LF:60
LH:19
end_of_record
SF:/Users/d072013/SAPDevelop/gql_parser/src/ir/symbol_table.rs
FN:12,_RNvMNtNtCs6qJP7SanZgw_10gql_parser2ir12symbol_tableNtB2_7ScopeId3new
FN:118,_RNvMs0_NtNtCs6qJP7SanZgw_10gql_parser2ir12symbol_tableNtB5_6Symbol3new
FN:153,_RNvMs1_NtNtCs6qJP7SanZgw_10gql_parser2ir12symbol_tableNtB5_11SymbolTable10push_scope
FN:201,_RNvMs1_NtNtCs6qJP7SanZgw_10gql_parser2ir12symbol_tableNtB5_11SymbolTable11lookup_from
FN:169,_RNvMs1_NtNtCs6qJP7SanZgw_10gql_parser2ir12symbol_tableNtB5_11SymbolTable13current_scope
FN:143,_RNvMs1_NtNtCs6qJP7SanZgw_10gql_parser2ir12symbol_tableNtB5_11SymbolTable3new
FN:181,_RNvMs1_NtNtCs6qJP7SanZgw_10gql_parser2ir12symbol_tableNtB5_11SymbolTable6define
FN:196,_RNvMs1_NtNtCs6qJP7SanZgw_10gql_parser2ir12symbol_tableNtB5_11SymbolTable6lookup
FN:162,_RNvMs1_NtNtCs6qJP7SanZgw_10gql_parser2ir12symbol_tableNtB5_11SymbolTable9pop_scope
FN:69,_RNvMs_NtNtCs6qJP7SanZgw_10gql_parser2ir12symbol_tableNtB4_5Scope10add_symbol
FN:59,_RNvMs_NtNtCs6qJP7SanZgw_10gql_parser2ir12symbol_tableNtB4_5Scope3new
FN:224,_RNCNCNvMs1_NtNtCs6qJP7SanZgw_10gql_parser2ir12symbol_tableNtB9_11SymbolTable27is_defined_in_current_scope00Bd_
FN:239,_RNCNvMs1_NtNtCs6qJP7SanZgw_10gql_parser2ir12symbol_tableNtB7_11SymbolTable10lookup_all0Bb_
FN:234,_RNCNvMs1_NtNtCs6qJP7SanZgw_10gql_parser2ir12symbol_tableNtB7_11SymbolTable21current_scope_symbols0Bb_
FN:224,_RNCNvMs1_NtNtCs6qJP7SanZgw_10gql_parser2ir12symbol_tableNtB7_11SymbolTable27is_defined_in_current_scope0Bb_
FN:75,_RNCNvMs_NtNtCs6qJP7SanZgw_10gql_parser2ir12symbol_tableNtB6_5Scope10has_symbol0Ba_
FN:17,_RNvMNtNtCs6qJP7SanZgw_10gql_parser2ir12symbol_tableNtB2_7ScopeId8as_usize
FN:238,_RNvMs1_NtNtCs6qJP7SanZgw_10gql_parser2ir12symbol_tableNtB5_11SymbolTable10lookup_all
FN:229,_RNvMs1_NtNtCs6qJP7SanZgw_10gql_parser2ir12symbol_tableNtB5_11SymbolTable21current_scope_symbols
FN:221,_RNvMs1_NtNtCs6qJP7SanZgw_10gql_parser2ir12symbol_tableNtB5_11SymbolTable27is_defined_in_current_scope
FN:174,_RNvMs1_NtNtCs6qJP7SanZgw_10gql_parser2ir12symbol_tableNtB5_11SymbolTable9get_scope
FN:74,_RNvMs_NtNtCs6qJP7SanZgw_10gql_parser2ir12symbol_tableNtB4_5Scope10has_symbol
FN:79,_RNvMs_NtNtCs6qJP7SanZgw_10gql_parser2ir12symbol_tableNtB4_5Scope7symbols
FN:244,_RNvXs2_NtNtCs6qJP7SanZgw_10gql_parser2ir12symbol_tableNtB5_11SymbolTableNtNtCsezyhsC6CBT9_4core7default7Default7default
FN:254,_RNvNtNtNtCs6qJP7SanZgw_10gql_parser2ir12symbol_table5testss_23test_symbol_table_basic
FN:266,_RNvNtNtNtCs6qJP7SanZgw_10gql_parser2ir12symbol_table5testss_24test_symbol_table_scopes
FN:293,_RNvNtNtNtCs6qJP7SanZgw_10gql_parser2ir12symbol_table5testss_27test_symbol_table_shadowing
FN:209,_RNCNvMs1_NtNtCs6qJP7SanZgw_10gql_parser2ir12symbol_tableNtB7_11SymbolTable11lookup_from0Bb_
FN:224,_RNCNCNvMs1_NtNtCs87GxMFlPkU4_10gql_parser2ir12symbol_tableNtB9_11SymbolTable27is_defined_in_current_scope00Bd_
FN:239,_RNCNvMs1_NtNtCs87GxMFlPkU4_10gql_parser2ir12symbol_tableNtB7_11SymbolTable10lookup_all0Bb_
FN:209,_RNCNvMs1_NtNtCs87GxMFlPkU4_10gql_parser2ir12symbol_tableNtB7_11SymbolTable11lookup_from0Bb_
FN:224,_RNCNvMs1_NtNtCs87GxMFlPkU4_10gql_parser2ir12symbol_tableNtB7_11SymbolTable27is_defined_in_current_scope0Bb_
FN:75,_RNCNvMs_NtNtCs87GxMFlPkU4_10gql_parser2ir12symbol_tableNtB6_5Scope10has_symbol0Ba_
FN:12,_RNvMNtNtCs87GxMFlPkU4_10gql_parser2ir12symbol_tableNtB2_7ScopeId3new
FN:17,_RNvMNtNtCs87GxMFlPkU4_10gql_parser2ir12symbol_tableNtB2_7ScopeId8as_usize
FN:118,_RNvMs0_NtNtCs87GxMFlPkU4_10gql_parser2ir12symbol_tableNtB5_6Symbol3new
FN:238,_RNvMs1_NtNtCs87GxMFlPkU4_10gql_parser2ir12symbol_tableNtB5_11SymbolTable10lookup_all
FN:153,_RNvMs1_NtNtCs87GxMFlPkU4_10gql_parser2ir12symbol_tableNtB5_11SymbolTable10push_scope
FN:201,_RNvMs1_NtNtCs87GxMFlPkU4_10gql_parser2ir12symbol_tableNtB5_11SymbolTable11lookup_from
FN:169,_RNvMs1_NtNtCs87GxMFlPkU4_10gql_parser2ir12symbol_tableNtB5_11SymbolTable13current_scope
FN:229,_RNvMs1_NtNtCs87GxMFlPkU4_10gql_parser2ir12symbol_tableNtB5_11SymbolTable21current_scope_symbols
FN:221,_RNvMs1_NtNtCs87GxMFlPkU4_10gql_parser2ir12symbol_tableNtB5_11SymbolTable27is_defined_in_current_scope
FN:143,_RNvMs1_NtNtCs87GxMFlPkU4_10gql_parser2ir12symbol_tableNtB5_11SymbolTable3new
FN:181,_RNvMs1_NtNtCs87GxMFlPkU4_10gql_parser2ir12symbol_tableNtB5_11SymbolTable6define
FN:196,_RNvMs1_NtNtCs87GxMFlPkU4_10gql_parser2ir12symbol_tableNtB5_11SymbolTable6lookup
FN:174,_RNvMs1_NtNtCs87GxMFlPkU4_10gql_parser2ir12symbol_tableNtB5_11SymbolTable9get_scope
FN:162,_RNvMs1_NtNtCs87GxMFlPkU4_10gql_parser2ir12symbol_tableNtB5_11SymbolTable9pop_scope
FN:69,_RNvMs_NtNtCs87GxMFlPkU4_10gql_parser2ir12symbol_tableNtB4_5Scope10add_symbol
FN:74,_RNvMs_NtNtCs87GxMFlPkU4_10gql_parser2ir12symbol_tableNtB4_5Scope10has_symbol
FN:59,_RNvMs_NtNtCs87GxMFlPkU4_10gql_parser2ir12symbol_tableNtB4_5Scope3new
FN:79,_RNvMs_NtNtCs87GxMFlPkU4_10gql_parser2ir12symbol_tableNtB4_5Scope7symbols
FN:244,_RNvXs2_NtNtCs87GxMFlPkU4_10gql_parser2ir12symbol_tableNtB5_11SymbolTableNtNtCsezyhsC6CBT9_4core7default7Default7default
FNDA:5,_RNvMNtNtCs6qJP7SanZgw_10gql_parser2ir12symbol_tableNtB2_7ScopeId3new
FNDA:10,_RNvMs0_NtNtCs6qJP7SanZgw_10gql_parser2ir12symbol_tableNtB5_6Symbol3new
FNDA:7,_RNvMs1_NtNtCs6qJP7SanZgw_10gql_parser2ir12symbol_tableNtB5_11SymbolTable10push_scope
FNDA:17,_RNvMs1_NtNtCs6qJP7SanZgw_10gql_parser2ir12symbol_tableNtB5_11SymbolTable11lookup_from
FNDA:5,_RNvMs1_NtNtCs6qJP7SanZgw_10gql_parser2ir12symbol_tableNtB5_11SymbolTable13current_scope
FNDA:8,_RNvMs1_NtNtCs6qJP7SanZgw_10gql_parser2ir12symbol_tableNtB5_11SymbolTable3new
FNDA:10,_RNvMs1_NtNtCs6qJP7SanZgw_10gql_parser2ir12symbol_tableNtB5_11SymbolTable6define
FNDA:12,_RNvMs1_NtNtCs6qJP7SanZgw_10gql_parser2ir12symbol_tableNtB5_11SymbolTable6lookup
FNDA:6,_RNvMs1_NtNtCs6qJP7SanZgw_10gql_parser2ir12symbol_tableNtB5_11SymbolTable9pop_scope
FNDA:10,_RNvMs_NtNtCs6qJP7SanZgw_10gql_parser2ir12symbol_tableNtB4_5Scope10add_symbol
FNDA:15,_RNvMs_NtNtCs6qJP7SanZgw_10gql_parser2ir12symbol_tableNtB4_5Scope3new
FNDA:0,_RNCNCNvMs1_NtNtCs6qJP7SanZgw_10gql_parser2ir12symbol_tableNtB9_11SymbolTable27is_defined_in_current_scope00Bd_
FNDA:0,_RNCNvMs1_NtNtCs6qJP7SanZgw_10gql_parser2ir12symbol_tableNtB7_11SymbolTable10lookup_all0Bb_
FNDA:0,_RNCNvMs1_NtNtCs6qJP7SanZgw_10gql_parser2ir12symbol_tableNtB7_11SymbolTable21current_scope_symbols0Bb_
FNDA:0,_RNCNvMs1_NtNtCs6qJP7SanZgw_10gql_parser2ir12symbol_tableNtB7_11SymbolTable27is_defined_in_current_scope0Bb_
FNDA:0,_RNCNvMs_NtNtCs6qJP7SanZgw_10gql_parser2ir12symbol_tableNtB6_5Scope10has_symbol0Ba_
FNDA:0,_RNvMNtNtCs6qJP7SanZgw_10gql_parser2ir12symbol_tableNtB2_7ScopeId8as_usize
FNDA:0,_RNvMs1_NtNtCs6qJP7SanZgw_10gql_parser2ir12symbol_tableNtB5_11SymbolTable10lookup_all
FNDA:0,_RNvMs1_NtNtCs6qJP7SanZgw_10gql_parser2ir12symbol_tableNtB5_11SymbolTable21current_scope_symbols
FNDA:0,_RNvMs1_NtNtCs6qJP7SanZgw_10gql_parser2ir12symbol_tableNtB5_11SymbolTable27is_defined_in_current_scope
FNDA:0,_RNvMs1_NtNtCs6qJP7SanZgw_10gql_parser2ir12symbol_tableNtB5_11SymbolTable9get_scope
FNDA:0,_RNvMs_NtNtCs6qJP7SanZgw_10gql_parser2ir12symbol_tableNtB4_5Scope10has_symbol
FNDA:0,_RNvMs_NtNtCs6qJP7SanZgw_10gql_parser2ir12symbol_tableNtB4_5Scope7symbols
FNDA:0,_RNvXs2_NtNtCs6qJP7SanZgw_10gql_parser2ir12symbol_tableNtB5_11SymbolTableNtNtCsezyhsC6CBT9_4core7default7Default7default
FNDA:1,_RNvNtNtNtCs6qJP7SanZgw_10gql_parser2ir12symbol_table5testss_23test_symbol_table_basic
FNDA:1,_RNvNtNtNtCs6qJP7SanZgw_10gql_parser2ir12symbol_table5testss_24test_symbol_table_scopes
FNDA:1,_RNvNtNtNtCs6qJP7SanZgw_10gql_parser2ir12symbol_table5testss_27test_symbol_table_shadowing
FNDA:10,_RNCNvMs1_NtNtCs6qJP7SanZgw_10gql_parser2ir12symbol_tableNtB7_11SymbolTable11lookup_from0Bb_
FNDA:0,_RNCNCNvMs1_NtNtCs87GxMFlPkU4_10gql_parser2ir12symbol_tableNtB9_11SymbolTable27is_defined_in_current_scope00Bd_
FNDA:0,_RNCNvMs1_NtNtCs87GxMFlPkU4_10gql_parser2ir12symbol_tableNtB7_11SymbolTable10lookup_all0Bb_
FNDA:0,_RNCNvMs1_NtNtCs87GxMFlPkU4_10gql_parser2ir12symbol_tableNtB7_11SymbolTable11lookup_from0Bb_
FNDA:0,_RNCNvMs1_NtNtCs87GxMFlPkU4_10gql_parser2ir12symbol_tableNtB7_11SymbolTable27is_defined_in_current_scope0Bb_
FNDA:0,_RNCNvMs_NtNtCs87GxMFlPkU4_10gql_parser2ir12symbol_tableNtB6_5Scope10has_symbol0Ba_
FNDA:0,_RNvMNtNtCs87GxMFlPkU4_10gql_parser2ir12symbol_tableNtB2_7ScopeId3new
FNDA:0,_RNvMNtNtCs87GxMFlPkU4_10gql_parser2ir12symbol_tableNtB2_7ScopeId8as_usize
FNDA:0,_RNvMs0_NtNtCs87GxMFlPkU4_10gql_parser2ir12symbol_tableNtB5_6Symbol3new
FNDA:0,_RNvMs1_NtNtCs87GxMFlPkU4_10gql_parser2ir12symbol_tableNtB5_11SymbolTable10lookup_all
FNDA:0,_RNvMs1_NtNtCs87GxMFlPkU4_10gql_parser2ir12symbol_tableNtB5_11SymbolTable10push_scope
FNDA:0,_RNvMs1_NtNtCs87GxMFlPkU4_10gql_parser2ir12symbol_tableNtB5_11SymbolTable11lookup_from
FNDA:0,_RNvMs1_NtNtCs87GxMFlPkU4_10gql_parser2ir12symbol_tableNtB5_11SymbolTable13current_scope
FNDA:0,_RNvMs1_NtNtCs87GxMFlPkU4_10gql_parser2ir12symbol_tableNtB5_11SymbolTable21current_scope_symbols
FNDA:0,_RNvMs1_NtNtCs87GxMFlPkU4_10gql_parser2ir12symbol_tableNtB5_11SymbolTable27is_defined_in_current_scope
FNDA:0,_RNvMs1_NtNtCs87GxMFlPkU4_10gql_parser2ir12symbol_tableNtB5_11SymbolTable3new
FNDA:0,_RNvMs1_NtNtCs87GxMFlPkU4_10gql_parser2ir12symbol_tableNtB5_11SymbolTable6define
FNDA:0,_RNvMs1_NtNtCs87GxMFlPkU4_10gql_parser2ir12symbol_tableNtB5_11SymbolTable6lookup
FNDA:0,_RNvMs1_NtNtCs87GxMFlPkU4_10gql_parser2ir12symbol_tableNtB5_11SymbolTable9get_scope
FNDA:0,_RNvMs1_NtNtCs87GxMFlPkU4_10gql_parser2ir12symbol_tableNtB5_11SymbolTable9pop_scope
FNDA:0,_RNvMs_NtNtCs87GxMFlPkU4_10gql_parser2ir12symbol_tableNtB4_5Scope10add_symbol
FNDA:0,_RNvMs_NtNtCs87GxMFlPkU4_10gql_parser2ir12symbol_tableNtB4_5Scope10has_symbol
FNDA:0,_RNvMs_NtNtCs87GxMFlPkU4_10gql_parser2ir12symbol_tableNtB4_5Scope3new
FNDA:0,_RNvMs_NtNtCs87GxMFlPkU4_10gql_parser2ir12symbol_tableNtB4_5Scope7symbols
FNDA:0,_RNvXs2_NtNtCs87GxMFlPkU4_10gql_parser2ir12symbol_tableNtB5_11SymbolTableNtNtCsezyhsC6CBT9_4core7default7Default7default
FNF:28
FNH:15
DA:12,5
DA:13,5
DA:14,5
DA:17,0
DA:18,0
DA:19,0
DA:59,15
DA:60,15
DA:61,15
DA:62,15
DA:63,15
DA:64,15
DA:65,15
DA:66,15
DA:69,10
DA:70,10
DA:71,10
DA:74,0
DA:75,0
DA:76,0
DA:79,0
DA:80,0
DA:81,0
DA:118,10
DA:119,10
DA:120,10
DA:121,10
DA:122,10
DA:123,10
DA:124,10
DA:125,10
DA:143,8
DA:144,8
DA:145,8
DA:146,8
DA:147,8
DA:148,8
DA:149,8
DA:150,8
DA:153,7
DA:154,7
DA:155,7
DA:156,7
DA:157,7
DA:158,7
DA:159,7
DA:162,6
DA:163,6
DA:164,6
DA:165,6
DA:166,6
DA:169,5
DA:170,5
DA:171,5
DA:174,0
DA:175,0
DA:176,0
DA:181,10
DA:182,10
DA:185,10
DA:188,10
DA:189,10
DA:192,10
DA:193,10
DA:196,12
DA:197,12
DA:198,12
DA:201,17
DA:203,17
DA:206,8
DA:207,10
DA:209,10
DA:210,7
DA:211,2
DA:214,2
DA:217,1
DA:218,17
DA:221,0
DA:222,0
DA:223,0
DA:224,0
DA:225,0
DA:226,0
DA:229,0
DA:230,0
DA:231,0
DA:232,0
DA:233,0
DA:234,0
DA:235,0
DA:238,0
DA:239,0
DA:240,0
DA:244,0
DA:245,0
DA:246,0
DA:254,1
DA:255,1
DA:258,1
DA:261,1
DA:262,1
DA:263,1
DA:266,1
DA:267,1
DA:270,1
DA:273,1
DA:276,1
DA:279,1
DA:280,1
DA:283,1
DA:286,1
DA:289,1
DA:290,1
DA:293,1
DA:294,1
DA:297,1
DA:300,1
DA:303,1
DA:306,1
DA:307,1
DA:308,1
BRF:0
BRH:0
LF:127
LH:91
end_of_record
SF:/Users/d072013/SAPDevelop/gql_parser/src/ir/type_table.rs
FN:265,_RNvMs0_NtNtCs6qJP7SanZgw_10gql_parser2ir10type_tableNtB5_9TypeTable13alloc_expr_id
FN:292,_RNvMs0_NtNtCs6qJP7SanZgw_10gql_parser2ir10type_tableNtB5_9TypeTable14add_constraint
FN:300,_RNvMs0_NtNtCs6qJP7SanZgw_10gql_parser2ir10type_tableNtB5_9TypeTable15get_constraints
FN:282,_RNvMs0_NtNtCs6qJP7SanZgw_10gql_parser2ir10type_tableNtB5_9TypeTable16set_type_by_span
FN:305,_RNvMs0_NtNtCs6qJP7SanZgw_10gql_parser2ir10type_tableNtB5_9TypeTable21satisfies_constraints
FN:255,_RNvMs0_NtNtCs6qJP7SanZgw_10gql_parser2ir10type_tableNtB5_9TypeTable3new
FN:277,_RNvMs0_NtNtCs6qJP7SanZgw_10gql_parser2ir10type_tableNtB5_9TypeTable8get_type
FN:272,_RNvMs0_NtNtCs6qJP7SanZgw_10gql_parser2ir10type_tableNtB5_9TypeTable8set_type
FN:95,_RNvMs_NtNtCs6qJP7SanZgw_10gql_parser2ir10type_tableNtB4_4Type10is_boolean
FN:75,_RNvMs_NtNtCs6qJP7SanZgw_10gql_parser2ir10type_tableNtB4_4Type10is_numeric
FN:80,_RNvMs_NtNtCs6qJP7SanZgw_10gql_parser2ir10type_tableNtB4_4Type13is_comparable
FN:130,_RNvMs_NtNtCs6qJP7SanZgw_10gql_parser2ir10type_tableNtB4_4Type18is_compatible_with
FN:110,_RNvMs_NtNtCs6qJP7SanZgw_10gql_parser2ir10type_tableNtB4_4Type7is_edge
FN:120,_RNvMs_NtNtCs6qJP7SanZgw_10gql_parser2ir10type_tableNtB4_4Type7is_list
FN:105,_RNvMs_NtNtCs6qJP7SanZgw_10gql_parser2ir10type_tableNtB4_4Type7is_node
FN:100,_RNvMs_NtNtCs6qJP7SanZgw_10gql_parser2ir10type_tableNtB4_4Type9is_string
FN:351,_RNvNtNtNtCs6qJP7SanZgw_10gql_parser2ir10type_table5testss_15test_type_table
FN:361,_RNvNtNtNtCs6qJP7SanZgw_10gql_parser2ir10type_table5testss_21test_type_constraints
FN:341,_RNvNtNtNtCs6qJP7SanZgw_10gql_parser2ir10type_table5testss_23test_type_compatibility
FN:192,_RNCNvMs_NtNtCs6qJP7SanZgw_10gql_parser2ir10type_tableNtB6_4Type4name0Ba_
FN:197,_RNCNvMs_NtNtCs6qJP7SanZgw_10gql_parser2ir10type_tableNtB6_4Type4names_0Ba_
FN:11,_RNvMNtNtCs6qJP7SanZgw_10gql_parser2ir10type_tableNtB2_6ExprId3new
FN:16,_RNvMNtNtCs6qJP7SanZgw_10gql_parser2ir10type_tableNtB2_6ExprId8as_usize
FN:287,_RNvMs0_NtNtCs6qJP7SanZgw_10gql_parser2ir10type_tableNtB5_9TypeTable16get_type_by_span
FN:173,_RNvMs_NtNtCs6qJP7SanZgw_10gql_parser2ir10type_tableNtB4_4Type4name
FN:125,_RNvMs_NtNtCs6qJP7SanZgw_10gql_parser2ir10type_tableNtB4_4Type7is_null
FN:115,_RNvMs_NtNtCs6qJP7SanZgw_10gql_parser2ir10type_tableNtB4_4Type7is_path
FN:331,_RNvXs1_NtNtCs6qJP7SanZgw_10gql_parser2ir10type_tableNtB5_9TypeTableNtNtCsezyhsC6CBT9_4core7default7Default7default
FN:301,_RNCNvMs0_NtNtCs6qJP7SanZgw_10gql_parser2ir10type_tableNtB7_9TypeTable15get_constraints0Bb_
FN:316,_RNCNvMs0_NtNtCs6qJP7SanZgw_10gql_parser2ir10type_tableNtB7_9TypeTable21satisfies_constraints0Bb_
FN:156,_RNCNvMs_NtNtCs6qJP7SanZgw_10gql_parser2ir10type_tableNtB6_4Type18is_compatible_with0Ba_
FN:159,_RNCNvMs_NtNtCs6qJP7SanZgw_10gql_parser2ir10type_tableNtB6_4Type18is_compatible_withs_0Ba_
FN:11,_RNvMNtNtCs87GxMFlPkU4_10gql_parser2ir10type_tableNtB2_6ExprId3new
FN:16,_RNvMNtNtCs87GxMFlPkU4_10gql_parser2ir10type_tableNtB2_6ExprId8as_usize
FN:265,_RNvMs0_NtNtCs87GxMFlPkU4_10gql_parser2ir10type_tableNtB5_9TypeTable13alloc_expr_id
FN:292,_RNvMs0_NtNtCs87GxMFlPkU4_10gql_parser2ir10type_tableNtB5_9TypeTable14add_constraint
FN:300,_RNvMs0_NtNtCs87GxMFlPkU4_10gql_parser2ir10type_tableNtB5_9TypeTable15get_constraints
FN:287,_RNvMs0_NtNtCs87GxMFlPkU4_10gql_parser2ir10type_tableNtB5_9TypeTable16get_type_by_span
FN:282,_RNvMs0_NtNtCs87GxMFlPkU4_10gql_parser2ir10type_tableNtB5_9TypeTable16set_type_by_span
FN:305,_RNvMs0_NtNtCs87GxMFlPkU4_10gql_parser2ir10type_tableNtB5_9TypeTable21satisfies_constraints
FN:255,_RNvMs0_NtNtCs87GxMFlPkU4_10gql_parser2ir10type_tableNtB5_9TypeTable3new
FN:277,_RNvMs0_NtNtCs87GxMFlPkU4_10gql_parser2ir10type_tableNtB5_9TypeTable8get_type
FN:272,_RNvMs0_NtNtCs87GxMFlPkU4_10gql_parser2ir10type_tableNtB5_9TypeTable8set_type
FN:95,_RNvMs_NtNtCs87GxMFlPkU4_10gql_parser2ir10type_tableNtB4_4Type10is_boolean
FN:75,_RNvMs_NtNtCs87GxMFlPkU4_10gql_parser2ir10type_tableNtB4_4Type10is_numeric
FN:80,_RNvMs_NtNtCs87GxMFlPkU4_10gql_parser2ir10type_tableNtB4_4Type13is_comparable
FN:130,_RNvMs_NtNtCs87GxMFlPkU4_10gql_parser2ir10type_tableNtB4_4Type18is_compatible_with
FN:173,_RNvMs_NtNtCs87GxMFlPkU4_10gql_parser2ir10type_tableNtB4_4Type4name
FN:110,_RNvMs_NtNtCs87GxMFlPkU4_10gql_parser2ir10type_tableNtB4_4Type7is_edge
FN:120,_RNvMs_NtNtCs87GxMFlPkU4_10gql_parser2ir10type_tableNtB4_4Type7is_list
FN:105,_RNvMs_NtNtCs87GxMFlPkU4_10gql_parser2ir10type_tableNtB4_4Type7is_node
FN:125,_RNvMs_NtNtCs87GxMFlPkU4_10gql_parser2ir10type_tableNtB4_4Type7is_null
FN:115,_RNvMs_NtNtCs87GxMFlPkU4_10gql_parser2ir10type_tableNtB4_4Type7is_path
FN:100,_RNvMs_NtNtCs87GxMFlPkU4_10gql_parser2ir10type_tableNtB4_4Type9is_string
FN:331,_RNvXs1_NtNtCs87GxMFlPkU4_10gql_parser2ir10type_tableNtB5_9TypeTableNtNtCsezyhsC6CBT9_4core7default7Default7default
FN:301,_RNCNvMs0_NtNtCs87GxMFlPkU4_10gql_parser2ir10type_tableNtB7_9TypeTable15get_constraints0Bb_
FN:316,_RNCNvMs0_NtNtCs87GxMFlPkU4_10gql_parser2ir10type_tableNtB7_9TypeTable21satisfies_constraints0Bb_
FN:156,_RNCNvMs_NtNtCs87GxMFlPkU4_10gql_parser2ir10type_tableNtB6_4Type18is_compatible_with0Ba_
FN:159,_RNCNvMs_NtNtCs87GxMFlPkU4_10gql_parser2ir10type_tableNtB6_4Type18is_compatible_withs_0Ba_
FN:192,_RNCNvMs_NtNtCs87GxMFlPkU4_10gql_parser2ir10type_tableNtB6_4Type4name0Ba_
FN:197,_RNCNvMs_NtNtCs87GxMFlPkU4_10gql_parser2ir10type_tableNtB6_4Type4names_0Ba_
FNDA:2,_RNvMs0_NtNtCs6qJP7SanZgw_10gql_parser2ir10type_tableNtB5_9TypeTable13alloc_expr_id
FNDA:1,_RNvMs0_NtNtCs6qJP7SanZgw_10gql_parser2ir10type_tableNtB5_9TypeTable14add_constraint
FNDA:1,_RNvMs0_NtNtCs6qJP7SanZgw_10gql_parser2ir10type_tableNtB5_9TypeTable15get_constraints
FNDA:0,_RNvMs0_NtNtCs6qJP7SanZgw_10gql_parser2ir10type_tableNtB5_9TypeTable16set_type_by_span
FNDA:1,_RNvMs0_NtNtCs6qJP7SanZgw_10gql_parser2ir10type_tableNtB5_9TypeTable21satisfies_constraints
FNDA:7,_RNvMs0_NtNtCs6qJP7SanZgw_10gql_parser2ir10type_tableNtB5_9TypeTable3new
FNDA:2,_RNvMs0_NtNtCs6qJP7SanZgw_10gql_parser2ir10type_tableNtB5_9TypeTable8get_type
FNDA:2,_RNvMs0_NtNtCs6qJP7SanZgw_10gql_parser2ir10type_tableNtB5_9TypeTable8set_type
FNDA:0,_RNvMs_NtNtCs6qJP7SanZgw_10gql_parser2ir10type_tableNtB4_4Type10is_boolean
FNDA:1,_RNvMs_NtNtCs6qJP7SanZgw_10gql_parser2ir10type_tableNtB4_4Type10is_numeric
FNDA:0,_RNvMs_NtNtCs6qJP7SanZgw_10gql_parser2ir10type_tableNtB4_4Type13is_comparable
FNDA:6,_RNvMs_NtNtCs6qJP7SanZgw_10gql_parser2ir10type_tableNtB4_4Type18is_compatible_with
FNDA:0,_RNvMs_NtNtCs6qJP7SanZgw_10gql_parser2ir10type_tableNtB4_4Type7is_edge
FNDA:0,_RNvMs_NtNtCs6qJP7SanZgw_10gql_parser2ir10type_tableNtB4_4Type7is_list
FNDA:0,_RNvMs_NtNtCs6qJP7SanZgw_10gql_parser2ir10type_tableNtB4_4Type7is_node
FNDA:0,_RNvMs_NtNtCs6qJP7SanZgw_10gql_parser2ir10type_tableNtB4_4Type9is_string
FNDA:1,_RNvNtNtNtCs6qJP7SanZgw_10gql_parser2ir10type_table5testss_15test_type_table
FNDA:1,_RNvNtNtNtCs6qJP7SanZgw_10gql_parser2ir10type_table5testss_21test_type_constraints
FNDA:1,_RNvNtNtNtCs6qJP7SanZgw_10gql_parser2ir10type_table5testss_23test_type_compatibility
FNDA:0,_RNCNvMs_NtNtCs6qJP7SanZgw_10gql_parser2ir10type_tableNtB6_4Type4name0Ba_
FNDA:0,_RNCNvMs_NtNtCs6qJP7SanZgw_10gql_parser2ir10type_tableNtB6_4Type4names_0Ba_
FNDA:0,_RNvMNtNtCs6qJP7SanZgw_10gql_parser2ir10type_tableNtB2_6ExprId3new
FNDA:0,_RNvMNtNtCs6qJP7SanZgw_10gql_parser2ir10type_tableNtB2_6ExprId8as_usize
FNDA:0,_RNvMs0_NtNtCs6qJP7SanZgw_10gql_parser2ir10type_tableNtB5_9TypeTable16get_type_by_span
FNDA:0,_RNvMs_NtNtCs6qJP7SanZgw_10gql_parser2ir10type_tableNtB4_4Type4name
FNDA:0,_RNvMs_NtNtCs6qJP7SanZgw_10gql_parser2ir10type_tableNtB4_4Type7is_null
FNDA:0,_RNvMs_NtNtCs6qJP7SanZgw_10gql_parser2ir10type_tableNtB4_4Type7is_path
FNDA:0,_RNvXs1_NtNtCs6qJP7SanZgw_10gql_parser2ir10type_tableNtB5_9TypeTableNtNtCsezyhsC6CBT9_4core7default7Default7default
FNDA:1,_RNCNvMs0_NtNtCs6qJP7SanZgw_10gql_parser2ir10type_tableNtB7_9TypeTable15get_constraints0Bb_
FNDA:1,_RNCNvMs0_NtNtCs6qJP7SanZgw_10gql_parser2ir10type_tableNtB7_9TypeTable21satisfies_constraints0Bb_
FNDA:0,_RNCNvMs_NtNtCs6qJP7SanZgw_10gql_parser2ir10type_tableNtB6_4Type18is_compatible_with0Ba_
FNDA:0,_RNCNvMs_NtNtCs6qJP7SanZgw_10gql_parser2ir10type_tableNtB6_4Type18is_compatible_withs_0Ba_
FNDA:0,_RNvMNtNtCs87GxMFlPkU4_10gql_parser2ir10type_tableNtB2_6ExprId3new
FNDA:0,_RNvMNtNtCs87GxMFlPkU4_10gql_parser2ir10type_tableNtB2_6ExprId8as_usize
FNDA:0,_RNvMs0_NtNtCs87GxMFlPkU4_10gql_parser2ir10type_tableNtB5_9TypeTable13alloc_expr_id
FNDA:0,_RNvMs0_NtNtCs87GxMFlPkU4_10gql_parser2ir10type_tableNtB5_9TypeTable14add_constraint
FNDA:0,_RNvMs0_NtNtCs87GxMFlPkU4_10gql_parser2ir10type_tableNtB5_9TypeTable15get_constraints
FNDA:0,_RNvMs0_NtNtCs87GxMFlPkU4_10gql_parser2ir10type_tableNtB5_9TypeTable16get_type_by_span
FNDA:0,_RNvMs0_NtNtCs87GxMFlPkU4_10gql_parser2ir10type_tableNtB5_9TypeTable16set_type_by_span
FNDA:0,_RNvMs0_NtNtCs87GxMFlPkU4_10gql_parser2ir10type_tableNtB5_9TypeTable21satisfies_constraints
FNDA:0,_RNvMs0_NtNtCs87GxMFlPkU4_10gql_parser2ir10type_tableNtB5_9TypeTable3new
FNDA:0,_RNvMs0_NtNtCs87GxMFlPkU4_10gql_parser2ir10type_tableNtB5_9TypeTable8get_type
FNDA:0,_RNvMs0_NtNtCs87GxMFlPkU4_10gql_parser2ir10type_tableNtB5_9TypeTable8set_type
FNDA:0,_RNvMs_NtNtCs87GxMFlPkU4_10gql_parser2ir10type_tableNtB4_4Type10is_boolean
FNDA:0,_RNvMs_NtNtCs87GxMFlPkU4_10gql_parser2ir10type_tableNtB4_4Type10is_numeric
FNDA:0,_RNvMs_NtNtCs87GxMFlPkU4_10gql_parser2ir10type_tableNtB4_4Type13is_comparable
FNDA:0,_RNvMs_NtNtCs87GxMFlPkU4_10gql_parser2ir10type_tableNtB4_4Type18is_compatible_with
FNDA:0,_RNvMs_NtNtCs87GxMFlPkU4_10gql_parser2ir10type_tableNtB4_4Type4name
FNDA:0,_RNvMs_NtNtCs87GxMFlPkU4_10gql_parser2ir10type_tableNtB4_4Type7is_edge
FNDA:0,_RNvMs_NtNtCs87GxMFlPkU4_10gql_parser2ir10type_tableNtB4_4Type7is_list
FNDA:0,_RNvMs_NtNtCs87GxMFlPkU4_10gql_parser2ir10type_tableNtB4_4Type7is_node
FNDA:0,_RNvMs_NtNtCs87GxMFlPkU4_10gql_parser2ir10type_tableNtB4_4Type7is_null
FNDA:0,_RNvMs_NtNtCs87GxMFlPkU4_10gql_parser2ir10type_tableNtB4_4Type7is_path
FNDA:0,_RNvMs_NtNtCs87GxMFlPkU4_10gql_parser2ir10type_tableNtB4_4Type9is_string
FNDA:0,_RNvXs1_NtNtCs87GxMFlPkU4_10gql_parser2ir10type_tableNtB5_9TypeTableNtNtCsezyhsC6CBT9_4core7default7Default7default
FNDA:0,_RNCNvMs0_NtNtCs87GxMFlPkU4_10gql_parser2ir10type_tableNtB7_9TypeTable15get_constraints0Bb_
FNDA:0,_RNCNvMs0_NtNtCs87GxMFlPkU4_10gql_parser2ir10type_tableNtB7_9TypeTable21satisfies_constraints0Bb_
FNDA:0,_RNCNvMs_NtNtCs87GxMFlPkU4_10gql_parser2ir10type_tableNtB6_4Type18is_compatible_with0Ba_
FNDA:0,_RNCNvMs_NtNtCs87GxMFlPkU4_10gql_parser2ir10type_tableNtB6_4Type18is_compatible_withs_0Ba_
FNDA:0,_RNCNvMs_NtNtCs87GxMFlPkU4_10gql_parser2ir10type_tableNtB6_4Type4name0Ba_
FNDA:0,_RNCNvMs_NtNtCs87GxMFlPkU4_10gql_parser2ir10type_tableNtB6_4Type4names_0Ba_
FNF:32
FNH:14
DA:11,0
DA:12,0
DA:13,0
DA:16,0
DA:17,0
DA:18,0
DA:75,1
DA:76,1
DA:77,1
DA:80,0
DA:81,0
DA:82,0
DA:92,0
DA:95,0
DA:96,0
DA:97,0
DA:100,0
DA:101,0
DA:102,0
DA:105,0
DA:106,0
DA:107,0
DA:110,0
DA:111,0
DA:112,0
DA:115,0
DA:116,0
DA:117,0
DA:120,0
DA:121,0
DA:122,0
DA:125,0
DA:126,0
DA:127,0
DA:130,6
DA:132,6
DA:133,1
DA:134,5
DA:137,5
DA:138,2
DA:139,3
DA:142,3
DA:143,1
DA:144,2
DA:145,2
DA:146,1
DA:147,1
DA:150,1
DA:151,1
DA:152,0
DA:155,0
DA:156,0
DA:157,0
DA:158,0
DA:159,0
DA:160,0
DA:163,0
DA:164,0
DA:165,0
DA:166,0
DA:169,0
DA:170,6
DA:173,0
DA:174,0
DA:175,0
DA:176,0
DA:177,0
DA:178,0
DA:179,0
DA:180,0
DA:181,0
DA:182,0
DA:183,0
DA:184,0
DA:185,0
DA:186,0
DA:187,0
DA:188,0
DA:189,0
DA:190,0
DA:191,0
DA:192,0
DA:193,0
DA:194,0
DA:196,0
DA:197,0
DA:198,0
DA:200,0
DA:201,0
DA:203,0
DA:255,7
DA:256,7
DA:257,7
DA:258,7
DA:259,7
DA:260,7
DA:261,7
DA:262,7
DA:265,2
DA:266,2
DA:267,2
DA:268,2
DA:269,2
DA:272,2
DA:273,2
DA:274,2
DA:277,2
DA:278,2
DA:279,2
DA:282,0
DA:283,0
DA:284,0
DA:287,0
DA:288,0
DA:289,0
DA:292,1
DA:293,1
DA:294,1
DA:295,1
DA:296,1
DA:297,1
DA:300,1
DA:301,1
DA:302,1
DA:305,1
DA:306,1
DA:307,1
DA:308,0
DA:311,1
DA:312,1
DA:313,0
DA:316,1
DA:317,1
DA:318,0
DA:319,0
DA:320,0
DA:321,0
DA:322,0
DA:323,0
DA:324,0
DA:325,0
DA:326,1
DA:327,1
DA:331,0
DA:332,0
DA:333,0
DA:341,1
DA:342,1
DA:343,1
DA:344,1
DA:345,1
DA:346,1
DA:347,1
DA:348,1
DA:351,1
DA:352,1
DA:354,1
DA:355,1
DA:357,1
DA:358,1
DA:361,1
DA:362,1
DA:364,1
DA:365,1
DA:366,1
DA:368,1
DA:369,1
BRF:0
BRH:0
LF:173
LH:79
end_of_record
SF:/Users/d072013/SAPDevelop/gql_parser/src/lexer/keywords.rs
FN:708,_RNCNvNtNtCs6qJP7SanZgw_10gql_parser5lexer8keywords14lookup_keyword0B7_
FN:788,_RNvNtNtNtCs6qJP7SanZgw_10gql_parser5lexer8keywords5testss_14graph_keywords
FN:796,_RNvNtNtNtCs6qJP7SanZgw_10gql_parser5lexer8keywords5testss_15detach_keywords
FN:771,_RNvNtNtNtCs6qJP7SanZgw_10gql_parser5lexer8keywords5testss_16is_keyword_check
FN:780,_RNvNtNtNtCs6qJP7SanZgw_10gql_parser5lexer8keywords5testss_17temporal_keywords
FN:764,_RNvNtNtNtCs6qJP7SanZgw_10gql_parser5lexer8keywords5testss_18lookup_non_keyword
FN:750,_RNvNtNtNtCs6qJP7SanZgw_10gql_parser5lexer8keywords5testss_19lookup_null_literal
FN:757,_RNvNtNtNtCs6qJP7SanZgw_10gql_parser5lexer8keywords5testss_19lookup_type_keyword
FN:958,_RNvNtNtNtCs6qJP7SanZgw_10gql_parser5lexer8keywords5testss_20classify_non_keyword
FN:1015,_RNvNtNtNtCs6qJP7SanZgw_10gql_parser5lexer8keywords5testss_22is_reserved_word_check
FN:742,_RNvNtNtNtCs6qJP7SanZgw_10gql_parser5lexer8keywords5testss_22lookup_boolean_literal
FN:734,_RNvNtNtNtCs6qJP7SanZgw_10gql_parser5lexer8keywords5testss_22lookup_logical_keyword
FN:804,_RNvNtNtNtCs6qJP7SanZgw_10gql_parser5lexer8keywords5testss_23classify_reserved_words
FN:726,_RNvNtNtNtCs6qJP7SanZgw_10gql_parser5lexer8keywords5testss_23lookup_reserved_keyword
FN:966,_RNvNtNtNtCs6qJP7SanZgw_10gql_parser5lexer8keywords5testss_25classify_case_insensitive
FN:1057,_RNvNtNtNtCs6qJP7SanZgw_10gql_parser5lexer8keywords5testss_26is_non_reserved_word_check
FN:1038,_RNvNtNtNtCs6qJP7SanZgw_10gql_parser5lexer8keywords5testss_26is_pre_reserved_word_check
FN:895,_RNvNtNtNtCs6qJP7SanZgw_10gql_parser5lexer8keywords5testss_27classify_non_reserved_words
FN:867,_RNvNtNtNtCs6qJP7SanZgw_10gql_parser5lexer8keywords5testss_27classify_pre_reserved_words
FN:1078,_RNvNtNtNtCs6qJP7SanZgw_10gql_parser5lexer8keywords5testss_30comprehensive_keyword_coverage
FN:717,_RNvNtNtCs6qJP7SanZgw_10gql_parser5lexer8keywords10is_keyword
FN:425,_RNvNtNtCs6qJP7SanZgw_10gql_parser5lexer8keywords14lookup_keyword
FN:375,_RNvNtNtCs6qJP7SanZgw_10gql_parser5lexer8keywords16classify_keyword
FN:357,_RNvNtNtCs6qJP7SanZgw_10gql_parser5lexer8keywords16contains_keyword
FN:401,_RNvNtNtCs6qJP7SanZgw_10gql_parser5lexer8keywords16is_reserved_word
FN:417,_RNvNtNtCs6qJP7SanZgw_10gql_parser5lexer8keywords20is_non_reserved_word
FN:409,_RNvNtNtCs6qJP7SanZgw_10gql_parser5lexer8keywords20is_pre_reserved_word
FN:717,_RNvNtNtCs87GxMFlPkU4_10gql_parser5lexer8keywords10is_keyword
FN:425,_RNvNtNtCs87GxMFlPkU4_10gql_parser5lexer8keywords14lookup_keyword
FN:375,_RNvNtNtCs87GxMFlPkU4_10gql_parser5lexer8keywords16classify_keyword
FN:357,_RNvNtNtCs87GxMFlPkU4_10gql_parser5lexer8keywords16contains_keyword
FN:401,_RNvNtNtCs87GxMFlPkU4_10gql_parser5lexer8keywords16is_reserved_word
FN:417,_RNvNtNtCs87GxMFlPkU4_10gql_parser5lexer8keywords20is_non_reserved_word
FN:409,_RNvNtNtCs87GxMFlPkU4_10gql_parser5lexer8keywords20is_pre_reserved_word
FN:708,_RNCNvNtNtCs87GxMFlPkU4_10gql_parser5lexer8keywords14lookup_keyword0B7_
FNDA:13,_RNCNvNtNtCs6qJP7SanZgw_10gql_parser5lexer8keywords14lookup_keyword0B7_
FNDA:1,_RNvNtNtNtCs6qJP7SanZgw_10gql_parser5lexer8keywords5testss_14graph_keywords
FNDA:1,_RNvNtNtNtCs6qJP7SanZgw_10gql_parser5lexer8keywords5testss_15detach_keywords
FNDA:1,_RNvNtNtNtCs6qJP7SanZgw_10gql_parser5lexer8keywords5testss_16is_keyword_check
FNDA:1,_RNvNtNtNtCs6qJP7SanZgw_10gql_parser5lexer8keywords5testss_17temporal_keywords
FNDA:1,_RNvNtNtNtCs6qJP7SanZgw_10gql_parser5lexer8keywords5testss_18lookup_non_keyword
FNDA:1,_RNvNtNtNtCs6qJP7SanZgw_10gql_parser5lexer8keywords5testss_19lookup_null_literal
FNDA:1,_RNvNtNtNtCs6qJP7SanZgw_10gql_parser5lexer8keywords5testss_19lookup_type_keyword
FNDA:1,_RNvNtNtNtCs6qJP7SanZgw_10gql_parser5lexer8keywords5testss_20classify_non_keyword
FNDA:1,_RNvNtNtNtCs6qJP7SanZgw_10gql_parser5lexer8keywords5testss_22is_reserved_word_check
FNDA:1,_RNvNtNtNtCs6qJP7SanZgw_10gql_parser5lexer8keywords5testss_22lookup_boolean_literal
FNDA:1,_RNvNtNtNtCs6qJP7SanZgw_10gql_parser5lexer8keywords5testss_22lookup_logical_keyword
FNDA:1,_RNvNtNtNtCs6qJP7SanZgw_10gql_parser5lexer8keywords5testss_23classify_reserved_words
FNDA:1,_RNvNtNtNtCs6qJP7SanZgw_10gql_parser5lexer8keywords5testss_23lookup_reserved_keyword
FNDA:1,_RNvNtNtNtCs6qJP7SanZgw_10gql_parser5lexer8keywords5testss_25classify_case_insensitive
FNDA:1,_RNvNtNtNtCs6qJP7SanZgw_10gql_parser5lexer8keywords5testss_26is_non_reserved_word_check
FNDA:1,_RNvNtNtNtCs6qJP7SanZgw_10gql_parser5lexer8keywords5testss_26is_pre_reserved_word_check
FNDA:1,_RNvNtNtNtCs6qJP7SanZgw_10gql_parser5lexer8keywords5testss_27classify_non_reserved_words
FNDA:1,_RNvNtNtNtCs6qJP7SanZgw_10gql_parser5lexer8keywords5testss_27classify_pre_reserved_words
FNDA:1,_RNvNtNtNtCs6qJP7SanZgw_10gql_parser5lexer8keywords5testss_30comprehensive_keyword_coverage
FNDA:5,_RNvNtNtCs6qJP7SanZgw_10gql_parser5lexer8keywords10is_keyword
FNDA:564,_RNvNtNtCs6qJP7SanZgw_10gql_parser5lexer8keywords14lookup_keyword
FNDA:393,_RNvNtNtCs6qJP7SanZgw_10gql_parser5lexer8keywords16classify_keyword
FNDA:1040,_RNvNtNtCs6qJP7SanZgw_10gql_parser5lexer8keywords16contains_keyword
FNDA:33,_RNvNtNtCs6qJP7SanZgw_10gql_parser5lexer8keywords16is_reserved_word
FNDA:23,_RNvNtNtCs6qJP7SanZgw_10gql_parser5lexer8keywords20is_non_reserved_word
FNDA:14,_RNvNtNtCs6qJP7SanZgw_10gql_parser5lexer8keywords20is_pre_reserved_word
FNDA:0,_RNvNtNtCs87GxMFlPkU4_10gql_parser5lexer8keywords10is_keyword
FNDA:0,_RNvNtNtCs87GxMFlPkU4_10gql_parser5lexer8keywords14lookup_keyword
FNDA:0,_RNvNtNtCs87GxMFlPkU4_10gql_parser5lexer8keywords16classify_keyword
FNDA:0,_RNvNtNtCs87GxMFlPkU4_10gql_parser5lexer8keywords16contains_keyword
FNDA:0,_RNvNtNtCs87GxMFlPkU4_10gql_parser5lexer8keywords16is_reserved_word
FNDA:0,_RNvNtNtCs87GxMFlPkU4_10gql_parser5lexer8keywords20is_non_reserved_word
FNDA:0,_RNvNtNtCs87GxMFlPkU4_10gql_parser5lexer8keywords20is_pre_reserved_word
FNDA:0,_RNCNvNtNtCs87GxMFlPkU4_10gql_parser5lexer8keywords14lookup_keyword0B7_
FNF:27
FNH:27
DA:357,1040
DA:358,1040
DA:359,1040
DA:375,393
DA:376,393
DA:377,393
DA:378,56
DA:379,337
DA:380,27
DA:381,310
DA:382,38
DA:384,272
DA:386,393
DA:401,33
DA:402,6
DA:403,33
DA:406,33
DA:409,14
DA:410,4
DA:411,14
DA:414,14
DA:417,23
DA:418,4
DA:419,23
DA:422,23
DA:425,564
DA:426,564
DA:427,564
DA:429,564
DA:430,523
DA:431,514
DA:432,475
DA:433,470
DA:434,468
DA:435,463
DA:436,458
DA:437,457
DA:438,457
DA:439,451
DA:440,449
DA:441,448
DA:442,448
DA:443,448
DA:444,448
DA:445,445
DA:446,442
DA:447,441
DA:448,441
DA:449,441
DA:450,437
DA:451,437
DA:452,437
DA:453,434
DA:454,430
DA:455,430
DA:456,430
DA:457,430
DA:458,430
DA:459,430
DA:460,430
DA:461,430
DA:462,429
DA:463,429
DA:464,428
DA:465,428
DA:466,421
DA:467,420
DA:468,419
DA:469,418
DA:470,417
DA:471,416
DA:472,415
DA:473,410
DA:476,408
DA:477,406
DA:478,403
DA:479,399
DA:480,399
DA:481,397
DA:484,397
DA:485,396
DA:486,396
DA:487,396
DA:490,389
DA:491,380
DA:492,379
DA:493,378
DA:494,376
DA:495,376
DA:496,376
DA:497,376
DA:498,376
DA:501,376
DA:502,376
DA:503,376
DA:504,376
DA:505,376
DA:506,376
DA:507,376
DA:510,376
DA:511,376
DA:512,374
DA:513,374
DA:514,374
DA:515,371
DA:516,371
DA:517,371
DA:518,371
DA:519,369
DA:522,369
DA:523,364
DA:524,364
DA:525,361
DA:526,361
DA:527,357
DA:528,357
DA:529,355
DA:530,353
DA:531,352
DA:532,352
DA:535,351
DA:536,344
DA:537,343
DA:538,342
DA:539,341
DA:540,340
DA:541,339
DA:542,337
DA:543,335
DA:544,334
DA:545,334
DA:546,332
DA:547,331
DA:548,330
DA:549,330
DA:550,329
DA:553,329
DA:554,322
DA:555,319
DA:556,317
DA:559,316
DA:560,312
DA:563,310
DA:564,306
DA:567,305
DA:568,305
DA:571,305
DA:572,302
DA:573,302
DA:576,302
DA:577,302
DA:578,302
DA:581,302
DA:582,299
DA:583,298
DA:584,298
DA:585,298
DA:586,298
DA:587,298
DA:588,298
DA:589,298
DA:590,298
DA:591,298
DA:594,298
DA:595,298
DA:596,298
DA:597,298
DA:598,298
DA:599,298
DA:600,298
DA:601,298
DA:602,298
DA:603,298
DA:606,298
DA:607,298
DA:608,298
DA:609,297
DA:610,297
DA:611,297
DA:612,297
DA:613,297
DA:614,297
DA:615,297
DA:616,297
DA:619,297
DA:620,297
DA:621,297
DA:622,296
DA:623,296
DA:624,296
DA:625,296
DA:626,296
DA:627,296
DA:630,296
DA:631,296
DA:632,296
DA:633,296
DA:634,295
DA:637,295
DA:638,289
DA:639,285
DA:640,282
DA:643,282
DA:644,281
DA:647,280
DA:648,280
DA:649,280
DA:652,280
DA:655,280
DA:656,278
DA:657,278
DA:658,278
DA:659,278
DA:660,278
DA:661,278
DA:662,278
DA:663,278
DA:666,278
DA:667,278
DA:668,278
DA:669,278
DA:670,278
DA:671,278
DA:672,278
DA:673,278
DA:674,278
DA:677,278
DA:678,278
DA:679,278
DA:680,278
DA:681,278
DA:682,278
DA:685,278
DA:686,278
DA:687,278
DA:688,278
DA:689,278
DA:692,278
DA:693,278
DA:696,278
DA:697,278
DA:700,278
DA:701,278
DA:704,278
DA:705,277
DA:706,277
DA:708,277
DA:709,8
DA:710,5
DA:711,0
DA:712,13
DA:714,564
DA:717,5
DA:718,5
DA:719,5
DA:726,1
DA:727,1
DA:728,1
DA:729,1
DA:730,1
DA:731,1
DA:734,1
DA:735,1
DA:736,1
DA:737,1
DA:738,1
DA:739,1
DA:742,1
DA:743,1
DA:744,1
DA:745,1
DA:746,1
DA:747,1
DA:750,1
DA:751,1
DA:752,1
DA:753,1
DA:754,1
DA:757,1
DA:758,1
DA:759,1
DA:760,1
DA:761,1
DA:764,1
DA:765,1
DA:766,1
DA:767,1
DA:768,1
DA:771,1
DA:772,1
DA:773,1
DA:774,1
DA:775,1
DA:776,1
DA:777,1
DA:780,1
DA:781,1
DA:782,1
DA:783,1
DA:784,1
DA:785,1
DA:788,1
DA:789,1
DA:790,1
DA:791,1
DA:792,1
DA:793,1
DA:796,1
DA:797,1
DA:798,1
DA:799,1
DA:804,1
DA:806,1
DA:807,1
DA:810,1
DA:811,1
DA:814,1
DA:815,1
DA:818,1
DA:819,1
DA:824,1
DA:825,1
DA:828,1
DA:829,1
DA:832,1
DA:833,1
DA:838,1
DA:839,1
DA:842,1
DA:843,1
DA:846,1
DA:847,1
DA:852,1
DA:853,1
DA:856,1
DA:857,1
DA:860,1
DA:861,1
DA:864,1
DA:867,1
DA:868,1
DA:869,1
DA:872,1
DA:873,1
DA:876,1
DA:877,1
DA:880,1
DA:881,1
DA:884,1
DA:885,1
DA:888,1
DA:889,1
DA:892,1
DA:895,1
DA:897,1
DA:898,1
DA:901,1
DA:902,1
DA:905,1
DA:906,1
DA:909,1
DA:910,1
DA:915,1
DA:916,1
DA:919,1
DA:920,1
DA:923,1
DA:924,1
DA:927,1
DA:928,1
DA:933,1
DA:934,1
DA:937,1
DA:938,1
DA:943,1
DA:944,1
DA:947,1
DA:948,1
DA:951,1
DA:952,1
DA:955,1
DA:958,1
DA:959,1
DA:960,1
DA:961,1
DA:962,1
DA:963,1
DA:966,1
DA:968,1
DA:969,1
DA:972,1
DA:973,1
DA:976,1
DA:977,1
DA:980,1
DA:981,1
DA:986,1
DA:987,1
DA:990,1
DA:991,1
DA:994,1
DA:995,1
DA:1000,1
DA:1001,1
DA:1004,1
DA:1005,1
DA:1008,1
DA:1009,1
DA:1012,1
DA:1015,1
DA:1017,1
DA:1018,1
DA:1019,1
DA:1020,1
DA:1021,1
DA:1022,1
DA:1025,1
DA:1026,1
DA:1029,1
DA:1030,1
DA:1033,1
DA:1034,1
DA:1035,1
DA:1038,1
DA:1040,1
DA:1041,1
DA:1042,1
DA:1043,1
DA:1046,1
DA:1047,1
DA:1050,1
DA:1053,1
DA:1054,1
DA:1057,1
DA:1059,1
DA:1060,1
DA:1061,1
DA:1062,1
DA:1063,1
DA:1064,1
DA:1067,1
DA:1068,1
DA:1071,1
DA:1074,1
DA:1075,1
DA:1078,1
DA:1082,1
DA:1083,7
DA:1084,7
DA:1088,1
DA:1089,6
DA:1090,6
DA:1094,1
DA:1096,1
DA:1097,1
DA:1098,1
DA:1099,1
DA:1100,1
DA:1101,1
DA:1102,1
DA:1104,8
DA:1105,8
DA:1109,1
DA:1111,1
DA:1112,1
DA:1113,1
DA:1114,1
DA:1115,1
DA:1117,6
DA:1118,6
DA:1122,1
DA:1124,1
DA:1125,1
DA:1126,1
DA:1127,1
DA:1128,1
DA:1129,1
DA:1130,1
DA:1131,1
DA:1132,1
DA:1133,1
DA:1134,1
DA:1135,1
DA:1137,13
DA:1138,13
DA:1140,1
BRF:0
BRH:0
LF:487
LH:486
end_of_record
SF:/Users/d072013/SAPDevelop/gql_parser/src/lexer/mod.rs
FN:805,_RNCNvNtNtCs6qJP7SanZgw_10gql_parser5lexer5testss_29malformed_byte_string_non_hex0B7_
FN:953,_RNCNvNtNtCs6qJP7SanZgw_10gql_parser5lexer5testss_30invalid_hex_leading_underscore0B7_
FN:929,_RNCNvNtNtCs6qJP7SanZgw_10gql_parser5lexer5testss_30invalid_numeric_empty_exponent0B7_
FN:888,_RNCNvNtNtCs6qJP7SanZgw_10gql_parser5lexer5testss_30string_invalid_escape_sequence0B7_
FN:959,_RNCNvNtNtCs6qJP7SanZgw_10gql_parser5lexer5testss_31invalid_octal_double_underscore0B7_
FN:712,_RNCNvNtNtCs6qJP7SanZgw_10gql_parser5lexer5testss_31numeric_literals_and_validation0B7_
FN:799,_RNCNvNtNtCs6qJP7SanZgw_10gql_parser5lexer5testss_32malformed_byte_string_odd_length0B7_
FN:862,_RNCNvNtNtCs6qJP7SanZgw_10gql_parser5lexer5testss_32string_unicode_escape_incomplete0B7_
FN:935,_RNCNvNtNtCs6qJP7SanZgw_10gql_parser5lexer5testss_33invalid_numeric_double_underscore0B7_
FN:855,_RNCNvNtNtCs6qJP7SanZgw_10gql_parser5lexer5testss_33string_unicode_escape_invalid_hex0B7_
FN:965,_RNCNvNtNtCs6qJP7SanZgw_10gql_parser5lexer5testss_34invalid_binary_trailing_underscore0B7_
FN:902,_RNCNvNtNtCs6qJP7SanZgw_10gql_parser5lexer5testss_35delimited_identifier_invalid_escape0B7_
FN:941,_RNCNvNtNtCs6qJP7SanZgw_10gql_parser5lexer5testss_35invalid_numeric_trailing_underscore0B7_
FN:1003,_RNCNvNtNtCs6qJP7SanZgw_10gql_parser5lexer5testss_36invalid_exponent_with_sign_no_digits0B7_
FN:869,_RNCNvNtNtCs6qJP7SanZgw_10gql_parser5lexer5testss_39string_unicode_escape_invalid_codepoint0B7_
FN:947,_RNCNvNtNtCs6qJP7SanZgw_10gql_parser5lexer5testss_44invalid_numeric_exponent_trailing_underscore0B7_
FN:616,_RINvNtCs6qJP7SanZgw_10gql_parser5lexer25is_valid_base_digit_groupNCNvB2_20is_valid_digit_group0EB4_
FN:616,_RINvNtCs6qJP7SanZgw_10gql_parser5lexer25is_valid_base_digit_groupNCNvB2_24is_valid_numeric_literals1_0EB4_
FN:616,_RINvNtCs6qJP7SanZgw_10gql_parser5lexer25is_valid_base_digit_groupNCNvB2_24is_valid_numeric_literals3_0EB4_
FN:616,_RINvNtCs6qJP7SanZgw_10gql_parser5lexer25is_valid_base_digit_groupNCNvB2_24is_valid_numeric_literals_0EB4_
FN:293,_RNCNvMNtCs6qJP7SanZgw_10gql_parser5lexerNtB4_5Lexer13map_raw_token0B6_
FN:613,_RNCNvNtCs6qJP7SanZgw_10gql_parser5lexer20is_valid_digit_group0B5_
FN:565,_RNCNvNtCs6qJP7SanZgw_10gql_parser5lexer24is_valid_numeric_literal0B5_
FN:568,_RNCNvNtCs6qJP7SanZgw_10gql_parser5lexer24is_valid_numeric_literals0_0B5_
FN:569,_RNCNvNtCs6qJP7SanZgw_10gql_parser5lexer24is_valid_numeric_literals1_0B5_
FN:571,_RNCNvNtCs6qJP7SanZgw_10gql_parser5lexer24is_valid_numeric_literals2_0B5_
FN:572,_RNCNvNtCs6qJP7SanZgw_10gql_parser5lexer24is_valid_numeric_literals3_0B5_
FN:575,_RNCNvNtCs6qJP7SanZgw_10gql_parser5lexer24is_valid_numeric_literals4_0B5_
FN:566,_RNCNvNtCs6qJP7SanZgw_10gql_parser5lexer24is_valid_numeric_literals_0B5_
FN:487,_RNCNvNtCs6qJP7SanZgw_10gql_parser5lexer26decode_byte_string_literal0B5_
FN:193,_RNvMNtCs6qJP7SanZgw_10gql_parser5lexerNtB2_5Lexer13map_raw_token
FN:150,_RNvMNtCs6qJP7SanZgw_10gql_parser5lexerNtB2_5Lexer3new
FN:155,_RNvMNtCs6qJP7SanZgw_10gql_parser5lexerNtB2_5Lexer8tokenize
FN:555,_RNvNtCs6qJP7SanZgw_10gql_parser5lexer14normalize_span
FN:601,_RNvNtCs6qJP7SanZgw_10gql_parser5lexer17is_valid_mantissa
FN:612,_RNvNtCs6qJP7SanZgw_10gql_parser5lexer20is_valid_digit_group
FN:342,_RNvNtCs6qJP7SanZgw_10gql_parser5lexer21decode_string_literal
FN:564,_RNvNtCs6qJP7SanZgw_10gql_parser5lexer24is_valid_numeric_literal
FN:302,_RNvNtCs6qJP7SanZgw_10gql_parser5lexer24lex_nested_block_comment
FN:462,_RNvNtCs6qJP7SanZgw_10gql_parser5lexer26decode_byte_string_literal
FN:498,_RNvNtCs6qJP7SanZgw_10gql_parser5lexer27decode_delimited_identifier
FN:354,_RNvNtCs6qJP7SanZgw_10gql_parser5lexer28decode_quoted_string_literal
FN:346,_RNvNtCs6qJP7SanZgw_10gql_parser5lexer35decode_double_quoted_string_literal
FN:649,_RNvNtCs6qJP7SanZgw_10gql_parser5lexer8tokenize
FN:32,_RNvNvXs6_NtCs6qJP7SanZgw_10gql_parser5lexerNtB7_8RawTokenNtCs3pTITzNZRtn_5logos5Logos3lex14goto56_ctx55_xB9_
FN:32,_RNvNvXs6_NtCs6qJP7SanZgw_10gql_parser5lexerNtB7_8RawTokenNtCs3pTITzNZRtn_5logos5Logos3lex14goto70_ctx69_xB9_
FN:32,_RNvNvXs6_NtCs6qJP7SanZgw_10gql_parser5lexerNtB7_8RawTokenNtCs3pTITzNZRtn_5logos5Logos3lex14goto84_ctx83_xB9_
FN:32,_RNvNvXs6_NtCs6qJP7SanZgw_10gql_parser5lexerNtB7_8RawTokenNtCs3pTITzNZRtn_5logos5Logos3lex14goto98_ctx97_xB9_
FN:32,_RNvNvXs6_NtCs6qJP7SanZgw_10gql_parser5lexerNtB7_8RawTokenNtCs3pTITzNZRtn_5logos5Logos3lex16goto150_ctx141_xB9_
FN:717,_RNvNtNtCs6qJP7SanZgw_10gql_parser5lexer5testss_10parameters
FN:658,_RNvNtNtCs6qJP7SanZgw_10gql_parser5lexer5testss_11empty_input
FN:987,_RNvNtNtCs6qJP7SanZgw_10gql_parser5lexer5testss_14float_literals
FN:981,_RNvNtNtCs6qJP7SanZgw_10gql_parser5lexer5testss_15all_punctuation
FN:809,_RNvNtNtCs6qJP7SanZgw_10gql_parser5lexer5testss_17byte_string_empty
FN:994,_RNvNtNtCs6qJP7SanZgw_10gql_parser5lexer5testss_18token_slice_method
FN:837,_RNvNtNtCs6qJP7SanZgw_10gql_parser5lexer5testss_20reference_parameters
FN:969,_RNvNtNtCs6qJP7SanZgw_10gql_parser5lexer5testss_24all_multi_char_operators
FN:675,_RNvNtNtCs6qJP7SanZgw_10gql_parser5lexer5testss_24identifiers_and_keywords
FN:666,_RNvNtNtCs6qJP7SanZgw_10gql_parser5lexer5testss_24keyword_case_insensitive
FN:906,_RNvNtNtCs6qJP7SanZgw_10gql_parser5lexer5testss_24numeric_hex_octal_binary
FN:913,_RNvNtNtCs6qJP7SanZgw_10gql_parser5lexer5testss_24numeric_with_underscores
FN:975,_RNvNtNtCs6qJP7SanZgw_10gql_parser5lexer5testss_25all_single_char_operators
FN:920,_RNvNtNtCs6qJP7SanZgw_10gql_parser5lexer5testss_25numeric_exponent_variants
FN:1007,_RNvNtNtCs6qJP7SanZgw_10gql_parser5lexer5testss_25string_trailing_backslash
FN:873,_RNvNtNtCs6qJP7SanZgw_10gql_parser5lexer5testss_27string_all_escape_sequences
FN:845,_RNvNtNtCs6qJP7SanZgw_10gql_parser5lexer5testss_27string_unicode_escape_valid
FN:892,_RNvNtNtCs6qJP7SanZgw_10gql_parser5lexer5testss_28delimited_identifier_escapes
FN:879,_RNvNtNtCs6qJP7SanZgw_10gql_parser5lexer5testss_28double_quoted_string_escapes
FN:823,_RNvNtNtCs6qJP7SanZgw_10gql_parser5lexer5testss_29double_quoted_string_literals
FN:803,_RNvNtNtCs6qJP7SanZgw_10gql_parser5lexer5testss_29malformed_byte_string_non_hex
FN:951,_RNvNtNtCs6qJP7SanZgw_10gql_parser5lexer5testss_30invalid_hex_leading_underscore
FN:927,_RNvNtNtCs6qJP7SanZgw_10gql_parser5lexer5testss_30invalid_numeric_empty_exponent
FN:885,_RNvNtNtCs6qJP7SanZgw_10gql_parser5lexer5testss_30string_invalid_escape_sequence
FN:684,_RNvNtNtCs6qJP7SanZgw_10gql_parser5lexer5testss_31delimited_identifier_and_string
FN:757,_RNvNtNtCs6qJP7SanZgw_10gql_parser5lexer5testss_31invalid_character_reports_error
FN:957,_RNvNtNtCs6qJP7SanZgw_10gql_parser5lexer5testss_31invalid_octal_double_underscore
FN:702,_RNvNtNtCs6qJP7SanZgw_10gql_parser5lexer5testss_31numeric_literals_and_validation
FN:797,_RNvNtNtCs6qJP7SanZgw_10gql_parser5lexer5testss_32malformed_byte_string_odd_length
FN:859,_RNvNtNtCs6qJP7SanZgw_10gql_parser5lexer5testss_32string_unicode_escape_incomplete
FN:933,_RNvNtNtCs6qJP7SanZgw_10gql_parser5lexer5testss_33invalid_numeric_double_underscore
FN:852,_RNvNtNtCs6qJP7SanZgw_10gql_parser5lexer5testss_33string_unicode_escape_invalid_hex
FN:816,_RNvNtNtCs6qJP7SanZgw_10gql_parser5lexer5testss_33unterminated_delimited_identifier
FN:830,_RNvNtNtCs6qJP7SanZgw_10gql_parser5lexer5testss_33unterminated_double_quoted_string
FN:745,_RNvNtNtCs6qJP7SanZgw_10gql_parser5lexer5testss_33unterminated_string_reports_error
FN:779,_RNvNtNtCs6qJP7SanZgw_10gql_parser5lexer5testss_34byte_string_literals_are_tokenized
FN:963,_RNvNtNtCs6qJP7SanZgw_10gql_parser5lexer5testss_34invalid_binary_trailing_underscore
FN:899,_RNvNtNtCs6qJP7SanZgw_10gql_parser5lexer5testss_35delimited_identifier_invalid_escape
FN:939,_RNvNtNtCs6qJP7SanZgw_10gql_parser5lexer5testss_35invalid_numeric_trailing_underscore
FN:1001,_RNvNtNtCs6qJP7SanZgw_10gql_parser5lexer5testss_36invalid_exponent_with_sign_no_digits
FN:790,_RNvNtNtCs6qJP7SanZgw_10gql_parser5lexer5testss_38unterminated_byte_string_reports_error
FN:725,_RNvNtNtCs6qJP7SanZgw_10gql_parser5lexer5testss_39comments_skipped_including_nested_block
FN:1013,_RNvNtNtCs6qJP7SanZgw_10gql_parser5lexer5testss_39delimited_identifier_trailing_backslash
FN:866,_RNvNtNtCs6qJP7SanZgw_10gql_parser5lexer5testss_39string_unicode_escape_invalid_codepoint
FN:733,_RNvNtNtCs6qJP7SanZgw_10gql_parser5lexer5testss_40unterminated_block_comment_reports_error
FN:945,_RNvNtNtCs6qJP7SanZgw_10gql_parser5lexer5testss_44invalid_numeric_exponent_trailing_underscore
FN:763,_RNvNtNtCs6qJP7SanZgw_10gql_parser5lexer5testss_44temporal_literals_are_tokenized_structurally
FN:616,_RINvNtCs87GxMFlPkU4_10gql_parser5lexer25is_valid_base_digit_groupNCNvB2_20is_valid_digit_group0EB4_
FN:616,_RINvNtCs87GxMFlPkU4_10gql_parser5lexer25is_valid_base_digit_groupNCNvB2_24is_valid_numeric_literals1_0EB4_
FN:616,_RINvNtCs87GxMFlPkU4_10gql_parser5lexer25is_valid_base_digit_groupNCNvB2_24is_valid_numeric_literals3_0EB4_
FN:616,_RINvNtCs87GxMFlPkU4_10gql_parser5lexer25is_valid_base_digit_groupNCNvB2_24is_valid_numeric_literals_0EB4_
FN:293,_RNCNvMNtCs87GxMFlPkU4_10gql_parser5lexerNtB4_5Lexer13map_raw_token0B6_
FN:613,_RNCNvNtCs87GxMFlPkU4_10gql_parser5lexer20is_valid_digit_group0B5_
FN:565,_RNCNvNtCs87GxMFlPkU4_10gql_parser5lexer24is_valid_numeric_literal0B5_
FN:568,_RNCNvNtCs87GxMFlPkU4_10gql_parser5lexer24is_valid_numeric_literals0_0B5_
FN:569,_RNCNvNtCs87GxMFlPkU4_10gql_parser5lexer24is_valid_numeric_literals1_0B5_
FN:571,_RNCNvNtCs87GxMFlPkU4_10gql_parser5lexer24is_valid_numeric_literals2_0B5_
FN:572,_RNCNvNtCs87GxMFlPkU4_10gql_parser5lexer24is_valid_numeric_literals3_0B5_
FN:575,_RNCNvNtCs87GxMFlPkU4_10gql_parser5lexer24is_valid_numeric_literals4_0B5_
FN:566,_RNCNvNtCs87GxMFlPkU4_10gql_parser5lexer24is_valid_numeric_literals_0B5_
FN:487,_RNCNvNtCs87GxMFlPkU4_10gql_parser5lexer26decode_byte_string_literal0B5_
FN:193,_RNvMNtCs87GxMFlPkU4_10gql_parser5lexerNtB2_5Lexer13map_raw_token
FN:150,_RNvMNtCs87GxMFlPkU4_10gql_parser5lexerNtB2_5Lexer3new
FN:155,_RNvMNtCs87GxMFlPkU4_10gql_parser5lexerNtB2_5Lexer8tokenize
FN:555,_RNvNtCs87GxMFlPkU4_10gql_parser5lexer14normalize_span
FN:601,_RNvNtCs87GxMFlPkU4_10gql_parser5lexer17is_valid_mantissa
FN:612,_RNvNtCs87GxMFlPkU4_10gql_parser5lexer20is_valid_digit_group
FN:342,_RNvNtCs87GxMFlPkU4_10gql_parser5lexer21decode_string_literal
FN:564,_RNvNtCs87GxMFlPkU4_10gql_parser5lexer24is_valid_numeric_literal
FN:302,_RNvNtCs87GxMFlPkU4_10gql_parser5lexer24lex_nested_block_comment
FN:462,_RNvNtCs87GxMFlPkU4_10gql_parser5lexer26decode_byte_string_literal
FN:498,_RNvNtCs87GxMFlPkU4_10gql_parser5lexer27decode_delimited_identifier
FN:354,_RNvNtCs87GxMFlPkU4_10gql_parser5lexer28decode_quoted_string_literal
FN:346,_RNvNtCs87GxMFlPkU4_10gql_parser5lexer35decode_double_quoted_string_literal
FN:649,_RNvNtCs87GxMFlPkU4_10gql_parser5lexer8tokenize
FN:32,_RNvNvXs6_NtCs87GxMFlPkU4_10gql_parser5lexerNtB7_8RawTokenNtCs3pTITzNZRtn_5logos5Logos3lex14goto56_ctx55_xB9_
FN:32,_RNvNvXs6_NtCs87GxMFlPkU4_10gql_parser5lexerNtB7_8RawTokenNtCs3pTITzNZRtn_5logos5Logos3lex14goto70_ctx69_xB9_
FN:32,_RNvNvXs6_NtCs87GxMFlPkU4_10gql_parser5lexerNtB7_8RawTokenNtCs3pTITzNZRtn_5logos5Logos3lex14goto84_ctx83_xB9_
FN:32,_RNvNvXs6_NtCs87GxMFlPkU4_10gql_parser5lexerNtB7_8RawTokenNtCs3pTITzNZRtn_5logos5Logos3lex14goto98_ctx97_xB9_
FN:32,_RNvNvXs6_NtCs87GxMFlPkU4_10gql_parser5lexerNtB7_8RawTokenNtCs3pTITzNZRtn_5logos5Logos3lex16goto150_ctx141_xB9_
FNDA:1,_RNCNvNtNtCs6qJP7SanZgw_10gql_parser5lexer5testss_29malformed_byte_string_non_hex0B7_
FNDA:1,_RNCNvNtNtCs6qJP7SanZgw_10gql_parser5lexer5testss_30invalid_hex_leading_underscore0B7_
FNDA:0,_RNCNvNtNtCs6qJP7SanZgw_10gql_parser5lexer5testss_30invalid_numeric_empty_exponent0B7_
FNDA:1,_RNCNvNtNtCs6qJP7SanZgw_10gql_parser5lexer5testss_30string_invalid_escape_sequence0B7_
FNDA:1,_RNCNvNtNtCs6qJP7SanZgw_10gql_parser5lexer5testss_31invalid_octal_double_underscore0B7_
FNDA:3,_RNCNvNtNtCs6qJP7SanZgw_10gql_parser5lexer5testss_31numeric_literals_and_validation0B7_
FNDA:1,_RNCNvNtNtCs6qJP7SanZgw_10gql_parser5lexer5testss_32malformed_byte_string_odd_length0B7_
FNDA:1,_RNCNvNtNtCs6qJP7SanZgw_10gql_parser5lexer5testss_32string_unicode_escape_incomplete0B7_
FNDA:1,_RNCNvNtNtCs6qJP7SanZgw_10gql_parser5lexer5testss_33invalid_numeric_double_underscore0B7_
FNDA:1,_RNCNvNtNtCs6qJP7SanZgw_10gql_parser5lexer5testss_33string_unicode_escape_invalid_hex0B7_
FNDA:1,_RNCNvNtNtCs6qJP7SanZgw_10gql_parser5lexer5testss_34invalid_binary_trailing_underscore0B7_
FNDA:1,_RNCNvNtNtCs6qJP7SanZgw_10gql_parser5lexer5testss_35delimited_identifier_invalid_escape0B7_
FNDA:1,_RNCNvNtNtCs6qJP7SanZgw_10gql_parser5lexer5testss_35invalid_numeric_trailing_underscore0B7_
FNDA:0,_RNCNvNtNtCs6qJP7SanZgw_10gql_parser5lexer5testss_36invalid_exponent_with_sign_no_digits0B7_
FNDA:1,_RNCNvNtNtCs6qJP7SanZgw_10gql_parser5lexer5testss_39string_unicode_escape_invalid_codepoint0B7_
FNDA:1,_RNCNvNtNtCs6qJP7SanZgw_10gql_parser5lexer5testss_44invalid_numeric_exponent_trailing_underscore0B7_
FNDA:81,_RINvNtCs6qJP7SanZgw_10gql_parser5lexer25is_valid_base_digit_groupNCNvB2_20is_valid_digit_group0EB4_
FNDA:4,_RINvNtCs6qJP7SanZgw_10gql_parser5lexer25is_valid_base_digit_groupNCNvB2_24is_valid_numeric_literals1_0EB4_
FNDA:4,_RINvNtCs6qJP7SanZgw_10gql_parser5lexer25is_valid_base_digit_groupNCNvB2_24is_valid_numeric_literals3_0EB4_
FNDA:6,_RINvNtCs6qJP7SanZgw_10gql_parser5lexer25is_valid_base_digit_groupNCNvB2_24is_valid_numeric_literals_0EB4_
FNDA:259,_RNCNvMNtCs6qJP7SanZgw_10gql_parser5lexerNtB4_5Lexer13map_raw_token0B6_
FNDA:130,_RNCNvNtCs6qJP7SanZgw_10gql_parser5lexer20is_valid_digit_group0B5_
FNDA:72,_RNCNvNtCs6qJP7SanZgw_10gql_parser5lexer24is_valid_numeric_literal0B5_
FNDA:68,_RNCNvNtCs6qJP7SanZgw_10gql_parser5lexer24is_valid_numeric_literals0_0B5_
FNDA:11,_RNCNvNtCs6qJP7SanZgw_10gql_parser5lexer24is_valid_numeric_literals1_0B5_
FNDA:64,_RNCNvNtCs6qJP7SanZgw_10gql_parser5lexer24is_valid_numeric_literals2_0B5_
FNDA:16,_RNCNvNtCs6qJP7SanZgw_10gql_parser5lexer24is_valid_numeric_literals3_0B5_
FNDA:136,_RNCNvNtCs6qJP7SanZgw_10gql_parser5lexer24is_valid_numeric_literals4_0B5_
FNDA:18,_RNCNvNtCs6qJP7SanZgw_10gql_parser5lexer24is_valid_numeric_literals_0B5_
FNDA:16,_RNCNvNtCs6qJP7SanZgw_10gql_parser5lexer26decode_byte_string_literal0B5_
FNDA:1027,_RNvMNtCs6qJP7SanZgw_10gql_parser5lexerNtB2_5Lexer13map_raw_token
FNDA:165,_RNvMNtCs6qJP7SanZgw_10gql_parser5lexerNtB2_5Lexer3new
FNDA:165,_RNvMNtCs6qJP7SanZgw_10gql_parser5lexerNtB2_5Lexer8tokenize
FNDA:6,_RNvNtCs6qJP7SanZgw_10gql_parser5lexer14normalize_span
FNDA:63,_RNvNtCs6qJP7SanZgw_10gql_parser5lexer17is_valid_mantissa
FNDA:81,_RNvNtCs6qJP7SanZgw_10gql_parser5lexer20is_valid_digit_group
FNDA:22,_RNvNtCs6qJP7SanZgw_10gql_parser5lexer21decode_string_literal
FNDA:77,_RNvNtCs6qJP7SanZgw_10gql_parser5lexer24is_valid_numeric_literal
FNDA:2,_RNvNtCs6qJP7SanZgw_10gql_parser5lexer24lex_nested_block_comment
FNDA:6,_RNvNtCs6qJP7SanZgw_10gql_parser5lexer26decode_byte_string_literal
FNDA:7,_RNvNtCs6qJP7SanZgw_10gql_parser5lexer27decode_delimited_identifier
FNDA:26,_RNvNtCs6qJP7SanZgw_10gql_parser5lexer28decode_quoted_string_literal
FNDA:4,_RNvNtCs6qJP7SanZgw_10gql_parser5lexer35decode_double_quoted_string_literal
FNDA:100,_RNvNtCs6qJP7SanZgw_10gql_parser5lexer8tokenize
FNDA:40,_RNvNvXs6_NtCs6qJP7SanZgw_10gql_parser5lexerNtB7_8RawTokenNtCs3pTITzNZRtn_5logos5Logos3lex14goto56_ctx55_xB9_
FNDA:188,_RNvNvXs6_NtCs6qJP7SanZgw_10gql_parser5lexerNtB7_8RawTokenNtCs3pTITzNZRtn_5logos5Logos3lex14goto70_ctx69_xB9_
FNDA:29,_RNvNvXs6_NtCs6qJP7SanZgw_10gql_parser5lexerNtB7_8RawTokenNtCs3pTITzNZRtn_5logos5Logos3lex14goto84_ctx83_xB9_
FNDA:19,_RNvNvXs6_NtCs6qJP7SanZgw_10gql_parser5lexerNtB7_8RawTokenNtCs3pTITzNZRtn_5logos5Logos3lex14goto98_ctx97_xB9_
FNDA:0,_RNvNvXs6_NtCs6qJP7SanZgw_10gql_parser5lexerNtB7_8RawTokenNtCs3pTITzNZRtn_5logos5Logos3lex16goto150_ctx141_xB9_
FNDA:1,_RNvNtNtCs6qJP7SanZgw_10gql_parser5lexer5testss_10parameters
FNDA:1,_RNvNtNtCs6qJP7SanZgw_10gql_parser5lexer5testss_11empty_input
FNDA:1,_RNvNtNtCs6qJP7SanZgw_10gql_parser5lexer5testss_14float_literals
FNDA:1,_RNvNtNtCs6qJP7SanZgw_10gql_parser5lexer5testss_15all_punctuation
FNDA:1,_RNvNtNtCs6qJP7SanZgw_10gql_parser5lexer5testss_17byte_string_empty
FNDA:1,_RNvNtNtCs6qJP7SanZgw_10gql_parser5lexer5testss_18token_slice_method
FNDA:1,_RNvNtNtCs6qJP7SanZgw_10gql_parser5lexer5testss_20reference_parameters
FNDA:1,_RNvNtNtCs6qJP7SanZgw_10gql_parser5lexer5testss_24all_multi_char_operators
FNDA:1,_RNvNtNtCs6qJP7SanZgw_10gql_parser5lexer5testss_24identifiers_and_keywords
FNDA:1,_RNvNtNtCs6qJP7SanZgw_10gql_parser5lexer5testss_24keyword_case_insensitive
FNDA:1,_RNvNtNtCs6qJP7SanZgw_10gql_parser5lexer5testss_24numeric_hex_octal_binary
FNDA:1,_RNvNtNtCs6qJP7SanZgw_10gql_parser5lexer5testss_24numeric_with_underscores
FNDA:1,_RNvNtNtCs6qJP7SanZgw_10gql_parser5lexer5testss_25all_single_char_operators
FNDA:1,_RNvNtNtCs6qJP7SanZgw_10gql_parser5lexer5testss_25numeric_exponent_variants
FNDA:1,_RNvNtNtCs6qJP7SanZgw_10gql_parser5lexer5testss_25string_trailing_backslash
FNDA:1,_RNvNtNtCs6qJP7SanZgw_10gql_parser5lexer5testss_27string_all_escape_sequences
FNDA:1,_RNvNtNtCs6qJP7SanZgw_10gql_parser5lexer5testss_27string_unicode_escape_valid
FNDA:1,_RNvNtNtCs6qJP7SanZgw_10gql_parser5lexer5testss_28delimited_identifier_escapes
FNDA:1,_RNvNtNtCs6qJP7SanZgw_10gql_parser5lexer5testss_28double_quoted_string_escapes
FNDA:1,_RNvNtNtCs6qJP7SanZgw_10gql_parser5lexer5testss_29double_quoted_string_literals
FNDA:1,_RNvNtNtCs6qJP7SanZgw_10gql_parser5lexer5testss_29malformed_byte_string_non_hex
FNDA:1,_RNvNtNtCs6qJP7SanZgw_10gql_parser5lexer5testss_30invalid_hex_leading_underscore
FNDA:1,_RNvNtNtCs6qJP7SanZgw_10gql_parser5lexer5testss_30invalid_numeric_empty_exponent
FNDA:1,_RNvNtNtCs6qJP7SanZgw_10gql_parser5lexer5testss_30string_invalid_escape_sequence
FNDA:1,_RNvNtNtCs6qJP7SanZgw_10gql_parser5lexer5testss_31delimited_identifier_and_string
FNDA:1,_RNvNtNtCs6qJP7SanZgw_10gql_parser5lexer5testss_31invalid_character_reports_error
FNDA:1,_RNvNtNtCs6qJP7SanZgw_10gql_parser5lexer5testss_31invalid_octal_double_underscore
FNDA:1,_RNvNtNtCs6qJP7SanZgw_10gql_parser5lexer5testss_31numeric_literals_and_validation
FNDA:1,_RNvNtNtCs6qJP7SanZgw_10gql_parser5lexer5testss_32malformed_byte_string_odd_length
FNDA:1,_RNvNtNtCs6qJP7SanZgw_10gql_parser5lexer5testss_32string_unicode_escape_incomplete
FNDA:1,_RNvNtNtCs6qJP7SanZgw_10gql_parser5lexer5testss_33invalid_numeric_double_underscore
FNDA:1,_RNvNtNtCs6qJP7SanZgw_10gql_parser5lexer5testss_33string_unicode_escape_invalid_hex
FNDA:1,_RNvNtNtCs6qJP7SanZgw_10gql_parser5lexer5testss_33unterminated_delimited_identifier
FNDA:1,_RNvNtNtCs6qJP7SanZgw_10gql_parser5lexer5testss_33unterminated_double_quoted_string
FNDA:1,_RNvNtNtCs6qJP7SanZgw_10gql_parser5lexer5testss_33unterminated_string_reports_error
FNDA:1,_RNvNtNtCs6qJP7SanZgw_10gql_parser5lexer5testss_34byte_string_literals_are_tokenized
FNDA:1,_RNvNtNtCs6qJP7SanZgw_10gql_parser5lexer5testss_34invalid_binary_trailing_underscore
FNDA:1,_RNvNtNtCs6qJP7SanZgw_10gql_parser5lexer5testss_35delimited_identifier_invalid_escape
FNDA:1,_RNvNtNtCs6qJP7SanZgw_10gql_parser5lexer5testss_35invalid_numeric_trailing_underscore
FNDA:1,_RNvNtNtCs6qJP7SanZgw_10gql_parser5lexer5testss_36invalid_exponent_with_sign_no_digits
FNDA:1,_RNvNtNtCs6qJP7SanZgw_10gql_parser5lexer5testss_38unterminated_byte_string_reports_error
FNDA:1,_RNvNtNtCs6qJP7SanZgw_10gql_parser5lexer5testss_39comments_skipped_including_nested_block
FNDA:1,_RNvNtNtCs6qJP7SanZgw_10gql_parser5lexer5testss_39delimited_identifier_trailing_backslash
FNDA:1,_RNvNtNtCs6qJP7SanZgw_10gql_parser5lexer5testss_39string_unicode_escape_invalid_codepoint
FNDA:1,_RNvNtNtCs6qJP7SanZgw_10gql_parser5lexer5testss_40unterminated_block_comment_reports_error
FNDA:1,_RNvNtNtCs6qJP7SanZgw_10gql_parser5lexer5testss_44invalid_numeric_exponent_trailing_underscore
FNDA:1,_RNvNtNtCs6qJP7SanZgw_10gql_parser5lexer5testss_44temporal_literals_are_tokenized_structurally
FNDA:0,_RINvNtCs87GxMFlPkU4_10gql_parser5lexer25is_valid_base_digit_groupNCNvB2_20is_valid_digit_group0EB4_
FNDA:0,_RINvNtCs87GxMFlPkU4_10gql_parser5lexer25is_valid_base_digit_groupNCNvB2_24is_valid_numeric_literals1_0EB4_
FNDA:0,_RINvNtCs87GxMFlPkU4_10gql_parser5lexer25is_valid_base_digit_groupNCNvB2_24is_valid_numeric_literals3_0EB4_
FNDA:0,_RINvNtCs87GxMFlPkU4_10gql_parser5lexer25is_valid_base_digit_groupNCNvB2_24is_valid_numeric_literals_0EB4_
FNDA:0,_RNCNvMNtCs87GxMFlPkU4_10gql_parser5lexerNtB4_5Lexer13map_raw_token0B6_
FNDA:0,_RNCNvNtCs87GxMFlPkU4_10gql_parser5lexer20is_valid_digit_group0B5_
FNDA:0,_RNCNvNtCs87GxMFlPkU4_10gql_parser5lexer24is_valid_numeric_literal0B5_
FNDA:0,_RNCNvNtCs87GxMFlPkU4_10gql_parser5lexer24is_valid_numeric_literals0_0B5_
FNDA:0,_RNCNvNtCs87GxMFlPkU4_10gql_parser5lexer24is_valid_numeric_literals1_0B5_
FNDA:0,_RNCNvNtCs87GxMFlPkU4_10gql_parser5lexer24is_valid_numeric_literals2_0B5_
FNDA:0,_RNCNvNtCs87GxMFlPkU4_10gql_parser5lexer24is_valid_numeric_literals3_0B5_
FNDA:0,_RNCNvNtCs87GxMFlPkU4_10gql_parser5lexer24is_valid_numeric_literals4_0B5_
FNDA:0,_RNCNvNtCs87GxMFlPkU4_10gql_parser5lexer24is_valid_numeric_literals_0B5_
FNDA:0,_RNCNvNtCs87GxMFlPkU4_10gql_parser5lexer26decode_byte_string_literal0B5_
FNDA:0,_RNvMNtCs87GxMFlPkU4_10gql_parser5lexerNtB2_5Lexer13map_raw_token
FNDA:0,_RNvMNtCs87GxMFlPkU4_10gql_parser5lexerNtB2_5Lexer3new
FNDA:0,_RNvMNtCs87GxMFlPkU4_10gql_parser5lexerNtB2_5Lexer8tokenize
FNDA:0,_RNvNtCs87GxMFlPkU4_10gql_parser5lexer14normalize_span
FNDA:0,_RNvNtCs87GxMFlPkU4_10gql_parser5lexer17is_valid_mantissa
FNDA:0,_RNvNtCs87GxMFlPkU4_10gql_parser5lexer20is_valid_digit_group
FNDA:0,_RNvNtCs87GxMFlPkU4_10gql_parser5lexer21decode_string_literal
FNDA:0,_RNvNtCs87GxMFlPkU4_10gql_parser5lexer24is_valid_numeric_literal
FNDA:0,_RNvNtCs87GxMFlPkU4_10gql_parser5lexer24lex_nested_block_comment
FNDA:0,_RNvNtCs87GxMFlPkU4_10gql_parser5lexer26decode_byte_string_literal
FNDA:0,_RNvNtCs87GxMFlPkU4_10gql_parser5lexer27decode_delimited_identifier
FNDA:0,_RNvNtCs87GxMFlPkU4_10gql_parser5lexer28decode_quoted_string_literal
FNDA:0,_RNvNtCs87GxMFlPkU4_10gql_parser5lexer35decode_double_quoted_string_literal
FNDA:0,_RNvNtCs87GxMFlPkU4_10gql_parser5lexer8tokenize
FNDA:0,_RNvNvXs6_NtCs87GxMFlPkU4_10gql_parser5lexerNtB7_8RawTokenNtCs3pTITzNZRtn_5logos5Logos3lex14goto56_ctx55_xB9_
FNDA:0,_RNvNvXs6_NtCs87GxMFlPkU4_10gql_parser5lexerNtB7_8RawTokenNtCs3pTITzNZRtn_5logos5Logos3lex14goto70_ctx69_xB9_
FNDA:0,_RNvNvXs6_NtCs87GxMFlPkU4_10gql_parser5lexerNtB7_8RawTokenNtCs3pTITzNZRtn_5logos5Logos3lex14goto84_ctx83_xB9_
FNDA:0,_RNvNvXs6_NtCs87GxMFlPkU4_10gql_parser5lexerNtB7_8RawTokenNtCs3pTITzNZRtn_5logos5Logos3lex14goto98_ctx97_xB9_
FNDA:0,_RNvNvXs6_NtCs87GxMFlPkU4_10gql_parser5lexerNtB7_8RawTokenNtCs3pTITzNZRtn_5logos5Logos3lex16goto150_ctx141_xB9_
FNF:89
FNH:87
DA:32,276
DA:150,165
DA:151,165
DA:152,165
DA:155,165
DA:156,165
DA:157,165
DA:159,165
DA:161,1198
DA:162,1033
DA:163,1033
DA:164,1027
DA:165,1027
DA:166,1027
DA:167,1027
DA:169,6
DA:170,6
DA:171,6
DA:172,6
DA:173,6
DA:174,6
DA:175,6
DA:176,6
DA:177,6
DA:178,6
DA:182,165
DA:184,165
DA:185,165
DA:187,165
DA:188,165
DA:189,165
DA:190,165
DA:191,165
DA:193,1027
DA:194,1027
DA:195,1027
DA:196,1027
DA:197,1027
DA:198,1027
DA:199,1027
DA:200,0
DA:201,6
DA:202,1
DA:203,1
DA:204,1
DA:205,1
DA:206,1
DA:207,1
DA:208,1
DA:209,2
DA:210,2
DA:211,1
DA:212,9
DA:213,7
DA:214,2
DA:215,5
DA:216,2
DA:217,1
DA:218,2
DA:219,1
DA:220,10
DA:221,3
DA:222,8
DA:223,1
DA:224,2
DA:225,2
DA:226,77
DA:227,75
DA:228,8
DA:229,8
DA:230,17
DA:231,16
DA:232,28
DA:233,12
DA:234,34
DA:235,30
DA:237,2
DA:238,2
DA:241,3
DA:242,3
DA:245,7
DA:246,7
DA:247,7
DA:248,7
DA:250,7
DA:253,22
DA:254,22
DA:255,22
DA:258,4
DA:259,4
DA:260,4
DA:261,4
DA:263,4
DA:266,6
DA:267,6
DA:268,6
DA:274,77
DA:275,77
DA:276,9
DA:277,9
DA:278,9
DA:279,9
DA:280,9
DA:281,68
DA:283,77
DA:284,16
DA:286,61
DA:288,77
DA:291,528
DA:292,528
DA:293,528
DA:294,528
DA:298,1027
DA:299,1027
DA:302,2
DA:303,2
DA:304,2
DA:305,2
DA:307,33
DA:308,32
DA:309,1
DA:310,1
DA:311,1
DA:312,1
DA:313,1
DA:314,31
DA:316,31
DA:317,2
DA:319,2
DA:320,2
DA:321,2
DA:322,1
DA:323,1
DA:324,1
DA:325,1
DA:326,29
DA:330,1
DA:331,1
DA:332,1
DA:333,1
DA:334,1
DA:335,1
DA:336,1
DA:339,1
DA:340,2
DA:342,22
DA:343,22
DA:344,22
DA:346,4
DA:347,4
DA:348,4
DA:349,4
DA:350,4
DA:351,4
DA:352,4
DA:354,26
DA:355,26
DA:356,26
DA:357,26
DA:358,26
DA:359,26
DA:360,26
DA:361,26
DA:363,26
DA:364,3
DA:365,3
DA:366,3
DA:367,3
DA:368,3
DA:369,23
DA:371,26
DA:372,26
DA:374,0
DA:377,26
DA:378,26
DA:380,242
DA:381,216
DA:382,200
DA:383,200
DA:384,16
DA:386,16
DA:387,0
DA:390,1
DA:391,3
DA:392,3
DA:393,1
DA:394,1
DA:395,1
DA:396,1
DA:398,5
DA:399,5
DA:400,18
DA:401,17
DA:402,16
DA:403,16
DA:404,1
DA:405,1
DA:406,1
DA:407,1
DA:408,1
DA:411,1
DA:413,1
DA:416,1
DA:417,1
DA:418,1
DA:419,1
DA:422,1
DA:424,1
DA:428,5
DA:429,3
DA:431,3
DA:432,2
DA:433,2
DA:434,1
DA:435,1
DA:436,1
DA:437,1
DA:438,1
DA:439,1
DA:440,1
DA:441,1
DA:442,1
DA:443,2
DA:445,1
DA:446,1
DA:447,1
DA:448,1
DA:449,1
DA:450,1
DA:451,1
DA:452,1
DA:453,1
DA:454,1
DA:455,1
DA:459,26
DA:460,26
DA:462,6
DA:463,6
DA:464,6
DA:465,6
DA:466,6
DA:467,6
DA:468,6
DA:469,1
DA:470,1
DA:471,1
DA:472,1
DA:473,1
DA:474,5
DA:476,6
DA:477,0
DA:478,6
DA:480,6
DA:481,6
DA:482,5
DA:484,1
DA:487,16
DA:488,2
DA:489,2
DA:490,2
DA:491,2
DA:492,2
DA:493,4
DA:495,6
DA:496,6
DA:498,7
DA:499,7
DA:500,7
DA:501,7
DA:502,7
DA:503,7
DA:504,7
DA:506,7
DA:507,2
DA:508,2
DA:509,2
DA:510,2
DA:511,2
DA:512,5
DA:514,7
DA:515,7
DA:517,0
DA:520,7
DA:521,7
DA:523,50
DA:524,43
DA:525,40
DA:526,40
DA:527,3
DA:529,3
DA:530,0
DA:533,3
DA:534,1
DA:535,1
DA:536,1
DA:537,1
DA:538,1
DA:539,1
DA:540,1
DA:541,1
DA:542,1
DA:543,1
DA:544,1
DA:545,1
DA:546,1
DA:547,1
DA:548,1
DA:552,7
DA:553,7
DA:555,6
DA:556,6
DA:557,6
DA:558,6
DA:559,0
DA:560,6
DA:561,6
DA:562,6
DA:564,77
DA:565,77
DA:566,18
DA:567,71
DA:568,71
DA:569,11
DA:570,67
DA:571,67
DA:572,16
DA:573,63
DA:575,136
DA:576,9
DA:577,54
DA:580,63
DA:581,4
DA:582,59
DA:584,59
DA:585,9
DA:586,1
DA:587,8
DA:588,1
DA:590,7
DA:593,9
DA:594,2
DA:595,7
DA:596,50
DA:598,57
DA:599,77
DA:601,63
DA:602,63
DA:603,9
DA:604,9
DA:605,9
DA:606,9
DA:608,54
DA:610,63
DA:612,81
DA:613,130
DA:614,81
DA:616,95
DA:617,95
DA:618,95
DA:620,95
DA:621,0
DA:622,95
DA:624,95
DA:625,95
DA:627,175
DA:628,175
DA:629,158
DA:630,158
DA:631,158
DA:632,17
DA:634,17
DA:635,17
DA:636,4
DA:637,13
DA:638,13
DA:639,13
DA:640,0
DA:642,0
DA:645,91
DA:646,95
DA:649,100
DA:650,100
DA:651,100
DA:658,1
DA:659,1
DA:660,1
DA:661,1
DA:662,1
DA:663,1
DA:666,1
DA:667,1
DA:668,1
DA:669,4
DA:670,4
DA:672,1
DA:675,1
DA:676,1
DA:677,1
DA:678,1
DA:679,1
DA:680,1
DA:681,1
DA:684,1
DA:685,1
DA:686,1
DA:687,1
DA:688,1
DA:689,1
DA:691,1
DA:692,1
DA:693,1
DA:695,1
DA:696,1
DA:697,1
DA:699,1
DA:702,1
DA:703,1
DA:704,1
DA:706,1
DA:707,1
DA:708,1
DA:709,1
DA:710,1
DA:711,1
DA:712,3
DA:714,1
DA:717,1
DA:718,1
DA:719,1
DA:720,1
DA:721,1
DA:722,1
DA:725,1
DA:726,1
DA:727,1
DA:728,1
DA:729,1
DA:730,1
DA:733,1
DA:734,1
DA:735,1
DA:736,1
DA:737,1
DA:738,1
DA:739,1
DA:740,1
DA:742,1
DA:745,1
DA:746,1
DA:747,1
DA:748,1
DA:749,1
DA:750,1
DA:752,1
DA:753,1
DA:754,1
DA:757,1
DA:758,1
DA:759,1
DA:760,1
DA:763,1
DA:764,1
DA:765,1
DA:766,1
DA:767,1
DA:768,1
DA:769,1
DA:771,1
DA:772,1
DA:773,1
DA:774,1
DA:776,1
DA:779,1
DA:780,1
DA:781,1
DA:782,1
DA:783,1
DA:784,1
DA:785,1
DA:787,1
DA:790,1
DA:791,1
DA:792,1
DA:793,1
DA:794,1
DA:797,1
DA:798,1
DA:799,1
DA:800,1
DA:803,1
DA:804,1
DA:805,1
DA:806,1
DA:809,1
DA:810,1
DA:811,1
DA:812,1
DA:813,1
DA:816,1
DA:817,1
DA:818,1
DA:819,1
DA:820,1
DA:823,1
DA:824,1
DA:825,1
DA:826,1
DA:827,1
DA:830,1
DA:831,1
DA:832,1
DA:833,1
DA:834,1
DA:837,1
DA:838,1
DA:839,1
DA:840,1
DA:841,1
DA:842,1
DA:845,1
DA:846,1
DA:847,1
DA:848,1
DA:849,1
DA:852,1
DA:853,1
DA:854,1
DA:855,1
DA:856,1
DA:859,1
DA:860,1
DA:861,1
DA:862,1
DA:863,1
DA:866,1
DA:867,1
DA:868,1
DA:869,1
DA:870,1
DA:873,1
DA:874,1
DA:875,1
DA:876,1
DA:879,1
DA:880,1
DA:881,1
DA:882,1
DA:885,1
DA:886,1
DA:887,1
DA:888,1
DA:889,1
DA:892,1
DA:893,1
DA:894,1
DA:895,1
DA:896,1
DA:899,1
DA:900,1
DA:901,1
DA:902,1
DA:903,1
DA:906,1
DA:907,1
DA:908,1
DA:909,1
DA:910,1
DA:913,1
DA:914,1
DA:915,1
DA:916,1
DA:917,1
DA:920,1
DA:921,1
DA:922,1
DA:923,1
DA:924,1
DA:927,1
DA:928,1
DA:929,1
DA:930,0
DA:933,1
DA:934,1
DA:935,1
DA:936,1
DA:939,1
DA:940,1
DA:941,1
DA:942,1
DA:945,1
DA:946,1
DA:947,1
DA:948,1
DA:951,1
DA:952,1
DA:953,1
DA:954,1
DA:957,1
DA:958,1
DA:959,1
DA:960,1
DA:963,1
DA:964,1
DA:965,1
DA:966,1
DA:969,1
DA:970,1
DA:971,1
DA:972,0
DA:975,1
DA:976,1
DA:977,1
DA:978,0
DA:981,1
DA:982,1
DA:983,1
DA:984,1
DA:987,1
DA:988,1
DA:989,1
DA:990,1
DA:991,1
DA:994,1
DA:995,1
DA:996,1
DA:997,1
DA:998,1
DA:1001,1
DA:1002,1
DA:1003,1
DA:1004,0
DA:1007,1
DA:1008,1
DA:1009,1
DA:1010,1
DA:1013,1
DA:1014,1
DA:1015,1
DA:1016,1
BRF:0
BRH:0
LF:665
LH:649
end_of_record
SF:/Users/d072013/SAPDevelop/gql_parser/src/lexer/token.rs
FN:1025,_RNvNtNtNtCs6qJP7SanZgw_10gql_parser5lexer5token5testss_14token_creation
FN:1075,_RNvNtNtNtCs6qJP7SanZgw_10gql_parser5lexer5token5testss_18token_kind_display
FN:1032,_RNvNtNtNtCs6qJP7SanZgw_10gql_parser5lexer5token5testss_21token_kind_is_keyword
FN:1048,_RNvNtNtNtCs6qJP7SanZgw_10gql_parser5lexer5token5testss_21token_kind_is_literal
FN:1058,_RNvNtNtNtCs6qJP7SanZgw_10gql_parser5lexer5token5testss_22token_kind_is_operator
FN:1067,_RNvNtNtNtCs6qJP7SanZgw_10gql_parser5lexer5token5testss_42token_kind_non_reserved_identifier_keyword
FN:353,_RNvMNtNtCs6qJP7SanZgw_10gql_parser5lexer5tokenNtB2_9TokenKind10is_keyword
FN:582,_RNvMNtNtCs6qJP7SanZgw_10gql_parser5lexer5tokenNtB2_9TokenKind10is_literal
FN:597,_RNvMNtNtCs6qJP7SanZgw_10gql_parser5lexer5tokenNtB2_9TokenKind11is_operator
FN:679,_RNvMNtNtCs6qJP7SanZgw_10gql_parser5lexer5tokenNtB2_9TokenKind28is_built_in_function_keyword
FN:630,_RNvMNtNtCs6qJP7SanZgw_10gql_parser5lexer5tokenNtB2_9TokenKind34is_non_reserved_identifier_keyword
FN:1010,_RNvMs0_NtNtCs6qJP7SanZgw_10gql_parser5lexer5tokenNtB5_5Token3new
FN:1015,_RNvMs0_NtNtCs6qJP7SanZgw_10gql_parser5lexer5tokenNtB5_5Token5slice
FN:727,_RNvXs_NtNtCs6qJP7SanZgw_10gql_parser5lexer5tokenNtB4_9TokenKindNtNtCsezyhsC6CBT9_4core3fmt7Display3fmt
FN:353,_RNvMNtNtCs87GxMFlPkU4_10gql_parser5lexer5tokenNtB2_9TokenKind10is_keyword
FN:582,_RNvMNtNtCs87GxMFlPkU4_10gql_parser5lexer5tokenNtB2_9TokenKind10is_literal
FN:597,_RNvMNtNtCs87GxMFlPkU4_10gql_parser5lexer5tokenNtB2_9TokenKind11is_operator
FN:679,_RNvMNtNtCs87GxMFlPkU4_10gql_parser5lexer5tokenNtB2_9TokenKind28is_built_in_function_keyword
FN:630,_RNvMNtNtCs87GxMFlPkU4_10gql_parser5lexer5tokenNtB2_9TokenKind34is_non_reserved_identifier_keyword
FN:1010,_RNvMs0_NtNtCs87GxMFlPkU4_10gql_parser5lexer5tokenNtB5_5Token3new
FN:1015,_RNvMs0_NtNtCs87GxMFlPkU4_10gql_parser5lexer5tokenNtB5_5Token5slice
FN:727,_RNvXs_NtNtCs87GxMFlPkU4_10gql_parser5lexer5tokenNtB4_9TokenKindNtNtCsezyhsC6CBT9_4core3fmt7Display3fmt
FNDA:1,_RNvNtNtNtCs6qJP7SanZgw_10gql_parser5lexer5token5testss_14token_creation
FNDA:1,_RNvNtNtNtCs6qJP7SanZgw_10gql_parser5lexer5token5testss_18token_kind_display
FNDA:1,_RNvNtNtNtCs6qJP7SanZgw_10gql_parser5lexer5token5testss_21token_kind_is_keyword
FNDA:1,_RNvNtNtNtCs6qJP7SanZgw_10gql_parser5lexer5token5testss_21token_kind_is_literal
FNDA:1,_RNvNtNtNtCs6qJP7SanZgw_10gql_parser5lexer5token5testss_22token_kind_is_operator
FNDA:1,_RNvNtNtNtCs6qJP7SanZgw_10gql_parser5lexer5token5testss_42token_kind_non_reserved_identifier_keyword
FNDA:32,_RNvMNtNtCs6qJP7SanZgw_10gql_parser5lexer5tokenNtB2_9TokenKind10is_keyword
FNDA:6,_RNvMNtNtCs6qJP7SanZgw_10gql_parser5lexer5tokenNtB2_9TokenKind10is_literal
FNDA:5,_RNvMNtNtCs6qJP7SanZgw_10gql_parser5lexer5tokenNtB2_9TokenKind11is_operator
FNDA:0,_RNvMNtNtCs6qJP7SanZgw_10gql_parser5lexer5tokenNtB2_9TokenKind28is_built_in_function_keyword
FNDA:10,_RNvMNtNtCs6qJP7SanZgw_10gql_parser5lexer5tokenNtB2_9TokenKind34is_non_reserved_identifier_keyword
FNDA:325936,_RNvMs0_NtNtCs6qJP7SanZgw_10gql_parser5lexer5tokenNtB5_5Token3new
FNDA:1,_RNvMs0_NtNtCs6qJP7SanZgw_10gql_parser5lexer5tokenNtB5_5Token5slice
FNDA:13199,_RNvXs_NtNtCs6qJP7SanZgw_10gql_parser5lexer5tokenNtB4_9TokenKindNtNtCsezyhsC6CBT9_4core3fmt7Display3fmt
FNDA:0,_RNvMNtNtCs87GxMFlPkU4_10gql_parser5lexer5tokenNtB2_9TokenKind10is_keyword
FNDA:0,_RNvMNtNtCs87GxMFlPkU4_10gql_parser5lexer5tokenNtB2_9TokenKind10is_literal
FNDA:0,_RNvMNtNtCs87GxMFlPkU4_10gql_parser5lexer5tokenNtB2_9TokenKind11is_operator
FNDA:0,_RNvMNtNtCs87GxMFlPkU4_10gql_parser5lexer5tokenNtB2_9TokenKind28is_built_in_function_keyword
FNDA:0,_RNvMNtNtCs87GxMFlPkU4_10gql_parser5lexer5tokenNtB2_9TokenKind34is_non_reserved_identifier_keyword
FNDA:0,_RNvMs0_NtNtCs87GxMFlPkU4_10gql_parser5lexer5tokenNtB5_5Token3new
FNDA:0,_RNvMs0_NtNtCs87GxMFlPkU4_10gql_parser5lexer5tokenNtB5_5Token5slice
FNDA:0,_RNvXs_NtNtCs87GxMFlPkU4_10gql_parser5lexer5tokenNtB4_9TokenKindNtNtCsezyhsC6CBT9_4core3fmt7Display3fmt
FNF:14
FNH:13
DA:353,32
DA:354,2
DA:355,32
DA:579,32
DA:582,6
DA:583,2
DA:584,6
DA:594,6
DA:597,5
DA:598,2
DA:599,5
DA:626,5
DA:630,10
DA:631,10
DA:632,0
DA:633,10
DA:634,7
DA:635,10
DA:676,10
DA:679,0
DA:680,0
DA:681,0
DA:723,0
DA:727,13199
DA:728,13199
DA:729,2
DA:730,6146
DA:731,0
DA:732,0
DA:733,0
DA:734,0
DA:735,0
DA:736,0
DA:737,0
DA:738,0
DA:739,0
DA:740,0
DA:741,0
DA:742,0
DA:743,0
DA:744,0
DA:745,0
DA:746,0
DA:747,0
DA:748,0
DA:749,0
DA:750,0
DA:751,0
DA:752,0
DA:753,0
DA:754,0
DA:755,0
DA:756,0
DA:757,0
DA:758,0
DA:759,0
DA:760,0
DA:761,0
DA:762,0
DA:763,1
DA:764,0
DA:765,0
DA:766,0
DA:767,0
DA:768,1031
DA:769,0
DA:770,0
DA:771,0
DA:772,0
DA:773,0
DA:774,0
DA:775,0
DA:776,0
DA:777,0
DA:778,0
DA:779,0
DA:780,0
DA:781,0
DA:782,0
DA:783,0
DA:784,0
DA:785,0
DA:786,0
DA:787,0
DA:788,0
DA:789,0
DA:790,0
DA:791,0
DA:792,0
DA:793,0
DA:794,0
DA:795,0
DA:796,0
DA:797,0
DA:798,0
DA:799,0
DA:800,0
DA:801,0
DA:802,0
DA:803,0
DA:804,0
DA:805,0
DA:806,0
DA:807,0
DA:808,1
DA:809,0
DA:810,0
DA:811,0
DA:812,0
DA:813,0
DA:814,0
DA:815,0
DA:816,0
DA:817,0
DA:818,0
DA:819,0
DA:820,0
DA:821,0
DA:822,0
DA:823,0
DA:824,0
DA:825,0
DA:826,0
DA:827,0
DA:828,0
DA:829,0
DA:830,0
DA:831,0
DA:832,0
DA:833,0
DA:834,0
DA:835,0
DA:836,0
DA:838,0
DA:839,0
DA:840,0
DA:841,0
DA:842,0
DA:843,0
DA:844,0
DA:845,0
DA:846,0
DA:847,0
DA:848,0
DA:849,0
DA:850,0
DA:851,0
DA:852,0
DA:853,0
DA:854,0
DA:855,0
DA:856,0
DA:857,0
DA:858,0
DA:859,0
DA:860,0
DA:861,0
DA:862,0
DA:863,0
DA:864,0
DA:865,0
DA:866,0
DA:867,0
DA:868,0
DA:869,0
DA:870,0
DA:871,0
DA:872,0
DA:873,0
DA:874,0
DA:875,0
DA:876,0
DA:877,0
DA:878,0
DA:879,0
DA:880,0
DA:881,0
DA:882,0
DA:883,0
DA:884,0
DA:885,0
DA:886,0
DA:887,0
DA:888,0
DA:889,0
DA:890,0
DA:891,0
DA:892,0
DA:893,0
DA:894,0
DA:895,0
DA:896,0
DA:897,0
DA:898,0
DA:899,0
DA:900,0
DA:901,0
DA:902,0
DA:903,0
DA:904,0
DA:905,0
DA:906,0
DA:907,0
DA:908,0
DA:909,0
DA:910,1
DA:911,0
DA:912,0
DA:913,0
DA:914,0
DA:915,0
DA:916,0
DA:917,0
DA:918,0
DA:919,0
DA:920,0
DA:921,0
DA:922,0
DA:923,0
DA:924,0
DA:925,0
DA:926,0
DA:927,0
DA:928,0
DA:929,0
DA:930,0
DA:931,0
DA:932,0
DA:933,0
DA:934,0
DA:935,0
DA:936,0
DA:937,0
DA:938,0
DA:939,0
DA:940,0
DA:941,0
DA:942,0
DA:943,0
DA:944,0
DA:945,0
DA:946,0
DA:947,0
DA:948,8
DA:949,1
DA:950,9
DA:951,6005
DA:952,0
DA:953,1
DA:954,0
DA:955,0
DA:956,0
DA:957,0
DA:958,0
DA:959,1
DA:960,0
DA:961,0
DA:962,0
DA:963,0
DA:964,0
DA:965,0
DA:966,0
DA:967,0
DA:968,0
DA:969,0
DA:970,0
DA:971,0
DA:972,0
DA:973,0
DA:974,1
DA:975,0
DA:976,0
DA:977,0
DA:978,0
DA:979,0
DA:980,0
DA:981,0
DA:982,0
DA:983,0
DA:984,0
DA:985,0
DA:986,0
DA:987,0
DA:988,0
DA:989,0
DA:990,0
DA:991,0
DA:992,0
DA:993,0
DA:994,0
DA:996,13199
DA:1010,325936
DA:1011,325936
DA:1012,325936
DA:1015,1
DA:1016,1
DA:1017,1
DA:1025,1
DA:1026,1
DA:1027,1
DA:1028,1
DA:1029,1
DA:1032,1
DA:1033,1
DA:1034,1
DA:1035,1
DA:1036,1
DA:1037,1
DA:1038,1
DA:1039,1
DA:1040,1
DA:1041,1
DA:1042,1
DA:1043,1
DA:1044,1
DA:1045,1
DA:1048,1
DA:1049,1
DA:1050,1
DA:1051,1
DA:1052,1
DA:1053,1
DA:1054,1
DA:1055,1
DA:1058,1
DA:1059,1
DA:1060,1
DA:1061,1
DA:1062,1
DA:1063,1
DA:1064,1
DA:1067,1
DA:1068,1
DA:1069,1
DA:1070,1
DA:1071,1
DA:1072,1
DA:1075,1
DA:1076,1
DA:1077,1
DA:1078,1
DA:1079,1
DA:1080,1
DA:1083,1
DA:1084,1
BRF:0
BRH:0
LF:345
LH:88
end_of_record
SF:/Users/d072013/SAPDevelop/gql_parser/src/lib.rs
FN:120,_RNvCs6qJP7SanZgw_10gql_parser18parse_and_validate
FN:159,_RNvCs6qJP7SanZgw_10gql_parser27parse_and_validate_internal
FN:151,_RNvCs6qJP7SanZgw_10gql_parser30parse_and_validate_with_config
FN:81,_RNvCs6qJP7SanZgw_10gql_parser5parse
FN:202,_RNvNtCs6qJP7SanZgw_10gql_parser5testss_21public_api_accessible
FN:215,_RNvNtCs6qJP7SanZgw_10gql_parser5testss_30parse_and_validate_valid_query
FN:250,_RNvNtCs6qJP7SanZgw_10gql_parser5testss_31parse_and_validate_syntax_error
FN:209,_RNvNtCs6qJP7SanZgw_10gql_parser5testss_32parse_includes_lexer_diagnostics
FN:223,_RNvNtCs6qJP7SanZgw_10gql_parser5testss_37parse_and_validate_undefined_variable
FN:234,_RNvNtCs6qJP7SanZgw_10gql_parser5testss_42parse_and_validate_with_config_strict_mode
FN:295,_RNvNtCs6qJP7SanZgw_10gql_parser5testss_45parse_and_validate_no_ast_without_diagnostics
FN:278,_RNvNtCs6qJP7SanZgw_10gql_parser5testss_55parse_and_validate_only_runs_semantics_on_parse_success
FN:258,_RNvNtCs6qJP7SanZgw_10gql_parser5testss_58parse_and_validate_preserves_semantic_diagnostic_structure
FN:120,_RNvCs87GxMFlPkU4_10gql_parser18parse_and_validate
FN:159,_RNvCs87GxMFlPkU4_10gql_parser27parse_and_validate_internal
FN:151,_RNvCs87GxMFlPkU4_10gql_parser30parse_and_validate_with_config
FN:81,_RNvCs87GxMFlPkU4_10gql_parser5parse
FNDA:6,_RNvCs6qJP7SanZgw_10gql_parser18parse_and_validate
FNDA:7,_RNvCs6qJP7SanZgw_10gql_parser27parse_and_validate_internal
FNDA:1,_RNvCs6qJP7SanZgw_10gql_parser30parse_and_validate_with_config
FNDA:23,_RNvCs6qJP7SanZgw_10gql_parser5parse
FNDA:1,_RNvNtCs6qJP7SanZgw_10gql_parser5testss_21public_api_accessible
FNDA:1,_RNvNtCs6qJP7SanZgw_10gql_parser5testss_30parse_and_validate_valid_query
FNDA:1,_RNvNtCs6qJP7SanZgw_10gql_parser5testss_31parse_and_validate_syntax_error
FNDA:1,_RNvNtCs6qJP7SanZgw_10gql_parser5testss_32parse_includes_lexer_diagnostics
FNDA:1,_RNvNtCs6qJP7SanZgw_10gql_parser5testss_37parse_and_validate_undefined_variable
FNDA:1,_RNvNtCs6qJP7SanZgw_10gql_parser5testss_42parse_and_validate_with_config_strict_mode
FNDA:1,_RNvNtCs6qJP7SanZgw_10gql_parser5testss_45parse_and_validate_no_ast_without_diagnostics
FNDA:1,_RNvNtCs6qJP7SanZgw_10gql_parser5testss_55parse_and_validate_only_runs_semantics_on_parse_success
FNDA:1,_RNvNtCs6qJP7SanZgw_10gql_parser5testss_58parse_and_validate_preserves_semantic_diagnostic_structure
FNDA:0,_RNvCs87GxMFlPkU4_10gql_parser18parse_and_validate
FNDA:0,_RNvCs87GxMFlPkU4_10gql_parser27parse_and_validate_internal
FNDA:0,_RNvCs87GxMFlPkU4_10gql_parser30parse_and_validate_with_config
FNDA:0,_RNvCs87GxMFlPkU4_10gql_parser5parse
FNF:13
FNH:13
DA:81,23
DA:82,23
DA:83,23
DA:84,23
DA:85,23
DA:86,23
DA:120,6
DA:121,6
DA:122,6
DA:151,1
DA:152,1
DA:153,1
DA:154,1
DA:155,1
DA:156,1
DA:159,7
DA:160,7
DA:161,7
DA:162,7
DA:164,7
DA:167,7
DA:168,2
DA:169,2
DA:170,2
DA:171,2
DA:172,5
DA:175,5
DA:176,0
DA:177,0
DA:178,0
DA:179,0
DA:180,0
DA:181,0
DA:185,5
DA:188,5
DA:189,5
DA:191,5
DA:192,5
DA:193,5
DA:194,5
DA:195,7
DA:202,1
DA:204,1
DA:205,1
DA:206,1
DA:209,1
DA:210,1
DA:211,1
DA:212,1
DA:215,1
DA:216,1
DA:217,1
DA:218,1
DA:219,1
DA:220,1
DA:223,1
DA:224,1
DA:225,1
DA:226,1
DA:227,1
DA:230,1
DA:231,1
DA:234,1
DA:235,1
DA:236,1
DA:237,1
DA:238,1
DA:239,1
DA:240,1
DA:241,1
DA:242,1
DA:243,1
DA:244,1
DA:247,1
DA:250,1
DA:251,1
DA:252,1
DA:253,1
DA:254,1
DA:255,1
DA:258,1
DA:260,1
DA:261,1
DA:263,1
DA:264,1
DA:268,1
DA:269,1
DA:271,1
DA:272,1
DA:275,1
DA:278,1
DA:280,1
DA:281,1
DA:283,1
DA:284,1
DA:287,1
DA:288,1
DA:290,1
DA:291,1
DA:292,1
DA:295,1
DA:299,1
BRF:0
BRH:0
LF:102
LH:96
end_of_record
SF:/Users/d072013/SAPDevelop/gql_parser/src/parser/base.rs
FN:203,_RNvNtNtNtCs6qJP7SanZgw_10gql_parser6parser4base5tests11make_tokens
FN:264,_RNvNtNtNtCs6qJP7SanZgw_10gql_parser6parser4base5testss_19token_stream_at_eof
FN:214,_RNvNtNtNtCs6qJP7SanZgw_10gql_parser6parser4base5testss_23token_stream_navigation
FN:254,_RNvNtNtNtCs6qJP7SanZgw_10gql_parser6parser4base5testss_27token_stream_expect_failure
FN:244,_RNvNtNtNtCs6qJP7SanZgw_10gql_parser6parser4base5testss_27token_stream_expect_success
FN:229,_RNvNtNtNtCs6qJP7SanZgw_10gql_parser6parser4base5testss_30token_stream_check_and_consume
FN:108,_RNvMNtNtCs6qJP7SanZgw_10gql_parser6parser4baseNtB2_11TokenStream12set_position
FN:118,_RNvMNtNtCs6qJP7SanZgw_10gql_parser6parser4baseNtB2_11TokenStream13previous_span
FN:29,_RNvMNtNtCs6qJP7SanZgw_10gql_parser6parser4baseNtB2_11TokenStream3new
FN:43,_RNvMNtNtCs6qJP7SanZgw_10gql_parser6parser4baseNtB2_11TokenStream4peek
FN:57,_RNvMNtNtCs6qJP7SanZgw_10gql_parser6parser4baseNtB2_11TokenStream5check
FN:76,_RNvMNtNtCs6qJP7SanZgw_10gql_parser6parser4baseNtB2_11TokenStream6expect
FN:113,_RNvMNtNtCs6qJP7SanZgw_10gql_parser6parser4baseNtB2_11TokenStream6tokens
FN:50,_RNvMNtNtCs6qJP7SanZgw_10gql_parser6parser4baseNtB2_11TokenStream7advance
FN:64,_RNvMNtNtCs6qJP7SanZgw_10gql_parser6parser4baseNtB2_11TokenStream7consume
FN:36,_RNvMNtNtCs6qJP7SanZgw_10gql_parser6parser4baseNtB2_11TokenStream7current
FN:103,_RNvMNtNtCs6qJP7SanZgw_10gql_parser6parser4baseNtB2_11TokenStream8position
FN:142,_RNvNtNtCs6qJP7SanZgw_10gql_parser6parser4base10consume_if
FN:131,_RNvNtNtCs6qJP7SanZgw_10gql_parser6parser4base11check_token
FN:194,_RNvNtNtCs6qJP7SanZgw_10gql_parser6parser4base11merge_spans
FN:159,_RNvNtNtCs6qJP7SanZgw_10gql_parser6parser4base12expect_token
FN:87,_RINvMNtNtCs6qJP7SanZgw_10gql_parser6parser4baseNtB3_11TokenStream10error_hereNtNtCs5bkkNO3hTYU_5alloc6string6StringEB7_
FN:87,_RINvMNtNtCs6qJP7SanZgw_10gql_parser6parser4baseNtB3_11TokenStream10error_hereReEB7_
FN:94,_RINvMNtNtCs6qJP7SanZgw_10gql_parser6parser4baseNtB3_11TokenStream20error_here_with_codeNtNtCs5bkkNO3hTYU_5alloc6string6StringEB7_
FN:94,_RINvMNtNtCs6qJP7SanZgw_10gql_parser6parser4baseNtB3_11TokenStream20error_here_with_codeReEB7_
FN:39,_RNCNvMNtNtCs6qJP7SanZgw_10gql_parser6parser4baseNtB4_11TokenStream7current0B8_
FN:87,_RINvMNtNtCs87GxMFlPkU4_10gql_parser6parser4baseNtB3_11TokenStream10error_hereNtNtCs5bkkNO3hTYU_5alloc6string6StringEB7_
FN:87,_RINvMNtNtCs87GxMFlPkU4_10gql_parser6parser4baseNtB3_11TokenStream10error_hereReEB7_
FN:94,_RINvMNtNtCs87GxMFlPkU4_10gql_parser6parser4baseNtB3_11TokenStream20error_here_with_codeNtNtCs5bkkNO3hTYU_5alloc6string6StringEB7_
FN:94,_RINvMNtNtCs87GxMFlPkU4_10gql_parser6parser4baseNtB3_11TokenStream20error_here_with_codeReEB7_
FN:39,_RNCNvMNtNtCs87GxMFlPkU4_10gql_parser6parser4baseNtB4_11TokenStream7current0B8_
FN:108,_RNvMNtNtCs87GxMFlPkU4_10gql_parser6parser4baseNtB2_11TokenStream12set_position
FN:118,_RNvMNtNtCs87GxMFlPkU4_10gql_parser6parser4baseNtB2_11TokenStream13previous_span
FN:29,_RNvMNtNtCs87GxMFlPkU4_10gql_parser6parser4baseNtB2_11TokenStream3new
FN:43,_RNvMNtNtCs87GxMFlPkU4_10gql_parser6parser4baseNtB2_11TokenStream4peek
FN:57,_RNvMNtNtCs87GxMFlPkU4_10gql_parser6parser4baseNtB2_11TokenStream5check
FN:76,_RNvMNtNtCs87GxMFlPkU4_10gql_parser6parser4baseNtB2_11TokenStream6expect
FN:113,_RNvMNtNtCs87GxMFlPkU4_10gql_parser6parser4baseNtB2_11TokenStream6tokens
FN:50,_RNvMNtNtCs87GxMFlPkU4_10gql_parser6parser4baseNtB2_11TokenStream7advance
FN:64,_RNvMNtNtCs87GxMFlPkU4_10gql_parser6parser4baseNtB2_11TokenStream7consume
FN:36,_RNvMNtNtCs87GxMFlPkU4_10gql_parser6parser4baseNtB2_11TokenStream7current
FN:103,_RNvMNtNtCs87GxMFlPkU4_10gql_parser6parser4baseNtB2_11TokenStream8position
FN:142,_RNvNtNtCs87GxMFlPkU4_10gql_parser6parser4base10consume_if
FN:131,_RNvNtNtCs87GxMFlPkU4_10gql_parser6parser4base11check_token
FN:194,_RNvNtNtCs87GxMFlPkU4_10gql_parser6parser4base11merge_spans
FN:159,_RNvNtNtCs87GxMFlPkU4_10gql_parser6parser4base12expect_token
FNDA:5,_RNvNtNtNtCs6qJP7SanZgw_10gql_parser6parser4base5tests11make_tokens
FNDA:1,_RNvNtNtNtCs6qJP7SanZgw_10gql_parser6parser4base5testss_19token_stream_at_eof
FNDA:1,_RNvNtNtNtCs6qJP7SanZgw_10gql_parser6parser4base5testss_23token_stream_navigation
FNDA:1,_RNvNtNtNtCs6qJP7SanZgw_10gql_parser6parser4base5testss_27token_stream_expect_failure
FNDA:1,_RNvNtNtNtCs6qJP7SanZgw_10gql_parser6parser4base5testss_27token_stream_expect_success
FNDA:1,_RNvNtNtNtCs6qJP7SanZgw_10gql_parser6parser4base5testss_30token_stream_check_and_consume
FNDA:191,_RNvMNtNtCs6qJP7SanZgw_10gql_parser6parser4baseNtB2_11TokenStream12set_position
FNDA:1,_RNvMNtNtCs6qJP7SanZgw_10gql_parser6parser4baseNtB2_11TokenStream13previous_span
FNDA:4916,_RNvMNtNtCs6qJP7SanZgw_10gql_parser6parser4baseNtB2_11TokenStream3new
FNDA:4657,_RNvMNtNtCs6qJP7SanZgw_10gql_parser6parser4baseNtB2_11TokenStream4peek
FNDA:28599,_RNvMNtNtCs6qJP7SanZgw_10gql_parser6parser4baseNtB2_11TokenStream5check
FNDA:111,_RNvMNtNtCs6qJP7SanZgw_10gql_parser6parser4baseNtB2_11TokenStream6expect
FNDA:165,_RNvMNtNtCs6qJP7SanZgw_10gql_parser6parser4baseNtB2_11TokenStream6tokens
FNDA:5061,_RNvMNtNtCs6qJP7SanZgw_10gql_parser6parser4baseNtB2_11TokenStream7advance
FNDA:30,_RNvMNtNtCs6qJP7SanZgw_10gql_parser6parser4baseNtB2_11TokenStream7consume
FNDA:76268,_RNvMNtNtCs6qJP7SanZgw_10gql_parser6parser4baseNtB2_11TokenStream7current
FNDA:158,_RNvMNtNtCs6qJP7SanZgw_10gql_parser6parser4baseNtB2_11TokenStream8position
FNDA:32,_RNvNtNtCs6qJP7SanZgw_10gql_parser6parser4base10consume_if
FNDA:117,_RNvNtNtCs6qJP7SanZgw_10gql_parser6parser4base11check_token
FNDA:0,_RNvNtNtCs6qJP7SanZgw_10gql_parser6parser4base11merge_spans
FNDA:47,_RNvNtNtCs6qJP7SanZgw_10gql_parser6parser4base12expect_token
FNDA:2,_RINvMNtNtCs6qJP7SanZgw_10gql_parser6parser4baseNtB3_11TokenStream10error_hereNtNtCs5bkkNO3hTYU_5alloc6string6StringEB7_
FNDA:3,_RINvMNtNtCs6qJP7SanZgw_10gql_parser6parser4baseNtB3_11TokenStream10error_hereReEB7_
FNDA:0,_RINvMNtNtCs6qJP7SanZgw_10gql_parser6parser4baseNtB3_11TokenStream20error_here_with_codeNtNtCs5bkkNO3hTYU_5alloc6string6StringEB7_
FNDA:1,_RINvMNtNtCs6qJP7SanZgw_10gql_parser6parser4baseNtB3_11TokenStream20error_here_with_codeReEB7_
FNDA:0,_RNCNvMNtNtCs6qJP7SanZgw_10gql_parser6parser4baseNtB4_11TokenStream7current0B8_
FNDA:0,_RINvMNtNtCs87GxMFlPkU4_10gql_parser6parser4baseNtB3_11TokenStream10error_hereNtNtCs5bkkNO3hTYU_5alloc6string6StringEB7_
FNDA:0,_RINvMNtNtCs87GxMFlPkU4_10gql_parser6parser4baseNtB3_11TokenStream10error_hereReEB7_
FNDA:0,_RINvMNtNtCs87GxMFlPkU4_10gql_parser6parser4baseNtB3_11TokenStream20error_here_with_codeNtNtCs5bkkNO3hTYU_5alloc6string6StringEB7_
FNDA:0,_RINvMNtNtCs87GxMFlPkU4_10gql_parser6parser4baseNtB3_11TokenStream20error_here_with_codeReEB7_
FNDA:0,_RNCNvMNtNtCs87GxMFlPkU4_10gql_parser6parser4baseNtB4_11TokenStream7current0B8_
FNDA:0,_RNvMNtNtCs87GxMFlPkU4_10gql_parser6parser4baseNtB2_11TokenStream12set_position
FNDA:0,_RNvMNtNtCs87GxMFlPkU4_10gql_parser6parser4baseNtB2_11TokenStream13previous_span
FNDA:0,_RNvMNtNtCs87GxMFlPkU4_10gql_parser6parser4baseNtB2_11TokenStream3new
FNDA:0,_RNvMNtNtCs87GxMFlPkU4_10gql_parser6parser4baseNtB2_11TokenStream4peek
FNDA:0,_RNvMNtNtCs87GxMFlPkU4_10gql_parser6parser4baseNtB2_11TokenStream5check
FNDA:0,_RNvMNtNtCs87GxMFlPkU4_10gql_parser6parser4baseNtB2_11TokenStream6expect
FNDA:0,_RNvMNtNtCs87GxMFlPkU4_10gql_parser6parser4baseNtB2_11TokenStream6tokens
FNDA:0,_RNvMNtNtCs87GxMFlPkU4_10gql_parser6parser4baseNtB2_11TokenStream7advance
FNDA:0,_RNvMNtNtCs87GxMFlPkU4_10gql_parser6parser4baseNtB2_11TokenStream7consume
FNDA:0,_RNvMNtNtCs87GxMFlPkU4_10gql_parser6parser4baseNtB2_11TokenStream7current
FNDA:0,_RNvMNtNtCs87GxMFlPkU4_10gql_parser6parser4baseNtB2_11TokenStream8position
FNDA:0,_RNvNtNtCs87GxMFlPkU4_10gql_parser6parser4base10consume_if
FNDA:0,_RNvNtNtCs87GxMFlPkU4_10gql_parser6parser4base11check_token
FNDA:0,_RNvNtNtCs87GxMFlPkU4_10gql_parser6parser4base11merge_spans
FNDA:0,_RNvNtNtCs87GxMFlPkU4_10gql_parser6parser4base12expect_token
FNF:24
FNH:22
DA:29,4916
DA:30,4916
DA:31,4916
DA:36,76268
DA:37,76268
DA:38,76268
DA:39,76268
DA:40,76268
DA:43,4657
DA:44,4657
DA:45,4657
DA:50,5061
DA:51,5061
DA:52,5060
DA:53,5060
DA:54,5061
DA:57,28599
DA:58,28599
DA:59,28599
DA:64,30
DA:65,30
DA:66,11
DA:67,11
DA:69,19
DA:71,30
DA:76,111
DA:77,111
DA:78,110
DA:79,110
DA:80,110
DA:82,1
DA:84,111
DA:87,5
DA:88,5
DA:89,5
DA:91,5
DA:94,1
DA:95,1
DA:96,1
DA:97,1
DA:98,1
DA:100,1
DA:103,158
DA:104,158
DA:105,158
DA:108,191
DA:109,191
DA:110,191
DA:113,165
DA:114,165
DA:115,165
DA:118,1
DA:119,1
DA:120,1
DA:122,0
DA:124,1
DA:131,117
DA:132,117
DA:133,1
DA:134,116
DA:136,116
DA:137,116
DA:138,116
DA:139,117
DA:142,32
DA:143,32
DA:144,0
DA:145,32
DA:147,32
DA:148,19
DA:149,13
DA:153,13
DA:154,13
DA:155,32
DA:159,47
DA:160,47
DA:161,47
DA:162,47
DA:163,47
DA:164,47
DA:165,47
DA:166,0
DA:167,0
DA:168,0
DA:169,0
DA:170,47
DA:172,47
DA:173,47
DA:175,47
DA:176,47
DA:179,47
DA:180,47
DA:182,0
DA:183,0
DA:184,0
DA:185,0
DA:186,0
DA:187,0
DA:188,0
DA:189,0
DA:191,47
DA:194,0
DA:195,0
DA:196,0
DA:203,5
DA:204,5
DA:205,5
DA:206,5
DA:207,5
DA:208,5
DA:209,5
DA:211,5
DA:214,1
DA:215,1
DA:216,1
DA:218,1
DA:219,1
DA:221,1
DA:222,1
DA:224,1
DA:225,1
DA:226,1
DA:229,1
DA:230,1
DA:231,1
DA:233,1
DA:234,1
DA:236,1
DA:237,1
DA:239,1
DA:240,1
DA:241,1
DA:244,1
DA:245,1
DA:246,1
DA:248,1
DA:249,1
DA:250,1
DA:251,1
DA:254,1
DA:255,1
DA:256,1
DA:258,1
DA:259,1
DA:260,1
DA:261,1
DA:264,1
DA:265,1
DA:266,1
DA:269,5
DA:270,4
DA:271,4
DA:274,1
DA:275,1
DA:276,1
BRF:0
BRH:0
LF:156
LH:138
end_of_record
SF:/Users/d072013/SAPDevelop/gql_parser/src/parser/expression.rs
FN:1480,_RNvNtNtNtCs6qJP7SanZgw_10gql_parser6parser10expression5tests10parse_expr
FN:1720,_RNvNtNtNtCs6qJP7SanZgw_10gql_parser6parser10expression5testss_17parses_predicates
FN:1704,_RNvNtNtNtCs6qJP7SanZgw_10gql_parser6parser10expression5testss_20parses_case_and_cast
FN:1491,_RNvNtNtNtCs6qJP7SanZgw_10gql_parser6parser10expression5testss_21parses_basic_literals
FN:1515,_RNvNtNtNtCs6qJP7SanZgw_10gql_parser6parser10expression5testss_24parses_temporal_literals
FN:1531,_RNvNtNtNtCs6qJP7SanZgw_10gql_parser6parser10expression5testss_25parses_temporal_functions
FN:1620,_RNvNtNtNtCs6qJP7SanZgw_10gql_parser6parser10expression5testss_27rejects_chained_comparisons
FN:1736,_RNvNtNtNtCs6qJP7SanZgw_10gql_parser6parser10expression5testss_28parses_type_annotation_forms
FN:1626,_RNvNtNtNtCs6qJP7SanZgw_10gql_parser6parser10expression5testss_31parses_property_reference_chain
FN:1602,_RNvNtNtNtCs6qJP7SanZgw_10gql_parser6parser10expression5testss_33enforces_trailing_token_rejection
FN:1692,_RNvNtNtNtCs6qJP7SanZgw_10gql_parser6parser10expression5testss_33parses_function_over_named_window
FN:1818,_RNvNtNtNtCs6qJP7SanZgw_10gql_parser6parser10expression5testss_37parses_graph_keyword_expression_forms
FN:1830,_RNvNtNtNtCs6qJP7SanZgw_10gql_parser6parser10expression5testss_38parses_binding_table_nested_query_form
FN:1798,_RNvNtNtNtCs6qJP7SanZgw_10gql_parser6parser10expression5testss_39parses_value_nested_query_specification
FN:1762,_RNvNtNtNtCs6qJP7SanZgw_10gql_parser6parser10expression5testss_40parses_collection_constructors_and_forms
FN:1782,_RNvNtNtNtCs6qJP7SanZgw_10gql_parser6parser10expression5testss_42parses_graph_binding_and_value_expressions
FN:1806,_RNvNtNtNtCs6qJP7SanZgw_10gql_parser6parser10expression5testss_42rejects_legacy_parenthesized_value_payload
FN:1570,_RNvNtNtNtCs6qJP7SanZgw_10gql_parser6parser10expression5testss_44parses_specialized_string_and_list_functions
FN:1655,_RNvNtNtNtCs6qJP7SanZgw_10gql_parser6parser10expression5testss_45parses_binary_set_function_with_two_arguments
FN:1608,_RNvNtNtNtCs6qJP7SanZgw_10gql_parser6parser10expression5testss_48concatenation_has_lower_precedence_than_additive
FN:1643,_RNvNtNtNtCs6qJP7SanZgw_10gql_parser6parser10expression5testss_48property_reference_rejects_reserved_keyword_name
FN:1673,_RNvNtNtNtCs6qJP7SanZgw_10gql_parser6parser10expression5testss_51rejects_non_standard_within_group_percentile_syntax
FN:1637,_RNvNtNtNtCs6qJP7SanZgw_10gql_parser6parser10expression5testss_52property_reference_accepts_non_reserved_keyword_name
FN:1680,_RNvNtNtNtCs6qJP7SanZgw_10gql_parser6parser10expression5testss_55parses_function_over_parenthesized_window_specification
FN:1748,_RNvNtNtNtCs6qJP7SanZgw_10gql_parser6parser10expression5testss_57parses_exists_variants_and_reports_unclosed_graph_pattern
FN:1649,_RNvNtNtNtCs6qJP7SanZgw_10gql_parser6parser10expression5testss_58property_reference_accepts_delimited_reserved_keyword_name
FN:524,_RNvMNtNtCs6qJP7SanZgw_10gql_parser6parser10expressionNtB2_16ExpressionParser13parse_literal
FN:952,_RNvMNtNtCs6qJP7SanZgw_10gql_parser6parser10expressionNtB2_16ExpressionParser16check_word_token
FN:37,_RNvMNtNtCs6qJP7SanZgw_10gql_parser6parser10expressionNtB2_16ExpressionParser16parse_expression
FN:1041,_RNvMNtNtCs6qJP7SanZgw_10gql_parser6parser10expressionNtB2_16ExpressionParser17parse_simple_case
FN:620,_RNvMNtNtCs6qJP7SanZgw_10gql_parser6parser10expressionNtB2_16ExpressionParser18parse_list_literal
FN:681,_RNvMNtNtCs6qJP7SanZgw_10gql_parser6parser10expressionNtB2_16ExpressionParser18parse_record_field
FN:800,_RNvMNtNtCs6qJP7SanZgw_10gql_parser6parser10expressionNtB2_16ExpressionParser19parse_function_call
FN:878,_RNvMNtNtCs6qJP7SanZgw_10gql_parser6parser10expressionNtB2_16ExpressionParser19parse_function_name
FN:96,_RNvMNtNtCs6qJP7SanZgw_10gql_parser6parser10expressionNtB2_16ExpressionParser19parse_is_expression
FN:41,_RNvMNtNtCs6qJP7SanZgw_10gql_parser6parser10expressionNtB2_16ExpressionParser19parse_or_expression
FN:1066,_RNvMNtNtCs6qJP7SanZgw_10gql_parser6parser10expressionNtB2_16ExpressionParser19parse_searched_case
FN:67,_RNvMNtNtCs6qJP7SanZgw_10gql_parser6parser10expressionNtB2_16ExpressionParser20parse_and_expression
FN:80,_RNvMNtNtCs6qJP7SanZgw_10gql_parser6parser10expressionNtB2_16ExpressionParser20parse_not_expression
FN:640,_RNvMNtNtCs6qJP7SanZgw_10gql_parser6parser10expressionNtB2_16ExpressionParser20parse_record_literal
FN:1196,_RNvMNtNtCs6qJP7SanZgw_10gql_parser6parser10expressionNtB2_16ExpressionParser20parse_same_predicate
FN:54,_RNvMNtNtCs6qJP7SanZgw_10gql_parser6parser10expressionNtB2_16ExpressionParser20parse_xor_expression
FN:1031,_RNvMNtNtCs6qJP7SanZgw_10gql_parser6parser10expressionNtB2_16ExpressionParser21parse_case_expression
FN:1115,_RNvMNtNtCs6qJP7SanZgw_10gql_parser6parser10expressionNtB2_16ExpressionParser21parse_cast_expression
FN:963,_RNvMNtNtCs6qJP7SanZgw_10gql_parser6parser10expressionNtB2_16ExpressionParser22classify_function_name
FN:1259,_RNvMNtNtCs6qJP7SanZgw_10gql_parser6parser10expressionNtB2_16ExpressionParser22is_comparison_operator
FN:726,_RNvMNtNtCs6qJP7SanZgw_10gql_parser6parser10expressionNtB2_16ExpressionParser22parse_graph_expression
FN:1244,_RNvMNtNtCs6qJP7SanZgw_10gql_parser6parser10expressionNtB2_16ExpressionParser22parse_label_expression
FN:706,_RNvMNtNtCs6qJP7SanZgw_10gql_parser6parser10expressionNtB2_16ExpressionParser22parse_path_constructor
FN:580,_RNvMNtNtCs6qJP7SanZgw_10gql_parser6parser10expressionNtB2_16ExpressionParser22parse_temporal_literal
FN:302,_RNvMNtNtCs6qJP7SanZgw_10gql_parser6parser10expressionNtB2_16ExpressionParser22parse_unary_expression
FN:1130,_RNvMNtNtCs6qJP7SanZgw_10gql_parser6parser10expressionNtB2_16ExpressionParser23parse_exists_expression
FN:1232,_RNvMNtNtCs6qJP7SanZgw_10gql_parser6parser10expressionNtB2_16ExpressionParser23parse_value_type_inline
FN:930,_RNvMNtNtCs6qJP7SanZgw_10gql_parser6parser10expressionNtB2_16ExpressionParser23token_name_for_function
FN:1300,_RNvMNtNtCs6qJP7SanZgw_10gql_parser6parser10expressionNtB2_16ExpressionParser24parse_aggregate_function
FN:519,_RNvMNtNtCs6qJP7SanZgw_10gql_parser6parser10expressionNtB2_16ExpressionParser24parse_literal_expression
FN:330,_RNvMNtNtCs6qJP7SanZgw_10gql_parser6parser10expressionNtB2_16ExpressionParser24parse_postfix_expression
FN:379,_RNvMNtNtCs6qJP7SanZgw_10gql_parser6parser10expressionNtB2_16ExpressionParser24parse_primary_expression
FN:660,_RNvMNtNtCs6qJP7SanZgw_10gql_parser6parser10expressionNtB2_16ExpressionParser24parse_record_constructor
FN:1437,_RNvMNtNtCs6qJP7SanZgw_10gql_parser6parser10expressionNtB2_16ExpressionParser24parse_set_quantifier_opt
FN:1089,_RNvMNtNtCs6qJP7SanZgw_10gql_parser6parser10expressionNtB2_16ExpressionParser24parse_simple_when_clause
FN:263,_RNvMNtNtCs6qJP7SanZgw_10gql_parser6parser10expressionNtB2_16ExpressionParser25parse_additive_expression
FN:1393,_RNvMNtNtCs6qJP7SanZgw_10gql_parser6parser10expressionNtB2_16ExpressionParser25parse_binary_set_function
FN:1346,_RNvMNtNtCs6qJP7SanZgw_10gql_parser6parser10expressionNtB2_16ExpressionParser26parse_general_set_function
FN:827,_RNvMNtNtCs6qJP7SanZgw_10gql_parser6parser10expressionNtB2_16ExpressionParser26parse_optional_over_clause
FN:1102,_RNvMNtNtCs6qJP7SanZgw_10gql_parser6parser10expressionNtB2_16ExpressionParser26parse_searched_when_clause
FN:1272,_RNvMNtNtCs6qJP7SanZgw_10gql_parser6parser10expressionNtB2_16ExpressionParser27consume_comparison_operator
FN:227,_RNvMNtNtCs6qJP7SanZgw_10gql_parser6parser10expressionNtB2_16ExpressionParser27parse_comparison_expression
FN:940,_RNvMNtNtCs6qJP7SanZgw_10gql_parser6parser10expressionNtB2_16ExpressionParser28token_name_for_property_name
FN:1173,_RNvMNtNtCs6qJP7SanZgw_10gql_parser6parser10expressionNtB2_16ExpressionParser29parse_all_different_predicate
FN:750,_RNvMNtNtCs6qJP7SanZgw_10gql_parser6parser10expressionNtB2_16ExpressionParser30parse_binding_table_expression
FN:245,_RNvMNtNtCs6qJP7SanZgw_10gql_parser6parser10expressionNtB2_16ExpressionParser30parse_concatenation_expression
FN:282,_RNvMNtNtCs6qJP7SanZgw_10gql_parser6parser10expressionNtB2_16ExpressionParser31parse_multiplicative_expression
FN:1210,_RNvMNtNtCs6qJP7SanZgw_10gql_parser6parser10expressionNtB2_16ExpressionParser31parse_property_exists_predicate
FN:768,_RNvMNtNtCs6qJP7SanZgw_10gql_parser6parser10expressionNtB2_16ExpressionParser31parse_value_subquery_expression
FN:575,_RNvMNtNtCs6qJP7SanZgw_10gql_parser6parser10expressionNtB2_16ExpressionParser33parse_temporal_literal_expression
FN:30,_RNvMNtNtCs6qJP7SanZgw_10gql_parser6parser10expressionNtB2_16ExpressionParser3new
FN:779,_RNvMNtNtCs6qJP7SanZgw_10gql_parser6parser10expressionNtB2_16ExpressionParser43parse_nested_query_specification_expression
FN:1453,_RNvNtNtCs6qJP7SanZgw_10gql_parser6parser10expression16parse_expression
FN:399,_RNCNvMNtNtCs6qJP7SanZgw_10gql_parser6parser10expressionNtB4_16ExpressionParser24parse_primary_expressions_0B8_
FN:524,_RNvMNtNtCs87GxMFlPkU4_10gql_parser6parser10expressionNtB2_16ExpressionParser13parse_literal
FN:952,_RNvMNtNtCs87GxMFlPkU4_10gql_parser6parser10expressionNtB2_16ExpressionParser16check_word_token
FN:37,_RNvMNtNtCs87GxMFlPkU4_10gql_parser6parser10expressionNtB2_16ExpressionParser16parse_expression
FN:1041,_RNvMNtNtCs87GxMFlPkU4_10gql_parser6parser10expressionNtB2_16ExpressionParser17parse_simple_case
FN:620,_RNvMNtNtCs87GxMFlPkU4_10gql_parser6parser10expressionNtB2_16ExpressionParser18parse_list_literal
FN:681,_RNvMNtNtCs87GxMFlPkU4_10gql_parser6parser10expressionNtB2_16ExpressionParser18parse_record_field
FN:800,_RNvMNtNtCs87GxMFlPkU4_10gql_parser6parser10expressionNtB2_16ExpressionParser19parse_function_call
FN:878,_RNvMNtNtCs87GxMFlPkU4_10gql_parser6parser10expressionNtB2_16ExpressionParser19parse_function_name
FN:96,_RNvMNtNtCs87GxMFlPkU4_10gql_parser6parser10expressionNtB2_16ExpressionParser19parse_is_expression
FN:41,_RNvMNtNtCs87GxMFlPkU4_10gql_parser6parser10expressionNtB2_16ExpressionParser19parse_or_expression
FN:1066,_RNvMNtNtCs87GxMFlPkU4_10gql_parser6parser10expressionNtB2_16ExpressionParser19parse_searched_case
FN:67,_RNvMNtNtCs87GxMFlPkU4_10gql_parser6parser10expressionNtB2_16ExpressionParser20parse_and_expression
FN:80,_RNvMNtNtCs87GxMFlPkU4_10gql_parser6parser10expressionNtB2_16ExpressionParser20parse_not_expression
FN:640,_RNvMNtNtCs87GxMFlPkU4_10gql_parser6parser10expressionNtB2_16ExpressionParser20parse_record_literal
FN:1196,_RNvMNtNtCs87GxMFlPkU4_10gql_parser6parser10expressionNtB2_16ExpressionParser20parse_same_predicate
FN:54,_RNvMNtNtCs87GxMFlPkU4_10gql_parser6parser10expressionNtB2_16ExpressionParser20parse_xor_expression
FN:1031,_RNvMNtNtCs87GxMFlPkU4_10gql_parser6parser10expressionNtB2_16ExpressionParser21parse_case_expression
FN:1115,_RNvMNtNtCs87GxMFlPkU4_10gql_parser6parser10expressionNtB2_16ExpressionParser21parse_cast_expression
FN:963,_RNvMNtNtCs87GxMFlPkU4_10gql_parser6parser10expressionNtB2_16ExpressionParser22classify_function_name
FN:1259,_RNvMNtNtCs87GxMFlPkU4_10gql_parser6parser10expressionNtB2_16ExpressionParser22is_comparison_operator
FN:726,_RNvMNtNtCs87GxMFlPkU4_10gql_parser6parser10expressionNtB2_16ExpressionParser22parse_graph_expression
FN:1244,_RNvMNtNtCs87GxMFlPkU4_10gql_parser6parser10expressionNtB2_16ExpressionParser22parse_label_expression
FN:706,_RNvMNtNtCs87GxMFlPkU4_10gql_parser6parser10expressionNtB2_16ExpressionParser22parse_path_constructor
FN:580,_RNvMNtNtCs87GxMFlPkU4_10gql_parser6parser10expressionNtB2_16ExpressionParser22parse_temporal_literal
FN:302,_RNvMNtNtCs87GxMFlPkU4_10gql_parser6parser10expressionNtB2_16ExpressionParser22parse_unary_expression
FN:1130,_RNvMNtNtCs87GxMFlPkU4_10gql_parser6parser10expressionNtB2_16ExpressionParser23parse_exists_expression
FN:1232,_RNvMNtNtCs87GxMFlPkU4_10gql_parser6parser10expressionNtB2_16ExpressionParser23parse_value_type_inline
FN:930,_RNvMNtNtCs87GxMFlPkU4_10gql_parser6parser10expressionNtB2_16ExpressionParser23token_name_for_function
FN:1300,_RNvMNtNtCs87GxMFlPkU4_10gql_parser6parser10expressionNtB2_16ExpressionParser24parse_aggregate_function
FN:519,_RNvMNtNtCs87GxMFlPkU4_10gql_parser6parser10expressionNtB2_16ExpressionParser24parse_literal_expression
FN:330,_RNvMNtNtCs87GxMFlPkU4_10gql_parser6parser10expressionNtB2_16ExpressionParser24parse_postfix_expression
FN:379,_RNvMNtNtCs87GxMFlPkU4_10gql_parser6parser10expressionNtB2_16ExpressionParser24parse_primary_expression
FN:660,_RNvMNtNtCs87GxMFlPkU4_10gql_parser6parser10expressionNtB2_16ExpressionParser24parse_record_constructor
FN:1437,_RNvMNtNtCs87GxMFlPkU4_10gql_parser6parser10expressionNtB2_16ExpressionParser24parse_set_quantifier_opt
FN:1089,_RNvMNtNtCs87GxMFlPkU4_10gql_parser6parser10expressionNtB2_16ExpressionParser24parse_simple_when_clause
FN:263,_RNvMNtNtCs87GxMFlPkU4_10gql_parser6parser10expressionNtB2_16ExpressionParser25parse_additive_expression
FN:1393,_RNvMNtNtCs87GxMFlPkU4_10gql_parser6parser10expressionNtB2_16ExpressionParser25parse_binary_set_function
FN:1346,_RNvMNtNtCs87GxMFlPkU4_10gql_parser6parser10expressionNtB2_16ExpressionParser26parse_general_set_function
FN:827,_RNvMNtNtCs87GxMFlPkU4_10gql_parser6parser10expressionNtB2_16ExpressionParser26parse_optional_over_clause
FN:1102,_RNvMNtNtCs87GxMFlPkU4_10gql_parser6parser10expressionNtB2_16ExpressionParser26parse_searched_when_clause
FN:1272,_RNvMNtNtCs87GxMFlPkU4_10gql_parser6parser10expressionNtB2_16ExpressionParser27consume_comparison_operator
FN:227,_RNvMNtNtCs87GxMFlPkU4_10gql_parser6parser10expressionNtB2_16ExpressionParser27parse_comparison_expression
FN:940,_RNvMNtNtCs87GxMFlPkU4_10gql_parser6parser10expressionNtB2_16ExpressionParser28token_name_for_property_name
FN:1173,_RNvMNtNtCs87GxMFlPkU4_10gql_parser6parser10expressionNtB2_16ExpressionParser29parse_all_different_predicate
FN:750,_RNvMNtNtCs87GxMFlPkU4_10gql_parser6parser10expressionNtB2_16ExpressionParser30parse_binding_table_expression
FN:245,_RNvMNtNtCs87GxMFlPkU4_10gql_parser6parser10expressionNtB2_16ExpressionParser30parse_concatenation_expression
FN:282,_RNvMNtNtCs87GxMFlPkU4_10gql_parser6parser10expressionNtB2_16ExpressionParser31parse_multiplicative_expression
FN:1210,_RNvMNtNtCs87GxMFlPkU4_10gql_parser6parser10expressionNtB2_16ExpressionParser31parse_property_exists_predicate
FN:768,_RNvMNtNtCs87GxMFlPkU4_10gql_parser6parser10expressionNtB2_16ExpressionParser31parse_value_subquery_expression
FN:575,_RNvMNtNtCs87GxMFlPkU4_10gql_parser6parser10expressionNtB2_16ExpressionParser33parse_temporal_literal_expression
FN:30,_RNvMNtNtCs87GxMFlPkU4_10gql_parser6parser10expressionNtB2_16ExpressionParser3new
FN:779,_RNvMNtNtCs87GxMFlPkU4_10gql_parser6parser10expressionNtB2_16ExpressionParser43parse_nested_query_specification_expression
FN:1453,_RNvNtNtCs87GxMFlPkU4_10gql_parser6parser10expression16parse_expression
FN:399,_RNCNvMNtNtCs87GxMFlPkU4_10gql_parser6parser10expressionNtB4_16ExpressionParser24parse_primary_expressions_0B8_
FNDA:50,_RNvNtNtNtCs6qJP7SanZgw_10gql_parser6parser10expression5tests10parse_expr
FNDA:1,_RNvNtNtNtCs6qJP7SanZgw_10gql_parser6parser10expression5testss_17parses_predicates
FNDA:1,_RNvNtNtNtCs6qJP7SanZgw_10gql_parser6parser10expression5testss_20parses_case_and_cast
FNDA:1,_RNvNtNtNtCs6qJP7SanZgw_10gql_parser6parser10expression5testss_21parses_basic_literals
FNDA:1,_RNvNtNtNtCs6qJP7SanZgw_10gql_parser6parser10expression5testss_24parses_temporal_literals
FNDA:1,_RNvNtNtNtCs6qJP7SanZgw_10gql_parser6parser10expression5testss_25parses_temporal_functions
FNDA:1,_RNvNtNtNtCs6qJP7SanZgw_10gql_parser6parser10expression5testss_27rejects_chained_comparisons
FNDA:1,_RNvNtNtNtCs6qJP7SanZgw_10gql_parser6parser10expression5testss_28parses_type_annotation_forms
FNDA:1,_RNvNtNtNtCs6qJP7SanZgw_10gql_parser6parser10expression5testss_31parses_property_reference_chain
FNDA:1,_RNvNtNtNtCs6qJP7SanZgw_10gql_parser6parser10expression5testss_33enforces_trailing_token_rejection
FNDA:1,_RNvNtNtNtCs6qJP7SanZgw_10gql_parser6parser10expression5testss_33parses_function_over_named_window
FNDA:1,_RNvNtNtNtCs6qJP7SanZgw_10gql_parser6parser10expression5testss_37parses_graph_keyword_expression_forms
FNDA:1,_RNvNtNtNtCs6qJP7SanZgw_10gql_parser6parser10expression5testss_38parses_binding_table_nested_query_form
FNDA:1,_RNvNtNtNtCs6qJP7SanZgw_10gql_parser6parser10expression5testss_39parses_value_nested_query_specification
FNDA:1,_RNvNtNtNtCs6qJP7SanZgw_10gql_parser6parser10expression5testss_40parses_collection_constructors_and_forms
FNDA:1,_RNvNtNtNtCs6qJP7SanZgw_10gql_parser6parser10expression5testss_42parses_graph_binding_and_value_expressions
FNDA:1,_RNvNtNtNtCs6qJP7SanZgw_10gql_parser6parser10expression5testss_42rejects_legacy_parenthesized_value_payload
FNDA:1,_RNvNtNtNtCs6qJP7SanZgw_10gql_parser6parser10expression5testss_44parses_specialized_string_and_list_functions
FNDA:1,_RNvNtNtNtCs6qJP7SanZgw_10gql_parser6parser10expression5testss_45parses_binary_set_function_with_two_arguments
FNDA:1,_RNvNtNtNtCs6qJP7SanZgw_10gql_parser6parser10expression5testss_48concatenation_has_lower_precedence_than_additive
FNDA:1,_RNvNtNtNtCs6qJP7SanZgw_10gql_parser6parser10expression5testss_48property_reference_rejects_reserved_keyword_name
FNDA:1,_RNvNtNtNtCs6qJP7SanZgw_10gql_parser6parser10expression5testss_51rejects_non_standard_within_group_percentile_syntax
FNDA:1,_RNvNtNtNtCs6qJP7SanZgw_10gql_parser6parser10expression5testss_52property_reference_accepts_non_reserved_keyword_name
FNDA:1,_RNvNtNtNtCs6qJP7SanZgw_10gql_parser6parser10expression5testss_55parses_function_over_parenthesized_window_specification
FNDA:1,_RNvNtNtNtCs6qJP7SanZgw_10gql_parser6parser10expression5testss_57parses_exists_variants_and_reports_unclosed_graph_pattern
FNDA:1,_RNvNtNtNtCs6qJP7SanZgw_10gql_parser6parser10expression5testss_58property_reference_accepts_delimited_reserved_keyword_name
FNDA:51,_RNvMNtNtCs6qJP7SanZgw_10gql_parser6parser10expressionNtB2_16ExpressionParser13parse_literal
FNDA:18,_RNvMNtNtCs6qJP7SanZgw_10gql_parser6parser10expressionNtB2_16ExpressionParser16check_word_token
FNDA:4693,_RNvMNtNtCs6qJP7SanZgw_10gql_parser6parser10expressionNtB2_16ExpressionParser16parse_expression
FNDA:0,_RNvMNtNtCs6qJP7SanZgw_10gql_parser6parser10expressionNtB2_16ExpressionParser17parse_simple_case
FNDA:1,_RNvMNtNtCs6qJP7SanZgw_10gql_parser6parser10expressionNtB2_16ExpressionParser18parse_list_literal
FNDA:3,_RNvMNtNtCs6qJP7SanZgw_10gql_parser6parser10expressionNtB2_16ExpressionParser18parse_record_field
FNDA:12,_RNvMNtNtCs6qJP7SanZgw_10gql_parser6parser10expressionNtB2_16ExpressionParser19parse_function_call
FNDA:12,_RNvMNtNtCs6qJP7SanZgw_10gql_parser6parser10expressionNtB2_16ExpressionParser19parse_function_name
FNDA:4693,_RNvMNtNtCs6qJP7SanZgw_10gql_parser6parser10expressionNtB2_16ExpressionParser19parse_is_expression
FNDA:4693,_RNvMNtNtCs6qJP7SanZgw_10gql_parser6parser10expressionNtB2_16ExpressionParser19parse_or_expression
FNDA:1,_RNvMNtNtCs6qJP7SanZgw_10gql_parser6parser10expressionNtB2_16ExpressionParser19parse_searched_case
FNDA:4693,_RNvMNtNtCs6qJP7SanZgw_10gql_parser6parser10expressionNtB2_16ExpressionParser20parse_and_expression
FNDA:4693,_RNvMNtNtCs6qJP7SanZgw_10gql_parser6parser10expressionNtB2_16ExpressionParser20parse_not_expression
FNDA:1,_RNvMNtNtCs6qJP7SanZgw_10gql_parser6parser10expressionNtB2_16ExpressionParser20parse_record_literal
FNDA:0,_RNvMNtNtCs6qJP7SanZgw_10gql_parser6parser10expressionNtB2_16ExpressionParser20parse_same_predicate
FNDA:4693,_RNvMNtNtCs6qJP7SanZgw_10gql_parser6parser10expressionNtB2_16ExpressionParser20parse_xor_expression
FNDA:1,_RNvMNtNtCs6qJP7SanZgw_10gql_parser6parser10expressionNtB2_16ExpressionParser21parse_case_expression
FNDA:2,_RNvMNtNtCs6qJP7SanZgw_10gql_parser6parser10expressionNtB2_16ExpressionParser21parse_cast_expression
FNDA:9,_RNvMNtNtCs6qJP7SanZgw_10gql_parser6parser10expressionNtB2_16ExpressionParser22classify_function_name
FNDA:9,_RNvMNtNtCs6qJP7SanZgw_10gql_parser6parser10expressionNtB2_16ExpressionParser22is_comparison_operator
FNDA:3,_RNvMNtNtCs6qJP7SanZgw_10gql_parser6parser10expressionNtB2_16ExpressionParser22parse_graph_expression
FNDA:0,_RNvMNtNtCs6qJP7SanZgw_10gql_parser6parser10expressionNtB2_16ExpressionParser22parse_label_expression
FNDA:1,_RNvMNtNtCs6qJP7SanZgw_10gql_parser6parser10expressionNtB2_16ExpressionParser22parse_path_constructor
FNDA:4,_RNvMNtNtCs6qJP7SanZgw_10gql_parser6parser10expressionNtB2_16ExpressionParser22parse_temporal_literal
FNDA:4713,_RNvMNtNtCs6qJP7SanZgw_10gql_parser6parser10expressionNtB2_16ExpressionParser22parse_unary_expression
FNDA:2,_RNvMNtNtCs6qJP7SanZgw_10gql_parser6parser10expressionNtB2_16ExpressionParser23parse_exists_expression
FNDA:5,_RNvMNtNtCs6qJP7SanZgw_10gql_parser6parser10expressionNtB2_16ExpressionParser23parse_value_type_inline
FNDA:10,_RNvMNtNtCs6qJP7SanZgw_10gql_parser6parser10expressionNtB2_16ExpressionParser23token_name_for_function
FNDA:6,_RNvMNtNtCs6qJP7SanZgw_10gql_parser6parser10expressionNtB2_16ExpressionParser24parse_aggregate_function
FNDA:51,_RNvMNtNtCs6qJP7SanZgw_10gql_parser6parser10expressionNtB2_16ExpressionParser24parse_literal_expression
FNDA:4713,_RNvMNtNtCs6qJP7SanZgw_10gql_parser6parser10expressionNtB2_16ExpressionParser24parse_postfix_expression
FNDA:4713,_RNvMNtNtCs6qJP7SanZgw_10gql_parser6parser10expressionNtB2_16ExpressionParser24parse_primary_expression
FNDA:1,_RNvMNtNtCs6qJP7SanZgw_10gql_parser6parser10expressionNtB2_16ExpressionParser24parse_record_constructor
FNDA:6,_RNvMNtNtCs6qJP7SanZgw_10gql_parser6parser10expressionNtB2_16ExpressionParser24parse_set_quantifier_opt
FNDA:0,_RNvMNtNtCs6qJP7SanZgw_10gql_parser6parser10expressionNtB2_16ExpressionParser24parse_simple_when_clause
FNDA:4703,_RNvMNtNtCs6qJP7SanZgw_10gql_parser6parser10expressionNtB2_16ExpressionParser25parse_additive_expression
FNDA:2,_RNvMNtNtCs6qJP7SanZgw_10gql_parser6parser10expressionNtB2_16ExpressionParser25parse_binary_set_function
FNDA:4,_RNvMNtNtCs6qJP7SanZgw_10gql_parser6parser10expressionNtB2_16ExpressionParser26parse_general_set_function
FNDA:18,_RNvMNtNtCs6qJP7SanZgw_10gql_parser6parser10expressionNtB2_16ExpressionParser26parse_optional_over_clause
FNDA:1,_RNvMNtNtCs6qJP7SanZgw_10gql_parser6parser10expressionNtB2_16ExpressionParser26parse_searched_when_clause
FNDA:4690,_RNvMNtNtCs6qJP7SanZgw_10gql_parser6parser10expressionNtB2_16ExpressionParser27consume_comparison_operator
FNDA:4693,_RNvMNtNtCs6qJP7SanZgw_10gql_parser6parser10expressionNtB2_16ExpressionParser27parse_comparison_expression
FNDA:29,_RNvMNtNtCs6qJP7SanZgw_10gql_parser6parser10expressionNtB2_16ExpressionParser28token_name_for_property_name
FNDA:1,_RNvMNtNtCs6qJP7SanZgw_10gql_parser6parser10expressionNtB2_16ExpressionParser29parse_all_different_predicate
FNDA:2,_RNvMNtNtCs6qJP7SanZgw_10gql_parser6parser10expressionNtB2_16ExpressionParser30parse_binding_table_expression
FNDA:4702,_RNvMNtNtCs6qJP7SanZgw_10gql_parser6parser10expressionNtB2_16ExpressionParser30parse_concatenation_expression
FNDA:4710,_RNvMNtNtCs6qJP7SanZgw_10gql_parser6parser10expressionNtB2_16ExpressionParser31parse_multiplicative_expression
FNDA:0,_RNvMNtNtCs6qJP7SanZgw_10gql_parser6parser10expressionNtB2_16ExpressionParser31parse_property_exists_predicate
FNDA:3,_RNvMNtNtCs6qJP7SanZgw_10gql_parser6parser10expressionNtB2_16ExpressionParser31parse_value_subquery_expression
FNDA:4,_RNvMNtNtCs6qJP7SanZgw_10gql_parser6parser10expressionNtB2_16ExpressionParser33parse_temporal_literal_expression
FNDA:4657,_RNvMNtNtCs6qJP7SanZgw_10gql_parser6parser10expressionNtB2_16ExpressionParser3new
FNDA:4,_RNvMNtNtCs6qJP7SanZgw_10gql_parser6parser10expressionNtB2_16ExpressionParser43parse_nested_query_specification_expression
FNDA:4657,_RNvNtNtCs6qJP7SanZgw_10gql_parser6parser10expression16parse_expression
FNDA:7,_RNCNvMNtNtCs6qJP7SanZgw_10gql_parser6parser10expressionNtB4_16ExpressionParser24parse_primary_expressions_0B8_
FNDA:0,_RNvMNtNtCs87GxMFlPkU4_10gql_parser6parser10expressionNtB2_16ExpressionParser13parse_literal
FNDA:0,_RNvMNtNtCs87GxMFlPkU4_10gql_parser6parser10expressionNtB2_16ExpressionParser16check_word_token
FNDA:0,_RNvMNtNtCs87GxMFlPkU4_10gql_parser6parser10expressionNtB2_16ExpressionParser16parse_expression
FNDA:0,_RNvMNtNtCs87GxMFlPkU4_10gql_parser6parser10expressionNtB2_16ExpressionParser17parse_simple_case
FNDA:0,_RNvMNtNtCs87GxMFlPkU4_10gql_parser6parser10expressionNtB2_16ExpressionParser18parse_list_literal
FNDA:0,_RNvMNtNtCs87GxMFlPkU4_10gql_parser6parser10expressionNtB2_16ExpressionParser18parse_record_field
FNDA:0,_RNvMNtNtCs87GxMFlPkU4_10gql_parser6parser10expressionNtB2_16ExpressionParser19parse_function_call
FNDA:0,_RNvMNtNtCs87GxMFlPkU4_10gql_parser6parser10expressionNtB2_16ExpressionParser19parse_function_name
FNDA:0,_RNvMNtNtCs87GxMFlPkU4_10gql_parser6parser10expressionNtB2_16ExpressionParser19parse_is_expression
FNDA:0,_RNvMNtNtCs87GxMFlPkU4_10gql_parser6parser10expressionNtB2_16ExpressionParser19parse_or_expression
FNDA:0,_RNvMNtNtCs87GxMFlPkU4_10gql_parser6parser10expressionNtB2_16ExpressionParser19parse_searched_case
FNDA:0,_RNvMNtNtCs87GxMFlPkU4_10gql_parser6parser10expressionNtB2_16ExpressionParser20parse_and_expression
FNDA:0,_RNvMNtNtCs87GxMFlPkU4_10gql_parser6parser10expressionNtB2_16ExpressionParser20parse_not_expression
FNDA:0,_RNvMNtNtCs87GxMFlPkU4_10gql_parser6parser10expressionNtB2_16ExpressionParser20parse_record_literal
FNDA:0,_RNvMNtNtCs87GxMFlPkU4_10gql_parser6parser10expressionNtB2_16ExpressionParser20parse_same_predicate
FNDA:0,_RNvMNtNtCs87GxMFlPkU4_10gql_parser6parser10expressionNtB2_16ExpressionParser20parse_xor_expression
FNDA:0,_RNvMNtNtCs87GxMFlPkU4_10gql_parser6parser10expressionNtB2_16ExpressionParser21parse_case_expression
FNDA:0,_RNvMNtNtCs87GxMFlPkU4_10gql_parser6parser10expressionNtB2_16ExpressionParser21parse_cast_expression
FNDA:0,_RNvMNtNtCs87GxMFlPkU4_10gql_parser6parser10expressionNtB2_16ExpressionParser22classify_function_name
FNDA:0,_RNvMNtNtCs87GxMFlPkU4_10gql_parser6parser10expressionNtB2_16ExpressionParser22is_comparison_operator
FNDA:0,_RNvMNtNtCs87GxMFlPkU4_10gql_parser6parser10expressionNtB2_16ExpressionParser22parse_graph_expression
FNDA:0,_RNvMNtNtCs87GxMFlPkU4_10gql_parser6parser10expressionNtB2_16ExpressionParser22parse_label_expression
FNDA:0,_RNvMNtNtCs87GxMFlPkU4_10gql_parser6parser10expressionNtB2_16ExpressionParser22parse_path_constructor
FNDA:0,_RNvMNtNtCs87GxMFlPkU4_10gql_parser6parser10expressionNtB2_16ExpressionParser22parse_temporal_literal
FNDA:0,_RNvMNtNtCs87GxMFlPkU4_10gql_parser6parser10expressionNtB2_16ExpressionParser22parse_unary_expression
FNDA:0,_RNvMNtNtCs87GxMFlPkU4_10gql_parser6parser10expressionNtB2_16ExpressionParser23parse_exists_expression
FNDA:0,_RNvMNtNtCs87GxMFlPkU4_10gql_parser6parser10expressionNtB2_16ExpressionParser23parse_value_type_inline
FNDA:0,_RNvMNtNtCs87GxMFlPkU4_10gql_parser6parser10expressionNtB2_16ExpressionParser23token_name_for_function
FNDA:0,_RNvMNtNtCs87GxMFlPkU4_10gql_parser6parser10expressionNtB2_16ExpressionParser24parse_aggregate_function
FNDA:0,_RNvMNtNtCs87GxMFlPkU4_10gql_parser6parser10expressionNtB2_16ExpressionParser24parse_literal_expression
FNDA:0,_RNvMNtNtCs87GxMFlPkU4_10gql_parser6parser10expressionNtB2_16ExpressionParser24parse_postfix_expression
FNDA:0,_RNvMNtNtCs87GxMFlPkU4_10gql_parser6parser10expressionNtB2_16ExpressionParser24parse_primary_expression
FNDA:0,_RNvMNtNtCs87GxMFlPkU4_10gql_parser6parser10expressionNtB2_16ExpressionParser24parse_record_constructor
FNDA:0,_RNvMNtNtCs87GxMFlPkU4_10gql_parser6parser10expressionNtB2_16ExpressionParser24parse_set_quantifier_opt
FNDA:0,_RNvMNtNtCs87GxMFlPkU4_10gql_parser6parser10expressionNtB2_16ExpressionParser24parse_simple_when_clause
FNDA:0,_RNvMNtNtCs87GxMFlPkU4_10gql_parser6parser10expressionNtB2_16ExpressionParser25parse_additive_expression
FNDA:0,_RNvMNtNtCs87GxMFlPkU4_10gql_parser6parser10expressionNtB2_16ExpressionParser25parse_binary_set_function
FNDA:0,_RNvMNtNtCs87GxMFlPkU4_10gql_parser6parser10expressionNtB2_16ExpressionParser26parse_general_set_function
FNDA:0,_RNvMNtNtCs87GxMFlPkU4_10gql_parser6parser10expressionNtB2_16ExpressionParser26parse_optional_over_clause
FNDA:0,_RNvMNtNtCs87GxMFlPkU4_10gql_parser6parser10expressionNtB2_16ExpressionParser26parse_searched_when_clause
FNDA:0,_RNvMNtNtCs87GxMFlPkU4_10gql_parser6parser10expressionNtB2_16ExpressionParser27consume_comparison_operator
FNDA:0,_RNvMNtNtCs87GxMFlPkU4_10gql_parser6parser10expressionNtB2_16ExpressionParser27parse_comparison_expression
FNDA:0,_RNvMNtNtCs87GxMFlPkU4_10gql_parser6parser10expressionNtB2_16ExpressionParser28token_name_for_property_name
FNDA:0,_RNvMNtNtCs87GxMFlPkU4_10gql_parser6parser10expressionNtB2_16ExpressionParser29parse_all_different_predicate
FNDA:0,_RNvMNtNtCs87GxMFlPkU4_10gql_parser6parser10expressionNtB2_16ExpressionParser30parse_binding_table_expression
FNDA:0,_RNvMNtNtCs87GxMFlPkU4_10gql_parser6parser10expressionNtB2_16ExpressionParser30parse_concatenation_expression
FNDA:0,_RNvMNtNtCs87GxMFlPkU4_10gql_parser6parser10expressionNtB2_16ExpressionParser31parse_multiplicative_expression
FNDA:0,_RNvMNtNtCs87GxMFlPkU4_10gql_parser6parser10expressionNtB2_16ExpressionParser31parse_property_exists_predicate
FNDA:0,_RNvMNtNtCs87GxMFlPkU4_10gql_parser6parser10expressionNtB2_16ExpressionParser31parse_value_subquery_expression
FNDA:0,_RNvMNtNtCs87GxMFlPkU4_10gql_parser6parser10expressionNtB2_16ExpressionParser33parse_temporal_literal_expression
FNDA:0,_RNvMNtNtCs87GxMFlPkU4_10gql_parser6parser10expressionNtB2_16ExpressionParser3new
FNDA:0,_RNvMNtNtCs87GxMFlPkU4_10gql_parser6parser10expressionNtB2_16ExpressionParser43parse_nested_query_specification_expression
FNDA:0,_RNvNtNtCs87GxMFlPkU4_10gql_parser6parser10expression16parse_expression
FNDA:0,_RNCNvMNtNtCs87GxMFlPkU4_10gql_parser6parser10expressionNtB4_16ExpressionParser24parse_primary_expressions_0B8_
FNF:80
FNH:75
DA:30,4657
DA:31,4657
DA:32,4657
DA:33,4657
DA:34,4657
DA:37,4693
DA:38,4693
DA:39,4693
DA:41,4693
DA:42,4693
DA:44,4689
DA:45,0
DA:46,0
DA:47,0
DA:48,0
DA:51,4689
DA:52,4693
DA:54,4693
DA:55,4693
DA:57,4689
DA:58,0
DA:59,0
DA:60,0
DA:61,0
DA:64,4689
DA:65,4693
DA:67,4693
DA:68,4693
DA:70,4689
DA:71,0
DA:72,0
DA:73,0
DA:74,0
DA:77,4689
DA:78,4693
DA:80,4693
DA:81,4693
DA:82,0
DA:83,0
DA:84,0
DA:85,0
DA:86,0
DA:87,0
DA:88,0
DA:89,0
DA:90,0
DA:92,4693
DA:94,4693
DA:96,4693
DA:97,4693
DA:99,4691
DA:100,2
DA:102,2
DA:103,1
DA:104,1
DA:106,1
DA:109,2
DA:111,1
DA:112,1
DA:113,1
DA:114,1
DA:117,1
DA:118,1
DA:119,1
DA:120,1
DA:121,1
DA:122,1
DA:123,1
DA:124,1
DA:125,1
DA:128,0
DA:129,0
DA:130,0
DA:131,0
DA:134,0
DA:135,0
DA:136,0
DA:137,0
DA:140,0
DA:141,0
DA:142,0
DA:143,0
DA:145,0
DA:147,0
DA:148,0
DA:149,0
DA:150,0
DA:151,0
DA:152,0
DA:153,0
DA:154,0
DA:155,0
DA:156,0
DA:159,0
DA:160,0
DA:161,0
DA:162,0
DA:163,0
DA:164,0
DA:165,0
DA:166,0
DA:167,0
DA:170,0
DA:171,0
DA:172,0
DA:173,0
DA:174,0
DA:175,0
DA:176,0
DA:177,0
DA:178,0
DA:181,0
DA:182,0
DA:183,0
DA:184,0
DA:185,0
DA:186,0
DA:187,0
DA:188,0
DA:189,0
DA:192,0
DA:193,0
DA:194,0
DA:195,0
DA:196,0
DA:197,0
DA:198,0
DA:199,0
DA:200,0
DA:201,0
DA:204,0
DA:205,0
DA:206,0
DA:207,0
DA:208,0
DA:209,0
DA:210,0
DA:211,0
DA:212,0
DA:213,0
DA:216,0
DA:217,0
DA:218,0
DA:219,0
DA:224,4689
DA:225,4693
DA:227,4693
DA:228,4693
DA:230,4690
DA:231,9
DA:232,9
DA:233,9
DA:235,9
DA:236,1
DA:237,1
DA:238,1
DA:239,8
DA:240,4681
DA:242,4689
DA:243,4693
DA:245,4702
DA:246,4702
DA:248,4700
DA:249,1
DA:250,1
DA:251,1
DA:252,1
DA:253,1
DA:254,1
DA:255,1
DA:256,1
DA:257,1
DA:260,4699
DA:261,4702
DA:263,4703
DA:264,4703
DA:267,4707
DA:268,7
DA:269,0
DA:270,4700
DA:273,7
DA:274,7
DA:275,7
DA:276,7
DA:279,4700
DA:280,4703
DA:282,4710
DA:283,4710
DA:286,4707
DA:287,0
DA:288,0
DA:289,0
DA:290,4707
DA:293,0
DA:294,0
DA:295,0
DA:296,0
DA:299,4707
DA:300,4710
DA:302,4713
DA:303,4713
DA:305,0
DA:306,0
DA:307,0
DA:308,0
DA:309,0
DA:310,0
DA:311,0
DA:312,0
DA:313,0
DA:316,0
DA:317,0
DA:318,0
DA:319,0
DA:320,0
DA:321,0
DA:322,0
DA:323,0
DA:324,0
DA:326,4713
DA:328,4713
DA:330,4713
DA:331,4713
DA:334,4741
DA:335,29
DA:336,29
DA:337,1
DA:338,1
DA:339,1
DA:340,1
DA:342,28
DA:343,28
DA:344,28
DA:345,28
DA:346,28
DA:347,4712
DA:349,4710
DA:350,4712
DA:353,2
DA:354,2
DA:355,1
DA:356,1
DA:358,1
DA:359,1
DA:361,2
DA:362,2
DA:363,2
DA:364,2
DA:365,2
DA:366,2
DA:367,2
DA:368,2
DA:369,2
DA:370,2
DA:371,4710
DA:373,4710
DA:376,4710
DA:377,4713
DA:379,4713
DA:380,4713
DA:388,51
DA:395,5
DA:396,5
DA:397,5
DA:398,5
DA:399,7
DA:401,4
DA:404,1
DA:405,1
DA:408,1
DA:409,1
DA:413,2
DA:414,2
DA:418,2
DA:419,1
DA:422,1
DA:423,0
DA:424,0
DA:437,0
DA:439,6
DA:440,6
DA:444,1
DA:446,1
DA:450,1
DA:452,1
DA:456,3
DA:458,3
DA:462,2
DA:464,2
DA:467,3
DA:470,0
DA:471,0
DA:472,0
DA:473,0
DA:474,0
DA:475,0
DA:478,0
DA:479,0
DA:480,0
DA:481,0
DA:482,0
DA:486,4622
DA:487,1
DA:488,1
DA:490,4621
DA:491,4621
DA:492,0
DA:494,4621
DA:495,4621
DA:496,4621
DA:500,12
DA:501,12
DA:502,11
DA:503,11
DA:505,1
DA:506,1
DA:507,1
DA:508,1
DA:512,0
DA:513,0
DA:514,0
DA:515,0
DA:517,4713
DA:519,51
DA:520,51
DA:521,51
DA:522,51
DA:524,51
DA:525,51
DA:526,51
DA:528,51
DA:530,2
DA:531,2
DA:534,0
DA:535,0
DA:538,0
DA:539,0
DA:542,1
DA:543,1
DA:545,37
DA:546,37
DA:547,37
DA:548,37
DA:550,3
DA:551,3
DA:552,3
DA:553,3
DA:555,7
DA:556,7
DA:557,7
DA:558,7
DA:560,1
DA:561,1
DA:562,1
DA:563,1
DA:566,0
DA:567,0
DA:568,0
DA:572,51
DA:573,51
DA:575,4
DA:576,4
DA:577,4
DA:578,4
DA:580,4
DA:581,4
DA:582,4
DA:584,4
DA:589,4
DA:590,0
DA:593,4
DA:595,4
DA:596,4
DA:598,0
DA:599,0
DA:600,0
DA:601,0
DA:602,0
DA:606,4
DA:607,4
DA:609,4
DA:610,2
DA:611,0
DA:612,2
DA:613,0
DA:614,0
DA:617,4
DA:618,4
DA:620,1
DA:621,1
DA:622,1
DA:624,3
DA:625,3
DA:627,3
DA:628,1
DA:629,2
DA:630,2
DA:631,0
DA:632,2
DA:635,1
DA:636,1
DA:637,1
DA:638,1
DA:640,1
DA:641,1
DA:642,1
DA:644,2
DA:645,2
DA:647,2
DA:648,1
DA:649,1
DA:650,1
DA:651,0
DA:652,1
DA:655,1
DA:656,1
DA:657,1
DA:658,1
DA:660,1
DA:661,1
DA:662,1
DA:664,1
DA:665,1
DA:666,1
DA:668,1
DA:669,1
DA:670,0
DA:671,0
DA:672,0
DA:673,0
DA:676,1
DA:677,1
DA:678,1
DA:679,1
DA:681,3
DA:682,3
DA:683,3
DA:684,3
DA:685,0
DA:686,0
DA:687,3
DA:688,3
DA:689,3
DA:692,0
DA:693,0
DA:694,0
DA:695,0
DA:699,3
DA:700,3
DA:701,3
DA:703,3
DA:704,3
DA:706,1
DA:707,1
DA:708,1
DA:710,1
DA:711,2
DA:712,2
DA:714,2
DA:715,1
DA:716,1
DA:717,1
DA:718,0
DA:719,1
DA:722,1
DA:723,1
DA:724,1
DA:726,3
DA:727,3
DA:728,3
DA:729,3
DA:730,3
DA:732,0
DA:735,3
DA:736,1
DA:738,1
DA:739,1
DA:740,1
DA:741,1
DA:743,2
DA:746,3
DA:747,3
DA:748,3
DA:750,2
DA:751,2
DA:752,2
DA:753,2
DA:754,1
DA:755,1
DA:756,0
DA:757,1
DA:759,1
DA:761,2
DA:762,2
DA:763,2
DA:764,2
DA:765,2
DA:766,2
DA:768,3
DA:769,3
DA:770,2
DA:771,3
DA:773,2
DA:774,2
DA:775,2
DA:776,2
DA:777,3
DA:779,4
DA:780,4
DA:781,4
DA:782,4
DA:783,4
DA:784,1
DA:785,3
DA:787,3
DA:788,3
DA:789,3
DA:790,3
DA:791,3
DA:792,3
DA:793,0
DA:794,0
DA:796,0
DA:798,4
DA:800,12
DA:801,12
DA:802,12
DA:804,12
DA:805,12
DA:807,13
DA:808,12
DA:810,12
DA:811,11
DA:812,1
DA:813,1
DA:814,0
DA:815,1
DA:818,12
DA:819,12
DA:820,12
DA:821,12
DA:822,12
DA:823,12
DA:824,12
DA:825,12
DA:827,18
DA:828,18
DA:829,16
DA:830,2
DA:832,2
DA:833,2
DA:834,1
DA:835,1
DA:836,1
DA:838,12
DA:839,11
DA:840,0
DA:841,0
DA:842,0
DA:843,11
DA:845,11
DA:846,0
DA:847,0
DA:848,0
DA:849,0
DA:850,0
DA:851,1
DA:852,1
DA:853,1
DA:854,1
DA:855,1
DA:856,10
DA:857,10
DA:858,10
DA:859,10
DA:863,1
DA:864,1
DA:867,1
DA:868,1
DA:869,1
DA:870,1
DA:871,0
DA:873,0
DA:874,0
DA:875,0
DA:876,18
DA:878,12
DA:879,12
DA:880,0
DA:881,0
DA:882,0
DA:883,0
DA:884,0
DA:885,0
DA:886,0
DA:887,0
DA:888,0
DA:890,0
DA:891,0
DA:892,0
DA:893,0
DA:894,0
DA:895,0
DA:897,0
DA:898,0
DA:899,0
DA:900,0
DA:901,0
DA:903,3
DA:904,0
DA:905,0
DA:906,0
DA:908,0
DA:909,0
DA:911,0
DA:912,0
DA:913,0
DA:916,9
DA:917,0
DA:918,0
DA:919,0
DA:920,0
DA:922,9
DA:926,12
DA:927,12
DA:928,12
DA:930,10
DA:931,10
DA:932,2
DA:933,2
DA:935,8
DA:936,0
DA:938,10
DA:940,29
DA:941,29
DA:942,26
DA:943,27
DA:945,2
DA:946,1
DA:948,1
DA:950,29
DA:952,18
DA:953,18
DA:954,3
DA:955,0
DA:956,0
DA:957,0
DA:958,3
DA:959,15
DA:961,18
DA:963,9
DA:964,9
DA:965,9
DA:966,9
DA:967,9
DA:968,9
DA:969,9
DA:970,9
DA:971,9
DA:972,9
DA:973,9
DA:974,9
DA:975,9
DA:977,9
DA:978,9
DA:979,9
DA:980,9
DA:981,9
DA:982,9
DA:983,9
DA:984,9
DA:985,9
DA:986,9
DA:987,9
DA:988,9
DA:989,9
DA:991,9
DA:992,9
DA:993,9
DA:994,9
DA:995,8
DA:996,8
DA:997,8
DA:998,8
DA:999,8
DA:1000,8
DA:1001,7
DA:1002,6
DA:1004,6
DA:1005,5
DA:1006,5
DA:1007,5
DA:1008,5
DA:1009,5
DA:1010,5
DA:1011,4
DA:1012,4
DA:1013,4
DA:1014,3
DA:1015,3
DA:1017,2
DA:1018,2
DA:1019,1
DA:1020,1
DA:1021,1
DA:1022,1
DA:1024,1
DA:1025,1
DA:1027,1
DA:1029,9
DA:1031,1
DA:1032,1
DA:1034,1
DA:1035,1
DA:1037,0
DA:1039,1
DA:1041,0
DA:1042,0
DA:1043,0
DA:1045,0
DA:1046,0
DA:1049,0
DA:1050,0
DA:1051,0
DA:1053,0
DA:1056,0
DA:1058,0
DA:1059,0
DA:1060,0
DA:1061,0
DA:1062,0
DA:1063,0
DA:1064,0
DA:1066,1
DA:1067,1
DA:1069,2
DA:1070,1
DA:1073,1
DA:1074,1
DA:1075,1
DA:1077,0
DA:1080,1
DA:1082,1
DA:1083,1
DA:1084,1
DA:1085,1
DA:1086,1
DA:1087,1
DA:1089,0
DA:1090,0
DA:1091,0
DA:1092,0
DA:1093,0
DA:1095,0
DA:1096,0
DA:1097,0
DA:1098,0
DA:1099,0
DA:1100,0
DA:1102,1
DA:1103,1
DA:1104,1
DA:1105,1
DA:1106,1
DA:1108,1
DA:1109,1
DA:1110,1
DA:1111,1
DA:1112,1
DA:1113,1
DA:1115,2
DA:1116,2
DA:1117,2
DA:1118,2
DA:1119,2
DA:1120,2
DA:1121,2
DA:1123,2
DA:1124,2
DA:1125,2
DA:1126,2
DA:1127,2
DA:1128,2
DA:1130,2
DA:1131,2
DA:1133,2
DA:1134,1
DA:1135,1
DA:1137,1
DA:1138,1
DA:1140,2
DA:1141,2
DA:1142,1
DA:1143,1
DA:1144,1
DA:1145,1
DA:1147,1
DA:1148,1
DA:1149,0
DA:1150,0
DA:1151,1
DA:1153,1
DA:1154,1
DA:1157,0
DA:1158,0
DA:1159,0
DA:1160,1
DA:1161,1
DA:1162,1
DA:1163,1
DA:1164,1
DA:1166,0
DA:1169,1
DA:1170,1
DA:1171,2
DA:1173,1
DA:1174,1
DA:1175,1
DA:1177,1
DA:1178,2
DA:1179,2
DA:1181,2
DA:1182,1
DA:1183,1
DA:1184,1
DA:1185,0
DA:1186,1
DA:1189,1
DA:1190,1
DA:1191,1
DA:1192,1
DA:1193,1
DA:1194,1
DA:1196,0
DA:1197,0
DA:1198,0
DA:1199,0
DA:1200,0
DA:1201,0
DA:1202,0
DA:1203,0
DA:1204,0
DA:1205,0
DA:1206,0
DA:1207,0
DA:1208,0
DA:1210,0
DA:1211,0
DA:1212,0
DA:1213,0
DA:1214,0
DA:1216,0
DA:1217,0
DA:1218,0
DA:1219,0
DA:1221,0
DA:1224,0
DA:1225,0
DA:1226,0
DA:1227,0
DA:1228,0
DA:1229,0
DA:1230,0
DA:1232,5
DA:1233,5
DA:1234,5
DA:1235,5
DA:1236,0
DA:1237,5
DA:1238,5
DA:1239,5
DA:1240,5
DA:1241,5
DA:1242,5
DA:1244,0
DA:1245,0
DA:1246,0
DA:1247,0
DA:1248,0
DA:1249,0
DA:1250,0
DA:1252,0
DA:1255,0
DA:1256,0
DA:1257,0
DA:1259,9
DA:1260,8
DA:1261,9
DA:1270,9
DA:1272,4690
DA:1273,4690
DA:1274,1
DA:1275,0
DA:1276,1
DA:1277,7
DA:1278,0
DA:1279,0
DA:1280,4681
DA:1282,9
DA:1283,9
DA:1284,4690
DA:1300,6
DA:1301,6
DA:1303,1
DA:1304,1
DA:1305,1
DA:1306,1
DA:1309,1
DA:1310,0
DA:1311,0
DA:1312,0
DA:1316,1
DA:1317,1
DA:1321,2
DA:1323,3
DA:1326,6
DA:1327,6
DA:1328,2
DA:1329,0
DA:1330,2
DA:1331,0
DA:1333,4
DA:1335,6
DA:1336,6
DA:1346,4
DA:1347,4
DA:1349,4
DA:1350,0
DA:1351,1
DA:1352,0
DA:1353,0
DA:1354,3
DA:1355,0
DA:1356,0
DA:1357,0
DA:1359,0
DA:1360,0
DA:1361,0
DA:1362,0
DA:1366,4
DA:1367,4
DA:1370,4
DA:1373,4
DA:1375,4
DA:1377,4
DA:1378,4
DA:1379,4
DA:1380,4
DA:1381,4
DA:1382,4
DA:1383,4
DA:1393,2
DA:1394,2
DA:1396,2
DA:1397,2
DA:1398,0
DA:1400,0
DA:1401,0
DA:1402,0
DA:1403,0
DA:1407,2
DA:1408,2
DA:1411,2
DA:1412,2
DA:1414,2
DA:1416,2
DA:1418,2
DA:1420,2
DA:1421,2
DA:1422,2
DA:1423,2
DA:1424,2
DA:1425,2
DA:1426,2
DA:1427,2
DA:1437,6
DA:1438,6
DA:1440,0
DA:1441,0
DA:1444,0
DA:1445,0
DA:1447,6
DA:1449,6
DA:1453,4657
DA:1454,4657
DA:1455,4657
DA:1456,0
DA:1457,4657
DA:1458,4607
DA:1459,4607
DA:1460,50
DA:1462,4657
DA:1463,4657
DA:1465,4653
DA:1466,3
DA:1467,3
DA:1468,3
DA:1469,3
DA:1470,4650
DA:1472,4650
DA:1473,4657
DA:1480,50
DA:1481,50
DA:1482,50
DA:1483,0
DA:1484,0
DA:1485,0
DA:1486,50
DA:1487,50
DA:1488,50
DA:1491,1
DA:1492,1
DA:1493,1
DA:1496,1
DA:1497,1
DA:1500,1
DA:1501,1
DA:1504,1
DA:1505,1
DA:1508,1
DA:1509,1
DA:1512,1
DA:1515,1
DA:1516,1
DA:1517,1
DA:1520,1
DA:1521,1
DA:1524,1
DA:1525,1
DA:1528,1
DA:1531,1
DA:1532,1
DA:1533,1
DA:1539,1
DA:1540,1
DA:1546,1
DA:1547,1
DA:1553,1
DA:1554,1
DA:1560,1
DA:1561,1
DA:1567,1
DA:1570,1
DA:1571,1
DA:1572,1
DA:1578,1
DA:1579,1
DA:1585,1
DA:1586,1
DA:1592,1
DA:1593,1
DA:1599,1
DA:1602,1
DA:1603,1
DA:1604,1
DA:1605,1
DA:1608,1
DA:1609,1
DA:1610,1
DA:1611,0
DA:1613,1
DA:1614,1
DA:1617,1
DA:1620,1
DA:1621,1
DA:1622,1
DA:1623,1
DA:1626,1
DA:1627,1
DA:1628,1
DA:1629,1
DA:1630,1
DA:1632,0
DA:1634,1
DA:1637,1
DA:1638,1
DA:1639,1
DA:1640,1
DA:1643,1
DA:1644,1
DA:1645,1
DA:1646,1
DA:1649,1
DA:1650,1
DA:1651,1
DA:1652,1
DA:1655,1
DA:1656,1
DA:1657,1
DA:1659,1
DA:1660,1
DA:1661,1
DA:1662,1
DA:1663,1
DA:1664,1
DA:1666,0
DA:1668,0
DA:1670,1
DA:1673,1
DA:1674,1
DA:1675,1
DA:1676,1
DA:1677,1
DA:1680,1
DA:1681,1
DA:1682,1
DA:1683,1
DA:1684,1
DA:1685,1
DA:1687,0
DA:1689,1
DA:1692,1
DA:1693,1
DA:1694,1
DA:1695,1
DA:1696,1
DA:1697,1
DA:1699,0
DA:1701,1
DA:1704,1
DA:1705,1
DA:1706,1
DA:1709,1
DA:1710,1
DA:1713,1
DA:1714,1
DA:1717,1
DA:1720,1
DA:1721,1
DA:1722,1
DA:1725,1
DA:1726,1
DA:1729,1
DA:1730,1
DA:1733,1
DA:1736,1
DA:1737,1
DA:1738,1
DA:1741,1
DA:1742,1
DA:1745,1
DA:1748,1
DA:1749,1
DA:1750,1
DA:1757,1
DA:1758,1
DA:1759,1
DA:1762,1
DA:1763,1
DA:1764,1
DA:1767,1
DA:1768,1
DA:1771,1
DA:1772,1
DA:1775,1
DA:1776,1
DA:1779,1
DA:1782,1
DA:1783,1
DA:1784,1
DA:1787,1
DA:1788,1
DA:1791,1
DA:1792,1
DA:1795,1
DA:1798,1
DA:1799,1
DA:1800,1
DA:1803,1
DA:1806,1
DA:1807,1
DA:1808,1
DA:1809,1
DA:1810,0
DA:1811,0
DA:1815,1
DA:1818,1
DA:1819,1
DA:1820,1
DA:1823,1
DA:1824,1
DA:1827,1
DA:1830,1
DA:1831,1
DA:1832,1
DA:1835,1
BRF:0
BRH:0
LF:1187
LH:846
end_of_record
SF:/Users/d072013/SAPDevelop/gql_parser/src/parser/graph_type.rs
FN:772,_RNCNCNvMNtNtCs6qJP7SanZgw_10gql_parser6parser10graph_typeNtB6_15GraphTypeParser22parse_edge_type_fillers_00Ba_
FN:425,_RNCNCNvMNtNtCs6qJP7SanZgw_10gql_parser6parser10graph_typeNtB6_15GraphTypeParser22parse_node_type_fillers0_00Ba_
FN:426,_RNCNCNvMNtNtCs6qJP7SanZgw_10gql_parser6parser10graph_typeNtB6_15GraphTypeParser22parse_node_type_fillers1_00Ba_
FN:424,_RNCNCNvMNtNtCs6qJP7SanZgw_10gql_parser6parser10graph_typeNtB6_15GraphTypeParser22parse_node_type_fillers_00Ba_
FN:352,_RNCNCNvMNtNtCs6qJP7SanZgw_10gql_parser6parser10graph_typeNtB6_15GraphTypeParser22parse_node_type_phrases_00Ba_
FN:295,_RNCNCNvMNtNtCs6qJP7SanZgw_10gql_parser6parser10graph_typeNtB6_15GraphTypeParser23parse_node_type_patterns_00Ba_
FN:838,_RNCNCNvMNtNtCs6qJP7SanZgw_10gql_parser6parser10graph_typeNtB6_15GraphTypeParser30parse_edge_type_phrase_contents_00Ba_
FN:771,_RNCNvMNtNtCs6qJP7SanZgw_10gql_parser6parser10graph_typeNtB4_15GraphTypeParser22parse_edge_type_filler0B8_
FN:773,_RNCNvMNtNtCs6qJP7SanZgw_10gql_parser6parser10graph_typeNtB4_15GraphTypeParser22parse_edge_type_fillers0_0B8_
FN:772,_RNCNvMNtNtCs6qJP7SanZgw_10gql_parser6parser10graph_typeNtB4_15GraphTypeParser22parse_edge_type_fillers_0B8_
FN:423,_RNCNvMNtNtCs6qJP7SanZgw_10gql_parser6parser10graph_typeNtB4_15GraphTypeParser22parse_node_type_filler0B8_
FN:425,_RNCNvMNtNtCs6qJP7SanZgw_10gql_parser6parser10graph_typeNtB4_15GraphTypeParser22parse_node_type_fillers0_0B8_
FN:426,_RNCNvMNtNtCs6qJP7SanZgw_10gql_parser6parser10graph_typeNtB4_15GraphTypeParser22parse_node_type_fillers1_0B8_
FN:427,_RNCNvMNtNtCs6qJP7SanZgw_10gql_parser6parser10graph_typeNtB4_15GraphTypeParser22parse_node_type_fillers2_0B8_
FN:424,_RNCNvMNtNtCs6qJP7SanZgw_10gql_parser6parser10graph_typeNtB4_15GraphTypeParser22parse_node_type_fillers_0B8_
FN:351,_RNCNvMNtNtCs6qJP7SanZgw_10gql_parser6parser10graph_typeNtB4_15GraphTypeParser22parse_node_type_phrase0B8_
FN:353,_RNCNvMNtNtCs6qJP7SanZgw_10gql_parser6parser10graph_typeNtB4_15GraphTypeParser22parse_node_type_phrases0_0B8_
FN:352,_RNCNvMNtNtCs6qJP7SanZgw_10gql_parser6parser10graph_typeNtB4_15GraphTypeParser22parse_node_type_phrases_0B8_
FN:177,_RNCNvMNtNtCs6qJP7SanZgw_10gql_parser6parser10graph_typeNtB4_15GraphTypeParser23parse_element_type_list0B8_
FN:181,_RNCNvMNtNtCs6qJP7SanZgw_10gql_parser6parser10graph_typeNtB4_15GraphTypeParser23parse_element_type_lists_0B8_
FN:294,_RNCNvMNtNtCs6qJP7SanZgw_10gql_parser6parser10graph_typeNtB4_15GraphTypeParser23parse_node_type_pattern0B8_
FN:296,_RNCNvMNtNtCs6qJP7SanZgw_10gql_parser6parser10graph_typeNtB4_15GraphTypeParser23parse_node_type_patterns0_0B8_
FN:295,_RNCNvMNtNtCs6qJP7SanZgw_10gql_parser6parser10graph_typeNtB4_15GraphTypeParser23parse_node_type_patterns_0B8_
FN:985,_RNCNvMNtNtCs6qJP7SanZgw_10gql_parser6parser10graph_typeNtB4_15GraphTypeParser24parse_property_type_list0B8_
FN:986,_RNCNvMNtNtCs6qJP7SanZgw_10gql_parser6parser10graph_typeNtB4_15GraphTypeParser24parse_property_type_lists_0B8_
FN:1289,_RNCNvMNtNtCs6qJP7SanZgw_10gql_parser6parser10graph_typeNtB4_15GraphTypeParser25build_constraint_argument0B8_
FN:1044,_RNCNvMNtNtCs6qJP7SanZgw_10gql_parser6parser10graph_typeNtB4_15GraphTypeParser25parse_property_value_type0B8_
FN:1216,_RNCNvMNtNtCs6qJP7SanZgw_10gql_parser6parser10graph_typeNtB4_15GraphTypeParser27parse_graph_type_constraint0B8_
FN:1158,_RNCNvMNtNtCs6qJP7SanZgw_10gql_parser6parser10graph_typeNtB4_15GraphTypeParser28parse_inheritance_clause_opt0B8_
FN:1159,_RNCNvMNtNtCs6qJP7SanZgw_10gql_parser6parser10graph_typeNtB4_15GraphTypeParser28parse_inheritance_clause_opts_0B8_
FN:1109,_RNCNvMNtNtCs6qJP7SanZgw_10gql_parser6parser10graph_typeNtB4_15GraphTypeParser29parse_label_set_specification0B8_
FN:1110,_RNCNvMNtNtCs6qJP7SanZgw_10gql_parser6parser10graph_typeNtB4_15GraphTypeParser29parse_label_set_specifications_0B8_
FN:837,_RNCNvMNtNtCs6qJP7SanZgw_10gql_parser6parser10graph_typeNtB4_15GraphTypeParser30parse_edge_type_phrase_content0B8_
FN:839,_RNCNvMNtNtCs6qJP7SanZgw_10gql_parser6parser10graph_typeNtB4_15GraphTypeParser30parse_edge_type_phrase_contents0_0B8_
FN:838,_RNCNvMNtNtCs6qJP7SanZgw_10gql_parser6parser10graph_typeNtB4_15GraphTypeParser30parse_edge_type_phrase_contents_0B8_
FN:1321,_RNvMNtNtCs6qJP7SanZgw_10gql_parser6parser10graph_typeNtB2_15GraphTypeParser10check_word
FN:111,_RNvMNtNtCs6qJP7SanZgw_10gql_parser6parser10graph_typeNtB2_15GraphTypeParser10error_here
FN:1325,_RNvMNtNtCs6qJP7SanZgw_10gql_parser6parser10graph_typeNtB2_15GraphTypeParser12consume_word
FN:1389,_RNvMNtNtCs6qJP7SanZgw_10gql_parser6parser10graph_typeNtB2_15GraphTypeParser16current_position
FN:1119,_RNvMNtNtCs6qJP7SanZgw_10gql_parser6parser10graph_typeNtB2_15GraphTypeParser16parse_label_name
FN:1182,_RNvMNtNtCs6qJP7SanZgw_10gql_parser6parser10graph_typeNtB2_15GraphTypeParser19is_constraint_start
FN:892,_RNvMNtNtCs6qJP7SanZgw_10gql_parser6parser10graph_typeNtB2_15GraphTypeParser19parse_endpoint_pair
FN:1033,_RNvMNtNtCs6qJP7SanZgw_10gql_parser6parser10graph_typeNtB2_15GraphTypeParser19parse_property_name
FN:997,_RNvMNtNtCs6qJP7SanZgw_10gql_parser6parser10graph_typeNtB2_15GraphTypeParser19parse_property_type
FN:1178,_RNvMNtNtCs6qJP7SanZgw_10gql_parser6parser10graph_typeNtB2_15GraphTypeParser20is_inheritance_start
FN:1167,_RNvMNtNtCs6qJP7SanZgw_10gql_parser6parser10graph_typeNtB2_15GraphTypeParser21is_element_type_start
FN:723,_RNvMNtNtCs6qJP7SanZgw_10gql_parser6parser10graph_typeNtB2_15GraphTypeParser21parse_edge_arc_filler
FN:752,_RNvMNtNtCs6qJP7SanZgw_10gql_parser6parser10graph_typeNtB2_15GraphTypeParser22parse_edge_type_filler
FN:1074,_RNvMNtNtCs6qJP7SanZgw_10gql_parser6parser10graph_typeNtB2_15GraphTypeParser22parse_label_set_phrase
FN:391,_RNvMNtNtCs6qJP7SanZgw_10gql_parser6parser10graph_typeNtB2_15GraphTypeParser22parse_node_type_filler
FN:315,_RNvMNtNtCs6qJP7SanZgw_10gql_parser6parser10graph_typeNtB2_15GraphTypeParser22parse_node_type_phrase
FN:497,_RNvMNtNtCs6qJP7SanZgw_10gql_parser6parser10graph_typeNtB2_15GraphTypeParser23parse_edge_type_pattern
FN:159,_RNvMNtNtCs6qJP7SanZgw_10gql_parser6parser10graph_typeNtB2_15GraphTypeParser23parse_element_type_list
FN:260,_RNvMNtNtCs6qJP7SanZgw_10gql_parser6parser10graph_typeNtB2_15GraphTypeParser23parse_node_type_pattern
FN:967,_RNvMNtNtCs6qJP7SanZgw_10gql_parser6parser10graph_typeNtB2_15GraphTypeParser24parse_property_type_list
FN:1334,_RNvMNtNtCs6qJP7SanZgw_10gql_parser6parser10graph_typeNtB2_15GraphTypeParser24parse_regular_identifier
FN:1277,_RNvMNtNtCs6qJP7SanZgw_10gql_parser6parser10graph_typeNtB2_15GraphTypeParser25build_constraint_argument
FN:744,_RNvMNtNtCs6qJP7SanZgw_10gql_parser6parser10graph_typeNtB2_15GraphTypeParser25is_edge_type_filler_start
FN:1060,_RNvMNtNtCs6qJP7SanZgw_10gql_parser6parser10graph_typeNtB2_15GraphTypeParser25is_label_set_phrase_start
FN:366,_RNvMNtNtCs6qJP7SanZgw_10gql_parser6parser10graph_typeNtB2_15GraphTypeParser25is_node_type_filler_start
FN:849,_RNvMNtNtCs6qJP7SanZgw_10gql_parser6parser10graph_typeNtB2_15GraphTypeParser25parse_edge_type_label_set
FN:440,_RNvMNtNtCs6qJP7SanZgw_10gql_parser6parser10graph_typeNtB2_15GraphTypeParser25parse_node_type_label_set
FN:913,_RNvMNtNtCs6qJP7SanZgw_10gql_parser6parser10graph_typeNtB2_15GraphTypeParser25parse_node_type_reference
FN:1039,_RNvMNtNtCs6qJP7SanZgw_10gql_parser6parser10graph_typeNtB2_15GraphTypeParser25parse_property_value_type
FN:1234,_RNvMNtNtCs6qJP7SanZgw_10gql_parser6parser10graph_typeNtB2_15GraphTypeParser26parse_constraint_arguments
FN:877,_RNvMNtNtCs6qJP7SanZgw_10gql_parser6parser10graph_typeNtB2_15GraphTypeParser26parse_endpoint_pair_phrase
FN:1352,_RNvMNtNtCs6qJP7SanZgw_10gql_parser6parser10graph_typeNtB2_15GraphTypeParser27is_regular_identifier_start
FN:1190,_RNvMNtNtCs6qJP7SanZgw_10gql_parser6parser10graph_typeNtB2_15GraphTypeParser27parse_graph_type_constraint
FN:379,_RNvMNtNtCs6qJP7SanZgw_10gql_parser6parser10graph_typeNtB2_15GraphTypeParser27parse_local_node_type_alias
FN:1124,_RNvMNtNtCs6qJP7SanZgw_10gql_parser6parser10graph_typeNtB2_15GraphTypeParser28parse_inheritance_clause_opt
FN:478,_RNvMNtNtCs6qJP7SanZgw_10gql_parser6parser10graph_typeNtB2_15GraphTypeParser29parse_edge_type_specification
FN:1095,_RNvMNtNtCs6qJP7SanZgw_10gql_parser6parser10graph_typeNtB2_15GraphTypeParser29parse_label_set_specification
FN:464,_RNvMNtNtCs6qJP7SanZgw_10gql_parser6parser10graph_typeNtB2_15GraphTypeParser29parse_node_type_key_label_set
FN:230,_RNvMNtNtCs6qJP7SanZgw_10gql_parser6parser10graph_typeNtB2_15GraphTypeParser29parse_node_type_specification
FN:820,_RNvMNtNtCs6qJP7SanZgw_10gql_parser6parser10graph_typeNtB2_15GraphTypeParser30parse_edge_type_phrase_content
FN:514,_RNvMNtNtCs6qJP7SanZgw_10gql_parser6parser10graph_typeNtB2_15GraphTypeParser30parse_edge_type_phrase_pattern
FN:860,_RNvMNtNtCs6qJP7SanZgw_10gql_parser6parser10graph_typeNtB2_15GraphTypeParser30parse_edge_type_property_types
FN:618,_RNvMNtNtCs6qJP7SanZgw_10gql_parser6parser10graph_typeNtB2_15GraphTypeParser30parse_edge_type_visual_pattern
FN:451,_RNvMNtNtCs6qJP7SanZgw_10gql_parser6parser10graph_typeNtB2_15GraphTypeParser30parse_node_type_property_types
FN:1299,_RNvMNtNtCs6qJP7SanZgw_10gql_parser6parser10graph_typeNtB2_15GraphTypeParser31parse_type_reference_identifier
FN:192,_RNvMNtNtCs6qJP7SanZgw_10gql_parser6parser10graph_typeNtB2_15GraphTypeParser32parse_element_type_specification
FN:942,_RNvMNtNtCs6qJP7SanZgw_10gql_parser6parser10graph_typeNtB2_15GraphTypeParser34parse_property_types_specification
FN:1361,_RNvMNtNtCs6qJP7SanZgw_10gql_parser6parser10graph_typeNtB2_15GraphTypeParser35is_edge_pattern_after_left_endpoint
FN:134,_RNvMNtNtCs6qJP7SanZgw_10gql_parser6parser10graph_typeNtB2_15GraphTypeParser35parse_graph_type_specification_body
FN:122,_RNvMNtNtCs6qJP7SanZgw_10gql_parser6parser10graph_typeNtB2_15GraphTypeParser37parse_nested_graph_type_specification
FN:104,_RNvMNtNtCs6qJP7SanZgw_10gql_parser6parser10graph_typeNtB2_15GraphTypeParser3new
FN:1403,_RNvNtNtCs6qJP7SanZgw_10gql_parser6parser10graph_type18token_matches_word
FN:1395,_RNvNtNtCs6qJP7SanZgw_10gql_parser6parser10graph_type21label_set_phrase_span
FN:772,_RNCNCNvMNtNtCs87GxMFlPkU4_10gql_parser6parser10graph_typeNtB6_15GraphTypeParser22parse_edge_type_fillers_00Ba_
FN:425,_RNCNCNvMNtNtCs87GxMFlPkU4_10gql_parser6parser10graph_typeNtB6_15GraphTypeParser22parse_node_type_fillers0_00Ba_
FN:426,_RNCNCNvMNtNtCs87GxMFlPkU4_10gql_parser6parser10graph_typeNtB6_15GraphTypeParser22parse_node_type_fillers1_00Ba_
FN:424,_RNCNCNvMNtNtCs87GxMFlPkU4_10gql_parser6parser10graph_typeNtB6_15GraphTypeParser22parse_node_type_fillers_00Ba_
FN:352,_RNCNCNvMNtNtCs87GxMFlPkU4_10gql_parser6parser10graph_typeNtB6_15GraphTypeParser22parse_node_type_phrases_00Ba_
FN:295,_RNCNCNvMNtNtCs87GxMFlPkU4_10gql_parser6parser10graph_typeNtB6_15GraphTypeParser23parse_node_type_patterns_00Ba_
FN:838,_RNCNCNvMNtNtCs87GxMFlPkU4_10gql_parser6parser10graph_typeNtB6_15GraphTypeParser30parse_edge_type_phrase_contents_00Ba_
FN:771,_RNCNvMNtNtCs87GxMFlPkU4_10gql_parser6parser10graph_typeNtB4_15GraphTypeParser22parse_edge_type_filler0B8_
FN:773,_RNCNvMNtNtCs87GxMFlPkU4_10gql_parser6parser10graph_typeNtB4_15GraphTypeParser22parse_edge_type_fillers0_0B8_
FN:772,_RNCNvMNtNtCs87GxMFlPkU4_10gql_parser6parser10graph_typeNtB4_15GraphTypeParser22parse_edge_type_fillers_0B8_
FN:423,_RNCNvMNtNtCs87GxMFlPkU4_10gql_parser6parser10graph_typeNtB4_15GraphTypeParser22parse_node_type_filler0B8_
FN:425,_RNCNvMNtNtCs87GxMFlPkU4_10gql_parser6parser10graph_typeNtB4_15GraphTypeParser22parse_node_type_fillers0_0B8_
FN:426,_RNCNvMNtNtCs87GxMFlPkU4_10gql_parser6parser10graph_typeNtB4_15GraphTypeParser22parse_node_type_fillers1_0B8_
FN:427,_RNCNvMNtNtCs87GxMFlPkU4_10gql_parser6parser10graph_typeNtB4_15GraphTypeParser22parse_node_type_fillers2_0B8_
FN:424,_RNCNvMNtNtCs87GxMFlPkU4_10gql_parser6parser10graph_typeNtB4_15GraphTypeParser22parse_node_type_fillers_0B8_
FN:351,_RNCNvMNtNtCs87GxMFlPkU4_10gql_parser6parser10graph_typeNtB4_15GraphTypeParser22parse_node_type_phrase0B8_
FN:353,_RNCNvMNtNtCs87GxMFlPkU4_10gql_parser6parser10graph_typeNtB4_15GraphTypeParser22parse_node_type_phrases0_0B8_
FN:352,_RNCNvMNtNtCs87GxMFlPkU4_10gql_parser6parser10graph_typeNtB4_15GraphTypeParser22parse_node_type_phrases_0B8_
FN:177,_RNCNvMNtNtCs87GxMFlPkU4_10gql_parser6parser10graph_typeNtB4_15GraphTypeParser23parse_element_type_list0B8_
FN:181,_RNCNvMNtNtCs87GxMFlPkU4_10gql_parser6parser10graph_typeNtB4_15GraphTypeParser23parse_element_type_lists_0B8_
FN:294,_RNCNvMNtNtCs87GxMFlPkU4_10gql_parser6parser10graph_typeNtB4_15GraphTypeParser23parse_node_type_pattern0B8_
FN:296,_RNCNvMNtNtCs87GxMFlPkU4_10gql_parser6parser10graph_typeNtB4_15GraphTypeParser23parse_node_type_patterns0_0B8_
FN:295,_RNCNvMNtNtCs87GxMFlPkU4_10gql_parser6parser10graph_typeNtB4_15GraphTypeParser23parse_node_type_patterns_0B8_
FN:985,_RNCNvMNtNtCs87GxMFlPkU4_10gql_parser6parser10graph_typeNtB4_15GraphTypeParser24parse_property_type_list0B8_
FN:986,_RNCNvMNtNtCs87GxMFlPkU4_10gql_parser6parser10graph_typeNtB4_15GraphTypeParser24parse_property_type_lists_0B8_
FN:1289,_RNCNvMNtNtCs87GxMFlPkU4_10gql_parser6parser10graph_typeNtB4_15GraphTypeParser25build_constraint_argument0B8_
FN:1044,_RNCNvMNtNtCs87GxMFlPkU4_10gql_parser6parser10graph_typeNtB4_15GraphTypeParser25parse_property_value_type0B8_
FN:1216,_RNCNvMNtNtCs87GxMFlPkU4_10gql_parser6parser10graph_typeNtB4_15GraphTypeParser27parse_graph_type_constraint0B8_
FN:1158,_RNCNvMNtNtCs87GxMFlPkU4_10gql_parser6parser10graph_typeNtB4_15GraphTypeParser28parse_inheritance_clause_opt0B8_
FN:1159,_RNCNvMNtNtCs87GxMFlPkU4_10gql_parser6parser10graph_typeNtB4_15GraphTypeParser28parse_inheritance_clause_opts_0B8_
FN:1109,_RNCNvMNtNtCs87GxMFlPkU4_10gql_parser6parser10graph_typeNtB4_15GraphTypeParser29parse_label_set_specification0B8_
FN:1110,_RNCNvMNtNtCs87GxMFlPkU4_10gql_parser6parser10graph_typeNtB4_15GraphTypeParser29parse_label_set_specifications_0B8_
FN:837,_RNCNvMNtNtCs87GxMFlPkU4_10gql_parser6parser10graph_typeNtB4_15GraphTypeParser30parse_edge_type_phrase_content0B8_
FN:839,_RNCNvMNtNtCs87GxMFlPkU4_10gql_parser6parser10graph_typeNtB4_15GraphTypeParser30parse_edge_type_phrase_contents0_0B8_
FN:838,_RNCNvMNtNtCs87GxMFlPkU4_10gql_parser6parser10graph_typeNtB4_15GraphTypeParser30parse_edge_type_phrase_contents_0B8_
FN:1321,_RNvMNtNtCs87GxMFlPkU4_10gql_parser6parser10graph_typeNtB2_15GraphTypeParser10check_word
FN:111,_RNvMNtNtCs87GxMFlPkU4_10gql_parser6parser10graph_typeNtB2_15GraphTypeParser10error_here
FN:1325,_RNvMNtNtCs87GxMFlPkU4_10gql_parser6parser10graph_typeNtB2_15GraphTypeParser12consume_word
FN:1389,_RNvMNtNtCs87GxMFlPkU4_10gql_parser6parser10graph_typeNtB2_15GraphTypeParser16current_position
FN:1119,_RNvMNtNtCs87GxMFlPkU4_10gql_parser6parser10graph_typeNtB2_15GraphTypeParser16parse_label_name
FN:1182,_RNvMNtNtCs87GxMFlPkU4_10gql_parser6parser10graph_typeNtB2_15GraphTypeParser19is_constraint_start
FN:892,_RNvMNtNtCs87GxMFlPkU4_10gql_parser6parser10graph_typeNtB2_15GraphTypeParser19parse_endpoint_pair
FN:1033,_RNvMNtNtCs87GxMFlPkU4_10gql_parser6parser10graph_typeNtB2_15GraphTypeParser19parse_property_name
FN:997,_RNvMNtNtCs87GxMFlPkU4_10gql_parser6parser10graph_typeNtB2_15GraphTypeParser19parse_property_type
FN:1178,_RNvMNtNtCs87GxMFlPkU4_10gql_parser6parser10graph_typeNtB2_15GraphTypeParser20is_inheritance_start
FN:1167,_RNvMNtNtCs87GxMFlPkU4_10gql_parser6parser10graph_typeNtB2_15GraphTypeParser21is_element_type_start
FN:723,_RNvMNtNtCs87GxMFlPkU4_10gql_parser6parser10graph_typeNtB2_15GraphTypeParser21parse_edge_arc_filler
FN:752,_RNvMNtNtCs87GxMFlPkU4_10gql_parser6parser10graph_typeNtB2_15GraphTypeParser22parse_edge_type_filler
FN:1074,_RNvMNtNtCs87GxMFlPkU4_10gql_parser6parser10graph_typeNtB2_15GraphTypeParser22parse_label_set_phrase
FN:391,_RNvMNtNtCs87GxMFlPkU4_10gql_parser6parser10graph_typeNtB2_15GraphTypeParser22parse_node_type_filler
FN:315,_RNvMNtNtCs87GxMFlPkU4_10gql_parser6parser10graph_typeNtB2_15GraphTypeParser22parse_node_type_phrase
FN:497,_RNvMNtNtCs87GxMFlPkU4_10gql_parser6parser10graph_typeNtB2_15GraphTypeParser23parse_edge_type_pattern
FN:159,_RNvMNtNtCs87GxMFlPkU4_10gql_parser6parser10graph_typeNtB2_15GraphTypeParser23parse_element_type_list
FN:260,_RNvMNtNtCs87GxMFlPkU4_10gql_parser6parser10graph_typeNtB2_15GraphTypeParser23parse_node_type_pattern
FN:967,_RNvMNtNtCs87GxMFlPkU4_10gql_parser6parser10graph_typeNtB2_15GraphTypeParser24parse_property_type_list
FN:1334,_RNvMNtNtCs87GxMFlPkU4_10gql_parser6parser10graph_typeNtB2_15GraphTypeParser24parse_regular_identifier
FN:1277,_RNvMNtNtCs87GxMFlPkU4_10gql_parser6parser10graph_typeNtB2_15GraphTypeParser25build_constraint_argument
FN:744,_RNvMNtNtCs87GxMFlPkU4_10gql_parser6parser10graph_typeNtB2_15GraphTypeParser25is_edge_type_filler_start
FN:1060,_RNvMNtNtCs87GxMFlPkU4_10gql_parser6parser10graph_typeNtB2_15GraphTypeParser25is_label_set_phrase_start
FN:366,_RNvMNtNtCs87GxMFlPkU4_10gql_parser6parser10graph_typeNtB2_15GraphTypeParser25is_node_type_filler_start
FN:849,_RNvMNtNtCs87GxMFlPkU4_10gql_parser6parser10graph_typeNtB2_15GraphTypeParser25parse_edge_type_label_set
FN:440,_RNvMNtNtCs87GxMFlPkU4_10gql_parser6parser10graph_typeNtB2_15GraphTypeParser25parse_node_type_label_set
FN:913,_RNvMNtNtCs87GxMFlPkU4_10gql_parser6parser10graph_typeNtB2_15GraphTypeParser25parse_node_type_reference
FN:1039,_RNvMNtNtCs87GxMFlPkU4_10gql_parser6parser10graph_typeNtB2_15GraphTypeParser25parse_property_value_type
FN:1234,_RNvMNtNtCs87GxMFlPkU4_10gql_parser6parser10graph_typeNtB2_15GraphTypeParser26parse_constraint_arguments
FN:877,_RNvMNtNtCs87GxMFlPkU4_10gql_parser6parser10graph_typeNtB2_15GraphTypeParser26parse_endpoint_pair_phrase
FN:1352,_RNvMNtNtCs87GxMFlPkU4_10gql_parser6parser10graph_typeNtB2_15GraphTypeParser27is_regular_identifier_start
FN:1190,_RNvMNtNtCs87GxMFlPkU4_10gql_parser6parser10graph_typeNtB2_15GraphTypeParser27parse_graph_type_constraint
FN:379,_RNvMNtNtCs87GxMFlPkU4_10gql_parser6parser10graph_typeNtB2_15GraphTypeParser27parse_local_node_type_alias
FN:1124,_RNvMNtNtCs87GxMFlPkU4_10gql_parser6parser10graph_typeNtB2_15GraphTypeParser28parse_inheritance_clause_opt
FN:478,_RNvMNtNtCs87GxMFlPkU4_10gql_parser6parser10graph_typeNtB2_15GraphTypeParser29parse_edge_type_specification
FN:1095,_RNvMNtNtCs87GxMFlPkU4_10gql_parser6parser10graph_typeNtB2_15GraphTypeParser29parse_label_set_specification
FN:464,_RNvMNtNtCs87GxMFlPkU4_10gql_parser6parser10graph_typeNtB2_15GraphTypeParser29parse_node_type_key_label_set
FN:230,_RNvMNtNtCs87GxMFlPkU4_10gql_parser6parser10graph_typeNtB2_15GraphTypeParser29parse_node_type_specification
FN:820,_RNvMNtNtCs87GxMFlPkU4_10gql_parser6parser10graph_typeNtB2_15GraphTypeParser30parse_edge_type_phrase_content
FN:514,_RNvMNtNtCs87GxMFlPkU4_10gql_parser6parser10graph_typeNtB2_15GraphTypeParser30parse_edge_type_phrase_pattern
FN:860,_RNvMNtNtCs87GxMFlPkU4_10gql_parser6parser10graph_typeNtB2_15GraphTypeParser30parse_edge_type_property_types
FN:618,_RNvMNtNtCs87GxMFlPkU4_10gql_parser6parser10graph_typeNtB2_15GraphTypeParser30parse_edge_type_visual_pattern
FN:451,_RNvMNtNtCs87GxMFlPkU4_10gql_parser6parser10graph_typeNtB2_15GraphTypeParser30parse_node_type_property_types
FN:1299,_RNvMNtNtCs87GxMFlPkU4_10gql_parser6parser10graph_typeNtB2_15GraphTypeParser31parse_type_reference_identifier
FN:192,_RNvMNtNtCs87GxMFlPkU4_10gql_parser6parser10graph_typeNtB2_15GraphTypeParser32parse_element_type_specification
FN:942,_RNvMNtNtCs87GxMFlPkU4_10gql_parser6parser10graph_typeNtB2_15GraphTypeParser34parse_property_types_specification
FN:1361,_RNvMNtNtCs87GxMFlPkU4_10gql_parser6parser10graph_typeNtB2_15GraphTypeParser35is_edge_pattern_after_left_endpoint
FN:134,_RNvMNtNtCs87GxMFlPkU4_10gql_parser6parser10graph_typeNtB2_15GraphTypeParser35parse_graph_type_specification_body
FN:122,_RNvMNtNtCs87GxMFlPkU4_10gql_parser6parser10graph_typeNtB2_15GraphTypeParser37parse_nested_graph_type_specification
FN:104,_RNvMNtNtCs87GxMFlPkU4_10gql_parser6parser10graph_typeNtB2_15GraphTypeParser3new
FN:1403,_RNvNtNtCs87GxMFlPkU4_10gql_parser6parser10graph_type18token_matches_word
FN:1395,_RNvNtNtCs87GxMFlPkU4_10gql_parser6parser10graph_type21label_set_phrase_span
FNDA:0,_RNCNCNvMNtNtCs6qJP7SanZgw_10gql_parser6parser10graph_typeNtB6_15GraphTypeParser22parse_edge_type_fillers_00Ba_
FNDA:0,_RNCNCNvMNtNtCs6qJP7SanZgw_10gql_parser6parser10graph_typeNtB6_15GraphTypeParser22parse_node_type_fillers0_00Ba_
FNDA:0,_RNCNCNvMNtNtCs6qJP7SanZgw_10gql_parser6parser10graph_typeNtB6_15GraphTypeParser22parse_node_type_fillers1_00Ba_
FNDA:0,_RNCNCNvMNtNtCs6qJP7SanZgw_10gql_parser6parser10graph_typeNtB6_15GraphTypeParser22parse_node_type_fillers_00Ba_
FNDA:0,_RNCNCNvMNtNtCs6qJP7SanZgw_10gql_parser6parser10graph_typeNtB6_15GraphTypeParser22parse_node_type_phrases_00Ba_
FNDA:0,_RNCNCNvMNtNtCs6qJP7SanZgw_10gql_parser6parser10graph_typeNtB6_15GraphTypeParser23parse_node_type_patterns_00Ba_
FNDA:0,_RNCNCNvMNtNtCs6qJP7SanZgw_10gql_parser6parser10graph_typeNtB6_15GraphTypeParser30parse_edge_type_phrase_contents_00Ba_
FNDA:0,_RNCNvMNtNtCs6qJP7SanZgw_10gql_parser6parser10graph_typeNtB4_15GraphTypeParser22parse_edge_type_filler0B8_
FNDA:0,_RNCNvMNtNtCs6qJP7SanZgw_10gql_parser6parser10graph_typeNtB4_15GraphTypeParser22parse_edge_type_fillers0_0B8_
FNDA:0,_RNCNvMNtNtCs6qJP7SanZgw_10gql_parser6parser10graph_typeNtB4_15GraphTypeParser22parse_edge_type_fillers_0B8_
FNDA:0,_RNCNvMNtNtCs6qJP7SanZgw_10gql_parser6parser10graph_typeNtB4_15GraphTypeParser22parse_node_type_filler0B8_
FNDA:0,_RNCNvMNtNtCs6qJP7SanZgw_10gql_parser6parser10graph_typeNtB4_15GraphTypeParser22parse_node_type_fillers0_0B8_
FNDA:0,_RNCNvMNtNtCs6qJP7SanZgw_10gql_parser6parser10graph_typeNtB4_15GraphTypeParser22parse_node_type_fillers1_0B8_
FNDA:0,_RNCNvMNtNtCs6qJP7SanZgw_10gql_parser6parser10graph_typeNtB4_15GraphTypeParser22parse_node_type_fillers2_0B8_
FNDA:0,_RNCNvMNtNtCs6qJP7SanZgw_10gql_parser6parser10graph_typeNtB4_15GraphTypeParser22parse_node_type_fillers_0B8_
FNDA:0,_RNCNvMNtNtCs6qJP7SanZgw_10gql_parser6parser10graph_typeNtB4_15GraphTypeParser22parse_node_type_phrase0B8_
FNDA:0,_RNCNvMNtNtCs6qJP7SanZgw_10gql_parser6parser10graph_typeNtB4_15GraphTypeParser22parse_node_type_phrases0_0B8_
FNDA:0,_RNCNvMNtNtCs6qJP7SanZgw_10gql_parser6parser10graph_typeNtB4_15GraphTypeParser22parse_node_type_phrases_0B8_
FNDA:0,_RNCNvMNtNtCs6qJP7SanZgw_10gql_parser6parser10graph_typeNtB4_15GraphTypeParser23parse_element_type_list0B8_
FNDA:0,_RNCNvMNtNtCs6qJP7SanZgw_10gql_parser6parser10graph_typeNtB4_15GraphTypeParser23parse_element_type_lists_0B8_
FNDA:0,_RNCNvMNtNtCs6qJP7SanZgw_10gql_parser6parser10graph_typeNtB4_15GraphTypeParser23parse_node_type_pattern0B8_
FNDA:0,_RNCNvMNtNtCs6qJP7SanZgw_10gql_parser6parser10graph_typeNtB4_15GraphTypeParser23parse_node_type_patterns0_0B8_
FNDA:0,_RNCNvMNtNtCs6qJP7SanZgw_10gql_parser6parser10graph_typeNtB4_15GraphTypeParser23parse_node_type_patterns_0B8_
FNDA:0,_RNCNvMNtNtCs6qJP7SanZgw_10gql_parser6parser10graph_typeNtB4_15GraphTypeParser24parse_property_type_list0B8_
FNDA:0,_RNCNvMNtNtCs6qJP7SanZgw_10gql_parser6parser10graph_typeNtB4_15GraphTypeParser24parse_property_type_lists_0B8_
FNDA:0,_RNCNvMNtNtCs6qJP7SanZgw_10gql_parser6parser10graph_typeNtB4_15GraphTypeParser25build_constraint_argument0B8_
FNDA:0,_RNCNvMNtNtCs6qJP7SanZgw_10gql_parser6parser10graph_typeNtB4_15GraphTypeParser25parse_property_value_type0B8_
FNDA:0,_RNCNvMNtNtCs6qJP7SanZgw_10gql_parser6parser10graph_typeNtB4_15GraphTypeParser27parse_graph_type_constraint0B8_
FNDA:0,_RNCNvMNtNtCs6qJP7SanZgw_10gql_parser6parser10graph_typeNtB4_15GraphTypeParser28parse_inheritance_clause_opt0B8_
FNDA:0,_RNCNvMNtNtCs6qJP7SanZgw_10gql_parser6parser10graph_typeNtB4_15GraphTypeParser28parse_inheritance_clause_opts_0B8_
FNDA:0,_RNCNvMNtNtCs6qJP7SanZgw_10gql_parser6parser10graph_typeNtB4_15GraphTypeParser29parse_label_set_specification0B8_
FNDA:0,_RNCNvMNtNtCs6qJP7SanZgw_10gql_parser6parser10graph_typeNtB4_15GraphTypeParser29parse_label_set_specifications_0B8_
FNDA:0,_RNCNvMNtNtCs6qJP7SanZgw_10gql_parser6parser10graph_typeNtB4_15GraphTypeParser30parse_edge_type_phrase_content0B8_
FNDA:0,_RNCNvMNtNtCs6qJP7SanZgw_10gql_parser6parser10graph_typeNtB4_15GraphTypeParser30parse_edge_type_phrase_contents0_0B8_
FNDA:0,_RNCNvMNtNtCs6qJP7SanZgw_10gql_parser6parser10graph_typeNtB4_15GraphTypeParser30parse_edge_type_phrase_contents_0B8_
FNDA:0,_RNvMNtNtCs6qJP7SanZgw_10gql_parser6parser10graph_typeNtB2_15GraphTypeParser10check_word
FNDA:0,_RNvMNtNtCs6qJP7SanZgw_10gql_parser6parser10graph_typeNtB2_15GraphTypeParser10error_here
FNDA:0,_RNvMNtNtCs6qJP7SanZgw_10gql_parser6parser10graph_typeNtB2_15GraphTypeParser12consume_word
FNDA:0,_RNvMNtNtCs6qJP7SanZgw_10gql_parser6parser10graph_typeNtB2_15GraphTypeParser16current_position
FNDA:0,_RNvMNtNtCs6qJP7SanZgw_10gql_parser6parser10graph_typeNtB2_15GraphTypeParser16parse_label_name
FNDA:0,_RNvMNtNtCs6qJP7SanZgw_10gql_parser6parser10graph_typeNtB2_15GraphTypeParser19is_constraint_start
FNDA:0,_RNvMNtNtCs6qJP7SanZgw_10gql_parser6parser10graph_typeNtB2_15GraphTypeParser19parse_endpoint_pair
FNDA:0,_RNvMNtNtCs6qJP7SanZgw_10gql_parser6parser10graph_typeNtB2_15GraphTypeParser19parse_property_name
FNDA:0,_RNvMNtNtCs6qJP7SanZgw_10gql_parser6parser10graph_typeNtB2_15GraphTypeParser19parse_property_type
FNDA:0,_RNvMNtNtCs6qJP7SanZgw_10gql_parser6parser10graph_typeNtB2_15GraphTypeParser20is_inheritance_start
FNDA:0,_RNvMNtNtCs6qJP7SanZgw_10gql_parser6parser10graph_typeNtB2_15GraphTypeParser21is_element_type_start
FNDA:0,_RNvMNtNtCs6qJP7SanZgw_10gql_parser6parser10graph_typeNtB2_15GraphTypeParser21parse_edge_arc_filler
FNDA:0,_RNvMNtNtCs6qJP7SanZgw_10gql_parser6parser10graph_typeNtB2_15GraphTypeParser22parse_edge_type_filler
FNDA:0,_RNvMNtNtCs6qJP7SanZgw_10gql_parser6parser10graph_typeNtB2_15GraphTypeParser22parse_label_set_phrase
FNDA:0,_RNvMNtNtCs6qJP7SanZgw_10gql_parser6parser10graph_typeNtB2_15GraphTypeParser22parse_node_type_filler
FNDA:0,_RNvMNtNtCs6qJP7SanZgw_10gql_parser6parser10graph_typeNtB2_15GraphTypeParser22parse_node_type_phrase
FNDA:0,_RNvMNtNtCs6qJP7SanZgw_10gql_parser6parser10graph_typeNtB2_15GraphTypeParser23parse_edge_type_pattern
FNDA:0,_RNvMNtNtCs6qJP7SanZgw_10gql_parser6parser10graph_typeNtB2_15GraphTypeParser23parse_element_type_list
FNDA:0,_RNvMNtNtCs6qJP7SanZgw_10gql_parser6parser10graph_typeNtB2_15GraphTypeParser23parse_node_type_pattern
FNDA:0,_RNvMNtNtCs6qJP7SanZgw_10gql_parser6parser10graph_typeNtB2_15GraphTypeParser24parse_property_type_list
FNDA:0,_RNvMNtNtCs6qJP7SanZgw_10gql_parser6parser10graph_typeNtB2_15GraphTypeParser24parse_regular_identifier
FNDA:0,_RNvMNtNtCs6qJP7SanZgw_10gql_parser6parser10graph_typeNtB2_15GraphTypeParser25build_constraint_argument
FNDA:0,_RNvMNtNtCs6qJP7SanZgw_10gql_parser6parser10graph_typeNtB2_15GraphTypeParser25is_edge_type_filler_start
FNDA:0,_RNvMNtNtCs6qJP7SanZgw_10gql_parser6parser10graph_typeNtB2_15GraphTypeParser25is_label_set_phrase_start
FNDA:0,_RNvMNtNtCs6qJP7SanZgw_10gql_parser6parser10graph_typeNtB2_15GraphTypeParser25is_node_type_filler_start
FNDA:0,_RNvMNtNtCs6qJP7SanZgw_10gql_parser6parser10graph_typeNtB2_15GraphTypeParser25parse_edge_type_label_set
FNDA:0,_RNvMNtNtCs6qJP7SanZgw_10gql_parser6parser10graph_typeNtB2_15GraphTypeParser25parse_node_type_label_set
FNDA:0,_RNvMNtNtCs6qJP7SanZgw_10gql_parser6parser10graph_typeNtB2_15GraphTypeParser25parse_node_type_reference
FNDA:0,_RNvMNtNtCs6qJP7SanZgw_10gql_parser6parser10graph_typeNtB2_15GraphTypeParser25parse_property_value_type
FNDA:0,_RNvMNtNtCs6qJP7SanZgw_10gql_parser6parser10graph_typeNtB2_15GraphTypeParser26parse_constraint_arguments
FNDA:0,_RNvMNtNtCs6qJP7SanZgw_10gql_parser6parser10graph_typeNtB2_15GraphTypeParser26parse_endpoint_pair_phrase
FNDA:0,_RNvMNtNtCs6qJP7SanZgw_10gql_parser6parser10graph_typeNtB2_15GraphTypeParser27is_regular_identifier_start
FNDA:0,_RNvMNtNtCs6qJP7SanZgw_10gql_parser6parser10graph_typeNtB2_15GraphTypeParser27parse_graph_type_constraint
FNDA:0,_RNvMNtNtCs6qJP7SanZgw_10gql_parser6parser10graph_typeNtB2_15GraphTypeParser27parse_local_node_type_alias
FNDA:0,_RNvMNtNtCs6qJP7SanZgw_10gql_parser6parser10graph_typeNtB2_15GraphTypeParser28parse_inheritance_clause_opt
FNDA:0,_RNvMNtNtCs6qJP7SanZgw_10gql_parser6parser10graph_typeNtB2_15GraphTypeParser29parse_edge_type_specification
FNDA:0,_RNvMNtNtCs6qJP7SanZgw_10gql_parser6parser10graph_typeNtB2_15GraphTypeParser29parse_label_set_specification
FNDA:0,_RNvMNtNtCs6qJP7SanZgw_10gql_parser6parser10graph_typeNtB2_15GraphTypeParser29parse_node_type_key_label_set
FNDA:0,_RNvMNtNtCs6qJP7SanZgw_10gql_parser6parser10graph_typeNtB2_15GraphTypeParser29parse_node_type_specification
FNDA:0,_RNvMNtNtCs6qJP7SanZgw_10gql_parser6parser10graph_typeNtB2_15GraphTypeParser30parse_edge_type_phrase_content
FNDA:0,_RNvMNtNtCs6qJP7SanZgw_10gql_parser6parser10graph_typeNtB2_15GraphTypeParser30parse_edge_type_phrase_pattern
FNDA:0,_RNvMNtNtCs6qJP7SanZgw_10gql_parser6parser10graph_typeNtB2_15GraphTypeParser30parse_edge_type_property_types
FNDA:0,_RNvMNtNtCs6qJP7SanZgw_10gql_parser6parser10graph_typeNtB2_15GraphTypeParser30parse_edge_type_visual_pattern
FNDA:0,_RNvMNtNtCs6qJP7SanZgw_10gql_parser6parser10graph_typeNtB2_15GraphTypeParser30parse_node_type_property_types
FNDA:0,_RNvMNtNtCs6qJP7SanZgw_10gql_parser6parser10graph_typeNtB2_15GraphTypeParser31parse_type_reference_identifier
FNDA:0,_RNvMNtNtCs6qJP7SanZgw_10gql_parser6parser10graph_typeNtB2_15GraphTypeParser32parse_element_type_specification
FNDA:0,_RNvMNtNtCs6qJP7SanZgw_10gql_parser6parser10graph_typeNtB2_15GraphTypeParser34parse_property_types_specification
FNDA:0,_RNvMNtNtCs6qJP7SanZgw_10gql_parser6parser10graph_typeNtB2_15GraphTypeParser35is_edge_pattern_after_left_endpoint
FNDA:0,_RNvMNtNtCs6qJP7SanZgw_10gql_parser6parser10graph_typeNtB2_15GraphTypeParser35parse_graph_type_specification_body
FNDA:0,_RNvMNtNtCs6qJP7SanZgw_10gql_parser6parser10graph_typeNtB2_15GraphTypeParser37parse_nested_graph_type_specification
FNDA:0,_RNvMNtNtCs6qJP7SanZgw_10gql_parser6parser10graph_typeNtB2_15GraphTypeParser3new
FNDA:0,_RNvNtNtCs6qJP7SanZgw_10gql_parser6parser10graph_type18token_matches_word
FNDA:0,_RNvNtNtCs6qJP7SanZgw_10gql_parser6parser10graph_type21label_set_phrase_span
FNDA:0,_RNCNCNvMNtNtCs87GxMFlPkU4_10gql_parser6parser10graph_typeNtB6_15GraphTypeParser22parse_edge_type_fillers_00Ba_
FNDA:0,_RNCNCNvMNtNtCs87GxMFlPkU4_10gql_parser6parser10graph_typeNtB6_15GraphTypeParser22parse_node_type_fillers0_00Ba_
FNDA:0,_RNCNCNvMNtNtCs87GxMFlPkU4_10gql_parser6parser10graph_typeNtB6_15GraphTypeParser22parse_node_type_fillers1_00Ba_
FNDA:0,_RNCNCNvMNtNtCs87GxMFlPkU4_10gql_parser6parser10graph_typeNtB6_15GraphTypeParser22parse_node_type_fillers_00Ba_
FNDA:0,_RNCNCNvMNtNtCs87GxMFlPkU4_10gql_parser6parser10graph_typeNtB6_15GraphTypeParser22parse_node_type_phrases_00Ba_
FNDA:0,_RNCNCNvMNtNtCs87GxMFlPkU4_10gql_parser6parser10graph_typeNtB6_15GraphTypeParser23parse_node_type_patterns_00Ba_
FNDA:0,_RNCNCNvMNtNtCs87GxMFlPkU4_10gql_parser6parser10graph_typeNtB6_15GraphTypeParser30parse_edge_type_phrase_contents_00Ba_
FNDA:0,_RNCNvMNtNtCs87GxMFlPkU4_10gql_parser6parser10graph_typeNtB4_15GraphTypeParser22parse_edge_type_filler0B8_
FNDA:0,_RNCNvMNtNtCs87GxMFlPkU4_10gql_parser6parser10graph_typeNtB4_15GraphTypeParser22parse_edge_type_fillers0_0B8_
FNDA:0,_RNCNvMNtNtCs87GxMFlPkU4_10gql_parser6parser10graph_typeNtB4_15GraphTypeParser22parse_edge_type_fillers_0B8_
FNDA:0,_RNCNvMNtNtCs87GxMFlPkU4_10gql_parser6parser10graph_typeNtB4_15GraphTypeParser22parse_node_type_filler0B8_
FNDA:0,_RNCNvMNtNtCs87GxMFlPkU4_10gql_parser6parser10graph_typeNtB4_15GraphTypeParser22parse_node_type_fillers0_0B8_
FNDA:0,_RNCNvMNtNtCs87GxMFlPkU4_10gql_parser6parser10graph_typeNtB4_15GraphTypeParser22parse_node_type_fillers1_0B8_
FNDA:0,_RNCNvMNtNtCs87GxMFlPkU4_10gql_parser6parser10graph_typeNtB4_15GraphTypeParser22parse_node_type_fillers2_0B8_
FNDA:0,_RNCNvMNtNtCs87GxMFlPkU4_10gql_parser6parser10graph_typeNtB4_15GraphTypeParser22parse_node_type_fillers_0B8_
FNDA:0,_RNCNvMNtNtCs87GxMFlPkU4_10gql_parser6parser10graph_typeNtB4_15GraphTypeParser22parse_node_type_phrase0B8_
FNDA:0,_RNCNvMNtNtCs87GxMFlPkU4_10gql_parser6parser10graph_typeNtB4_15GraphTypeParser22parse_node_type_phrases0_0B8_
FNDA:0,_RNCNvMNtNtCs87GxMFlPkU4_10gql_parser6parser10graph_typeNtB4_15GraphTypeParser22parse_node_type_phrases_0B8_
FNDA:0,_RNCNvMNtNtCs87GxMFlPkU4_10gql_parser6parser10graph_typeNtB4_15GraphTypeParser23parse_element_type_list0B8_
FNDA:0,_RNCNvMNtNtCs87GxMFlPkU4_10gql_parser6parser10graph_typeNtB4_15GraphTypeParser23parse_element_type_lists_0B8_
FNDA:0,_RNCNvMNtNtCs87GxMFlPkU4_10gql_parser6parser10graph_typeNtB4_15GraphTypeParser23parse_node_type_pattern0B8_
FNDA:0,_RNCNvMNtNtCs87GxMFlPkU4_10gql_parser6parser10graph_typeNtB4_15GraphTypeParser23parse_node_type_patterns0_0B8_
FNDA:0,_RNCNvMNtNtCs87GxMFlPkU4_10gql_parser6parser10graph_typeNtB4_15GraphTypeParser23parse_node_type_patterns_0B8_
FNDA:0,_RNCNvMNtNtCs87GxMFlPkU4_10gql_parser6parser10graph_typeNtB4_15GraphTypeParser24parse_property_type_list0B8_
FNDA:0,_RNCNvMNtNtCs87GxMFlPkU4_10gql_parser6parser10graph_typeNtB4_15GraphTypeParser24parse_property_type_lists_0B8_
FNDA:0,_RNCNvMNtNtCs87GxMFlPkU4_10gql_parser6parser10graph_typeNtB4_15GraphTypeParser25build_constraint_argument0B8_
FNDA:0,_RNCNvMNtNtCs87GxMFlPkU4_10gql_parser6parser10graph_typeNtB4_15GraphTypeParser25parse_property_value_type0B8_
FNDA:0,_RNCNvMNtNtCs87GxMFlPkU4_10gql_parser6parser10graph_typeNtB4_15GraphTypeParser27parse_graph_type_constraint0B8_
FNDA:0,_RNCNvMNtNtCs87GxMFlPkU4_10gql_parser6parser10graph_typeNtB4_15GraphTypeParser28parse_inheritance_clause_opt0B8_
FNDA:0,_RNCNvMNtNtCs87GxMFlPkU4_10gql_parser6parser10graph_typeNtB4_15GraphTypeParser28parse_inheritance_clause_opts_0B8_
FNDA:0,_RNCNvMNtNtCs87GxMFlPkU4_10gql_parser6parser10graph_typeNtB4_15GraphTypeParser29parse_label_set_specification0B8_
FNDA:0,_RNCNvMNtNtCs87GxMFlPkU4_10gql_parser6parser10graph_typeNtB4_15GraphTypeParser29parse_label_set_specifications_0B8_
FNDA:0,_RNCNvMNtNtCs87GxMFlPkU4_10gql_parser6parser10graph_typeNtB4_15GraphTypeParser30parse_edge_type_phrase_content0B8_
FNDA:0,_RNCNvMNtNtCs87GxMFlPkU4_10gql_parser6parser10graph_typeNtB4_15GraphTypeParser30parse_edge_type_phrase_contents0_0B8_
FNDA:0,_RNCNvMNtNtCs87GxMFlPkU4_10gql_parser6parser10graph_typeNtB4_15GraphTypeParser30parse_edge_type_phrase_contents_0B8_
FNDA:0,_RNvMNtNtCs87GxMFlPkU4_10gql_parser6parser10graph_typeNtB2_15GraphTypeParser10check_word
FNDA:0,_RNvMNtNtCs87GxMFlPkU4_10gql_parser6parser10graph_typeNtB2_15GraphTypeParser10error_here
FNDA:0,_RNvMNtNtCs87GxMFlPkU4_10gql_parser6parser10graph_typeNtB2_15GraphTypeParser12consume_word
FNDA:0,_RNvMNtNtCs87GxMFlPkU4_10gql_parser6parser10graph_typeNtB2_15GraphTypeParser16current_position
FNDA:0,_RNvMNtNtCs87GxMFlPkU4_10gql_parser6parser10graph_typeNtB2_15GraphTypeParser16parse_label_name
FNDA:0,_RNvMNtNtCs87GxMFlPkU4_10gql_parser6parser10graph_typeNtB2_15GraphTypeParser19is_constraint_start
FNDA:0,_RNvMNtNtCs87GxMFlPkU4_10gql_parser6parser10graph_typeNtB2_15GraphTypeParser19parse_endpoint_pair
FNDA:0,_RNvMNtNtCs87GxMFlPkU4_10gql_parser6parser10graph_typeNtB2_15GraphTypeParser19parse_property_name
FNDA:0,_RNvMNtNtCs87GxMFlPkU4_10gql_parser6parser10graph_typeNtB2_15GraphTypeParser19parse_property_type
FNDA:0,_RNvMNtNtCs87GxMFlPkU4_10gql_parser6parser10graph_typeNtB2_15GraphTypeParser20is_inheritance_start
FNDA:0,_RNvMNtNtCs87GxMFlPkU4_10gql_parser6parser10graph_typeNtB2_15GraphTypeParser21is_element_type_start
FNDA:0,_RNvMNtNtCs87GxMFlPkU4_10gql_parser6parser10graph_typeNtB2_15GraphTypeParser21parse_edge_arc_filler
FNDA:0,_RNvMNtNtCs87GxMFlPkU4_10gql_parser6parser10graph_typeNtB2_15GraphTypeParser22parse_edge_type_filler
FNDA:0,_RNvMNtNtCs87GxMFlPkU4_10gql_parser6parser10graph_typeNtB2_15GraphTypeParser22parse_label_set_phrase
FNDA:0,_RNvMNtNtCs87GxMFlPkU4_10gql_parser6parser10graph_typeNtB2_15GraphTypeParser22parse_node_type_filler
FNDA:0,_RNvMNtNtCs87GxMFlPkU4_10gql_parser6parser10graph_typeNtB2_15GraphTypeParser22parse_node_type_phrase
FNDA:0,_RNvMNtNtCs87GxMFlPkU4_10gql_parser6parser10graph_typeNtB2_15GraphTypeParser23parse_edge_type_pattern
FNDA:0,_RNvMNtNtCs87GxMFlPkU4_10gql_parser6parser10graph_typeNtB2_15GraphTypeParser23parse_element_type_list
FNDA:0,_RNvMNtNtCs87GxMFlPkU4_10gql_parser6parser10graph_typeNtB2_15GraphTypeParser23parse_node_type_pattern
FNDA:0,_RNvMNtNtCs87GxMFlPkU4_10gql_parser6parser10graph_typeNtB2_15GraphTypeParser24parse_property_type_list
FNDA:0,_RNvMNtNtCs87GxMFlPkU4_10gql_parser6parser10graph_typeNtB2_15GraphTypeParser24parse_regular_identifier
FNDA:0,_RNvMNtNtCs87GxMFlPkU4_10gql_parser6parser10graph_typeNtB2_15GraphTypeParser25build_constraint_argument
FNDA:0,_RNvMNtNtCs87GxMFlPkU4_10gql_parser6parser10graph_typeNtB2_15GraphTypeParser25is_edge_type_filler_start
FNDA:0,_RNvMNtNtCs87GxMFlPkU4_10gql_parser6parser10graph_typeNtB2_15GraphTypeParser25is_label_set_phrase_start
FNDA:0,_RNvMNtNtCs87GxMFlPkU4_10gql_parser6parser10graph_typeNtB2_15GraphTypeParser25is_node_type_filler_start
FNDA:0,_RNvMNtNtCs87GxMFlPkU4_10gql_parser6parser10graph_typeNtB2_15GraphTypeParser25parse_edge_type_label_set
FNDA:0,_RNvMNtNtCs87GxMFlPkU4_10gql_parser6parser10graph_typeNtB2_15GraphTypeParser25parse_node_type_label_set
FNDA:0,_RNvMNtNtCs87GxMFlPkU4_10gql_parser6parser10graph_typeNtB2_15GraphTypeParser25parse_node_type_reference
FNDA:0,_RNvMNtNtCs87GxMFlPkU4_10gql_parser6parser10graph_typeNtB2_15GraphTypeParser25parse_property_value_type
FNDA:0,_RNvMNtNtCs87GxMFlPkU4_10gql_parser6parser10graph_typeNtB2_15GraphTypeParser26parse_constraint_arguments
FNDA:0,_RNvMNtNtCs87GxMFlPkU4_10gql_parser6parser10graph_typeNtB2_15GraphTypeParser26parse_endpoint_pair_phrase
FNDA:0,_RNvMNtNtCs87GxMFlPkU4_10gql_parser6parser10graph_typeNtB2_15GraphTypeParser27is_regular_identifier_start
FNDA:0,_RNvMNtNtCs87GxMFlPkU4_10gql_parser6parser10graph_typeNtB2_15GraphTypeParser27parse_graph_type_constraint
FNDA:0,_RNvMNtNtCs87GxMFlPkU4_10gql_parser6parser10graph_typeNtB2_15GraphTypeParser27parse_local_node_type_alias
FNDA:0,_RNvMNtNtCs87GxMFlPkU4_10gql_parser6parser10graph_typeNtB2_15GraphTypeParser28parse_inheritance_clause_opt
FNDA:0,_RNvMNtNtCs87GxMFlPkU4_10gql_parser6parser10graph_typeNtB2_15GraphTypeParser29parse_edge_type_specification
FNDA:0,_RNvMNtNtCs87GxMFlPkU4_10gql_parser6parser10graph_typeNtB2_15GraphTypeParser29parse_label_set_specification
FNDA:0,_RNvMNtNtCs87GxMFlPkU4_10gql_parser6parser10graph_typeNtB2_15GraphTypeParser29parse_node_type_key_label_set
FNDA:0,_RNvMNtNtCs87GxMFlPkU4_10gql_parser6parser10graph_typeNtB2_15GraphTypeParser29parse_node_type_specification
FNDA:0,_RNvMNtNtCs87GxMFlPkU4_10gql_parser6parser10graph_typeNtB2_15GraphTypeParser30parse_edge_type_phrase_content
FNDA:0,_RNvMNtNtCs87GxMFlPkU4_10gql_parser6parser10graph_typeNtB2_15GraphTypeParser30parse_edge_type_phrase_pattern
FNDA:0,_RNvMNtNtCs87GxMFlPkU4_10gql_parser6parser10graph_typeNtB2_15GraphTypeParser30parse_edge_type_property_types
FNDA:0,_RNvMNtNtCs87GxMFlPkU4_10gql_parser6parser10graph_typeNtB2_15GraphTypeParser30parse_edge_type_visual_pattern
FNDA:0,_RNvMNtNtCs87GxMFlPkU4_10gql_parser6parser10graph_typeNtB2_15GraphTypeParser30parse_node_type_property_types
FNDA:0,_RNvMNtNtCs87GxMFlPkU4_10gql_parser6parser10graph_typeNtB2_15GraphTypeParser31parse_type_reference_identifier
FNDA:0,_RNvMNtNtCs87GxMFlPkU4_10gql_parser6parser10graph_typeNtB2_15GraphTypeParser32parse_element_type_specification
FNDA:0,_RNvMNtNtCs87GxMFlPkU4_10gql_parser6parser10graph_typeNtB2_15GraphTypeParser34parse_property_types_specification
FNDA:0,_RNvMNtNtCs87GxMFlPkU4_10gql_parser6parser10graph_typeNtB2_15GraphTypeParser35is_edge_pattern_after_left_endpoint
FNDA:0,_RNvMNtNtCs87GxMFlPkU4_10gql_parser6parser10graph_typeNtB2_15GraphTypeParser35parse_graph_type_specification_body
FNDA:0,_RNvMNtNtCs87GxMFlPkU4_10gql_parser6parser10graph_typeNtB2_15GraphTypeParser37parse_nested_graph_type_specification
FNDA:0,_RNvMNtNtCs87GxMFlPkU4_10gql_parser6parser10graph_typeNtB2_15GraphTypeParser3new
FNDA:0,_RNvNtNtCs87GxMFlPkU4_10gql_parser6parser10graph_type18token_matches_word
FNDA:0,_RNvNtNtCs87GxMFlPkU4_10gql_parser6parser10graph_type21label_set_phrase_span
FNF:88
FNH:0
DA:104,0
DA:105,0
DA:106,0
DA:107,0
DA:108,0
DA:111,0
DA:112,0
DA:113,0
DA:122,0
DA:123,0
DA:124,0
DA:125,0
DA:126,0
DA:128,0
DA:129,0
DA:134,0
DA:135,0
DA:138,0
DA:139,0
DA:140,0
DA:141,0
DA:142,0
DA:143,0
DA:144,0
DA:145,0
DA:146,0
DA:147,0
DA:149,0
DA:150,0
DA:152,0
DA:153,0
DA:154,0
DA:155,0
DA:156,0
DA:159,0
DA:160,0
DA:161,0
DA:164,0
DA:167,0
DA:169,0
DA:170,0
DA:171,0
DA:172,0
DA:175,0
DA:176,0
DA:177,0
DA:178,0
DA:179,0
DA:180,0
DA:181,0
DA:183,0
DA:184,0
DA:185,0
DA:186,0
DA:187,0
DA:192,0
DA:193,0
DA:196,0
DA:197,0
DA:198,0
DA:199,0
DA:202,0
DA:203,0
DA:204,0
DA:205,0
DA:207,0
DA:208,0
DA:209,0
DA:211,0
DA:212,0
DA:213,0
DA:214,0
DA:215,0
DA:216,0
DA:217,0
DA:218,0
DA:220,0
DA:221,0
DA:230,0
DA:231,0
DA:232,0
DA:233,0
DA:234,0
DA:235,0
DA:236,0
DA:237,0
DA:238,0
DA:239,0
DA:240,0
DA:241,0
DA:242,0
DA:243,0
DA:245,0
DA:246,0
DA:247,0
DA:248,0
DA:249,0
DA:250,0
DA:251,0
DA:252,0
DA:253,0
DA:254,0
DA:255,0
DA:256,0
DA:257,0
DA:260,0
DA:261,0
DA:262,0
DA:263,0
DA:264,0
DA:267,0
DA:268,0
DA:269,0
DA:270,0
DA:271,0
DA:272,0
DA:273,0
DA:275,0
DA:276,0
DA:277,0
DA:278,0
DA:280,0
DA:282,0
DA:283,0
DA:284,0
DA:285,0
DA:286,0
DA:288,0
DA:290,0
DA:292,0
DA:293,0
DA:294,0
DA:295,0
DA:296,0
DA:297,0
DA:298,0
DA:299,0
DA:300,0
DA:301,0
DA:303,0
DA:304,0
DA:305,0
DA:306,0
DA:307,0
DA:308,0
DA:309,0
DA:310,0
DA:315,0
DA:316,0
DA:317,0
DA:318,0
DA:320,0
DA:321,0
DA:322,0
DA:323,0
DA:324,0
DA:325,0
DA:327,0
DA:328,0
DA:329,0
DA:330,0
DA:331,0
DA:332,0
DA:333,0
DA:334,0
DA:336,0
DA:338,0
DA:339,0
DA:340,0
DA:343,0
DA:344,0
DA:346,0
DA:349,0
DA:350,0
DA:351,0
DA:352,0
DA:353,0
DA:355,0
DA:356,0
DA:357,0
DA:358,0
DA:359,0
DA:360,0
DA:361,0
DA:362,0
DA:363,0
DA:366,0
DA:367,0
DA:368,0
DA:375,0
DA:376,0
DA:379,0
DA:380,0
DA:381,0
DA:382,0
DA:391,0
DA:392,0
DA:393,0
DA:394,0
DA:395,0
DA:396,0
DA:397,0
DA:400,0
DA:401,0
DA:402,0
DA:405,0
DA:406,0
DA:407,0
DA:410,0
DA:411,0
DA:412,0
DA:414,0
DA:415,0
DA:421,0
DA:422,0
DA:423,0
DA:424,0
DA:425,0
DA:426,0
DA:427,0
DA:429,0
DA:430,0
DA:431,0
DA:432,0
DA:433,0
DA:434,0
DA:435,0
DA:436,0
DA:437,0
DA:440,0
DA:441,0
DA:442,0
DA:444,0
DA:445,0
DA:446,0
DA:447,0
DA:448,0
DA:451,0
DA:452,0
DA:453,0
DA:455,0
DA:456,0
DA:457,0
DA:458,0
DA:459,0
DA:464,0
DA:465,0
DA:466,0
DA:468,0
DA:469,0
DA:478,0
DA:479,0
DA:480,0
DA:481,0
DA:482,0
DA:483,0
DA:484,0
DA:485,0
DA:488,0
DA:489,0
DA:490,0
DA:491,0
DA:492,0
DA:493,0
DA:494,0
DA:497,0
DA:498,0
DA:499,0
DA:501,0
DA:502,0
DA:503,0
DA:504,0
DA:506,0
DA:507,0
DA:510,0
DA:511,0
DA:514,0
DA:515,0
DA:516,0
DA:517,0
DA:520,0
DA:521,0
DA:522,0
DA:523,0
DA:525,0
DA:529,0
DA:531,0
DA:532,0
DA:535,0
DA:538,0
DA:539,0
DA:540,0
DA:541,0
DA:544,0
DA:545,0
DA:546,0
DA:548,0
DA:551,0
DA:552,0
DA:553,0
DA:557,0
DA:560,0
DA:561,0
DA:562,0
DA:563,0
DA:564,0
DA:565,0
DA:566,0
DA:567,0
DA:568,0
DA:569,0
DA:571,0
DA:572,0
DA:573,0
DA:574,0
DA:575,0
DA:576,0
DA:578,0
DA:579,0
DA:580,0
DA:581,0
DA:582,0
DA:583,0
DA:585,0
DA:586,0
DA:587,0
DA:588,0
DA:589,0
DA:590,0
DA:591,0
DA:592,0
DA:593,0
DA:594,0
DA:595,0
DA:596,0
DA:597,0
DA:600,0
DA:601,0
DA:602,0
DA:603,0
DA:604,0
DA:605,0
DA:606,0
DA:607,0
DA:608,0
DA:609,0
DA:610,0
DA:611,0
DA:612,0
DA:615,0
DA:618,0
DA:619,0
DA:620,0
DA:621,0
DA:624,0
DA:627,0
DA:628,0
DA:629,0
DA:630,0
DA:632,0
DA:633,0
DA:634,0
DA:636,0
DA:638,0
DA:639,0
DA:640,0
DA:641,0
DA:642,0
DA:644,0
DA:645,0
DA:647,0
DA:648,0
DA:649,0
DA:650,0
DA:653,0
DA:654,0
DA:656,0
DA:657,0
DA:658,0
DA:659,0
DA:660,0
DA:661,0
DA:662,0
DA:663,0
DA:664,0
DA:667,0
DA:668,0
DA:669,0
DA:670,0
DA:671,0
DA:672,0
DA:674,0
DA:675,0
DA:676,0
DA:677,0
DA:680,0
DA:681,0
DA:683,0
DA:684,0
DA:685,0
DA:686,0
DA:687,0
DA:688,0
DA:689,0
DA:690,0
DA:691,0
DA:693,0
DA:695,0
DA:696,0
DA:697,0
DA:699,0
DA:700,0
DA:701,0
DA:702,0
DA:705,0
DA:706,0
DA:708,0
DA:709,0
DA:710,0
DA:711,0
DA:712,0
DA:713,0
DA:714,0
DA:715,0
DA:716,0
DA:718,0
DA:720,0
DA:723,0
DA:724,0
DA:727,0
DA:728,0
DA:729,0
DA:730,0
DA:733,0
DA:734,0
DA:736,0
DA:739,0
DA:740,0
DA:741,0
DA:744,0
DA:745,0
DA:746,0
DA:747,0
DA:748,0
DA:749,0
DA:752,0
DA:753,0
DA:754,0
DA:758,0
DA:759,0
DA:760,0
DA:762,0
DA:765,0
DA:766,0
DA:769,0
DA:770,0
DA:771,0
DA:772,0
DA:773,0
DA:776,0
DA:777,0
DA:778,0
DA:779,0
DA:780,0
DA:781,0
DA:782,0
DA:783,0
DA:784,0
DA:785,0
DA:786,0
DA:787,0
DA:788,0
DA:789,0
DA:790,0
DA:791,0
DA:792,0
DA:793,0
DA:794,0
DA:795,0
DA:796,0
DA:797,0
DA:798,0
DA:799,0
DA:800,0
DA:802,0
DA:803,0
DA:804,0
DA:805,0
DA:806,0
DA:807,0
DA:808,0
DA:809,0
DA:810,0
DA:812,0
DA:813,0
DA:814,0
DA:815,0
DA:816,0
DA:817,0
DA:820,0
DA:821,0
DA:822,0
DA:823,0
DA:826,0
DA:827,0
DA:828,0
DA:831,0
DA:832,0
DA:833,0
DA:835,0
DA:836,0
DA:837,0
DA:838,0
DA:839,0
DA:841,0
DA:842,0
DA:843,0
DA:844,0
DA:845,0
DA:846,0
DA:849,0
DA:850,0
DA:851,0
DA:853,0
DA:854,0
DA:855,0
DA:856,0
DA:857,0
DA:860,0
DA:861,0
DA:862,0
DA:864,0
DA:865,0
DA:866,0
DA:867,0
DA:868,0
DA:877,0
DA:878,0
DA:879,0
DA:880,0
DA:881,0
DA:883,0
DA:884,0
DA:885,0
DA:886,0
DA:887,0
DA:892,0
DA:893,0
DA:896,0
DA:899,0
DA:902,0
DA:903,0
DA:905,0
DA:906,0
DA:907,0
DA:908,0
DA:909,0
DA:910,0
DA:913,0
DA:914,0
DA:915,0
DA:916,0
DA:917,0
DA:918,0
DA:919,0
DA:920,0
DA:921,0
DA:922,0
DA:923,0
DA:924,0
DA:925,0
DA:926,0
DA:928,0
DA:930,0
DA:932,0
DA:933,0
DA:942,0
DA:943,0
DA:944,0
DA:945,0
DA:948,0
DA:949,0
DA:950,0
DA:951,0
DA:952,0
DA:953,0
DA:954,0
DA:957,0
DA:958,0
DA:960,0
DA:961,0
DA:962,0
DA:963,0
DA:964,0
DA:967,0
DA:968,0
DA:969,0
DA:972,0
DA:975,0
DA:977,0
DA:978,0
DA:979,0
DA:980,0
DA:983,0
DA:984,0
DA:985,0
DA:986,0
DA:988,0
DA:989,0
DA:990,0
DA:991,0
DA:992,0
DA:997,0
DA:998,0
DA:999,0
DA:1002,0
DA:1003,0
DA:1006,0
DA:1009,0
DA:1010,0
DA:1011,0
DA:1013,0
DA:1016,0
DA:1017,0
DA:1018,0
DA:1019,0
DA:1021,0
DA:1024,0
DA:1025,0
DA:1026,0
DA:1027,0
DA:1028,0
DA:1029,0
DA:1030,0
DA:1033,0
DA:1034,0
DA:1035,0
DA:1036,0
DA:1039,0
DA:1041,0
DA:1042,0
DA:1043,0
DA:1044,0
DA:1047,0
DA:1048,0
DA:1050,0
DA:1052,0
DA:1053,0
DA:1060,0
DA:1061,0
DA:1062,0
DA:1065,0
DA:1074,0
DA:1075,0
DA:1077,0
DA:1078,0
DA:1079,0
DA:1081,0
DA:1082,0
DA:1083,0
DA:1085,0
DA:1086,0
DA:1088,0
DA:1090,0
DA:1095,0
DA:1096,0
DA:1097,0
DA:1100,0
DA:1103,0
DA:1104,0
DA:1107,0
DA:1108,0
DA:1109,0
DA:1110,0
DA:1112,0
DA:1113,0
DA:1114,0
DA:1115,0
DA:1116,0
DA:1119,0
DA:1120,0
DA:1121,0
DA:1122,0
DA:1124,0
DA:1125,0
DA:1126,0
DA:1127,0
DA:1129,0
DA:1130,0
DA:1132,0
DA:1133,0
DA:1134,0
DA:1135,0
DA:1136,0
DA:1137,0
DA:1141,0
DA:1143,0
DA:1145,0
DA:1146,0
DA:1147,0
DA:1149,0
DA:1150,0
DA:1151,0
DA:1152,0
DA:1153,0
DA:1156,0
DA:1157,0
DA:1158,0
DA:1159,0
DA:1161,0
DA:1162,0
DA:1163,0
DA:1164,0
DA:1165,0
DA:1167,0
DA:1169,0
DA:1170,0
DA:1171,0
DA:1172,0
DA:1173,0
DA:1174,0
DA:1175,0
DA:1176,0
DA:1178,0
DA:1179,0
DA:1180,0
DA:1182,0
DA:1183,0
DA:1184,0
DA:1185,0
DA:1186,0
DA:1187,0
DA:1188,0
DA:1190,0
DA:1191,0
DA:1193,0
DA:1194,0
DA:1195,0
DA:1197,0
DA:1198,0
DA:1199,0
DA:1201,0
DA:1206,0
DA:1207,0
DA:1208,0
DA:1210,0
DA:1211,0
DA:1212,0
DA:1214,0
DA:1215,0
DA:1216,0
DA:1217,0
DA:1218,0
DA:1219,0
DA:1221,0
DA:1222,0
DA:1223,0
DA:1224,0
DA:1225,0
DA:1226,0
DA:1227,0
DA:1228,0
DA:1229,0
DA:1230,0
DA:1232,0
DA:1234,0
DA:1235,0
DA:1236,0
DA:1237,0
DA:1238,0
DA:1240,0
DA:1241,0
DA:1242,0
DA:1243,0
DA:1244,0
DA:1246,0
DA:1247,0
DA:1248,0
DA:1249,0
DA:1251,0
DA:1252,0
DA:1253,0
DA:1254,0
DA:1255,0
DA:1257,0
DA:1258,0
DA:1259,0
DA:1260,0
DA:1261,0
DA:1263,0
DA:1264,0
DA:1265,0
DA:1266,0
DA:1267,0
DA:1268,0
DA:1271,0
DA:1274,0
DA:1275,0
DA:1277,0
DA:1278,0
DA:1279,0
DA:1280,0
DA:1281,0
DA:1282,0
DA:1283,0
DA:1284,0
DA:1285,0
DA:1286,0
DA:1287,0
DA:1288,0
DA:1289,0
DA:1290,0
DA:1291,0
DA:1293,0
DA:1294,0
DA:1295,0
DA:1296,0
DA:1297,0
DA:1299,0
DA:1300,0
DA:1301,0
DA:1302,0
DA:1303,0
DA:1304,0
DA:1305,0
DA:1306,0
DA:1307,0
DA:1308,0
DA:1309,0
DA:1310,0
DA:1311,0
DA:1313,0
DA:1314,0
DA:1315,0
DA:1317,0
DA:1319,0
DA:1321,0
DA:1322,0
DA:1323,0
DA:1325,0
DA:1326,0
DA:1327,0
DA:1328,0
DA:1330,0
DA:1332,0
DA:1334,0
DA:1335,0
DA:1336,0
DA:1337,0
DA:1338,0
DA:1339,0
DA:1340,0
DA:1341,0
DA:1342,0
DA:1344,0
DA:1345,0
DA:1346,0
DA:1348,0
DA:1350,0
DA:1352,0
DA:1353,0
DA:1354,0
DA:1355,0
DA:1356,0
DA:1357,0
DA:1358,0
DA:1359,0
DA:1361,0
DA:1362,0
DA:1363,0
DA:1364,0
DA:1365,0
DA:1366,0
DA:1367,0
DA:1368,0
DA:1369,0
DA:1371,0
DA:1372,0
DA:1373,0
DA:1374,0
DA:1375,0
DA:1377,0
DA:1378,0
DA:1380,0
DA:1382,0
DA:1383,0
DA:1386,0
DA:1389,0
DA:1390,0
DA:1391,0
DA:1395,0
DA:1396,0
DA:1397,0
DA:1398,0
DA:1399,0
DA:1401,0
DA:1403,0
DA:1404,0
DA:1405,0
DA:1406,0
DA:1407,0
DA:1408,0
DA:1409,0
DA:1410,0
DA:1412,0
BRF:0
BRH:0
LF:940
LH:0
end_of_record
SF:/Users/d072013/SAPDevelop/gql_parser/src/parser/mod.rs
FN:67,_RNCNvMNtCs6qJP7SanZgw_10gql_parser6parserNtB4_6Parser5parse0B6_
FN:108,_RNvNtNtCs6qJP7SanZgw_10gql_parser6parser5testss_19parse_empty_program
FN:142,_RNvNtNtCs6qJP7SanZgw_10gql_parser6parser5testss_36parser_never_panics_on_random_inputs
FN:100,_RNvNtNtCs6qJP7SanZgw_10gql_parser6parser5testss_38parser_creation_normalizes_missing_eof
FN:118,_RNvNtNtCs6qJP7SanZgw_10gql_parser6parser5testss_55parse_returns_none_for_fatal_failure_without_statements
FN:131,_RNvNtNtCs6qJP7SanZgw_10gql_parser6parser5testss_57parse_keeps_partial_ast_when_recovery_produced_statements
FN:143,_RNvNvNtNtCs6qJP7SanZgw_10gql_parser6parser5testss_36parser_never_panics_on_random_inputs17random_token_kind
FN:178,_RNCNvNtNtCs6qJP7SanZgw_10gql_parser6parser5testss_36parser_never_panics_on_random_inputs0B7_
FN:84,_RNvMNtCs6qJP7SanZgw_10gql_parser6parserNtB2_6Parser22with_lexer_diagnostics
FN:44,_RNvMNtCs6qJP7SanZgw_10gql_parser6parserNtB2_6Parser3new
FN:60,_RNvMNtCs6qJP7SanZgw_10gql_parser6parserNtB2_6Parser5parse
FN:84,_RNvMNtCs87GxMFlPkU4_10gql_parser6parserNtB2_6Parser22with_lexer_diagnostics
FN:44,_RNvMNtCs87GxMFlPkU4_10gql_parser6parserNtB2_6Parser3new
FN:60,_RNvMNtCs87GxMFlPkU4_10gql_parser6parserNtB2_6Parser5parse
FN:67,_RNCNvMNtCs87GxMFlPkU4_10gql_parser6parserNtB4_6Parser5parse0B6_
FNDA:10006,_RNCNvMNtCs6qJP7SanZgw_10gql_parser6parserNtB4_6Parser5parse0B6_
FNDA:1,_RNvNtNtCs6qJP7SanZgw_10gql_parser6parser5testss_19parse_empty_program
FNDA:1,_RNvNtNtCs6qJP7SanZgw_10gql_parser6parser5testss_36parser_never_panics_on_random_inputs
FNDA:1,_RNvNtNtCs6qJP7SanZgw_10gql_parser6parser5testss_38parser_creation_normalizes_missing_eof
FNDA:1,_RNvNtNtCs6qJP7SanZgw_10gql_parser6parser5testss_55parse_returns_none_for_fatal_failure_without_statements
FNDA:1,_RNvNtNtCs6qJP7SanZgw_10gql_parser6parser5testss_57parse_keeps_partial_ast_when_recovery_produced_statements
FNDA:309906,_RNvNvNtNtCs6qJP7SanZgw_10gql_parser6parser5testss_36parser_never_panics_on_random_inputs17random_token_kind
FNDA:10000,_RNCNvNtNtCs6qJP7SanZgw_10gql_parser6parser5testss_36parser_never_panics_on_random_inputs0B7_
FNDA:23,_RNvMNtCs6qJP7SanZgw_10gql_parser6parserNtB2_6Parser22with_lexer_diagnostics
FNDA:10027,_RNvMNtCs6qJP7SanZgw_10gql_parser6parserNtB2_6Parser3new
FNDA:10026,_RNvMNtCs6qJP7SanZgw_10gql_parser6parserNtB2_6Parser5parse
FNDA:0,_RNvMNtCs87GxMFlPkU4_10gql_parser6parserNtB2_6Parser22with_lexer_diagnostics
FNDA:0,_RNvMNtCs87GxMFlPkU4_10gql_parser6parserNtB2_6Parser3new
FNDA:0,_RNvMNtCs87GxMFlPkU4_10gql_parser6parserNtB2_6Parser5parse
FNDA:0,_RNCNvMNtCs87GxMFlPkU4_10gql_parser6parserNtB4_6Parser5parse0B6_
FNF:11
FNH:11
DA:44,10027
DA:45,10027
DA:46,0
DA:47,10027
DA:48,10001
DA:49,10001
DA:50,26
DA:52,10027
DA:53,10027
DA:54,10027
DA:55,10027
DA:56,10027
DA:57,10027
DA:60,10026
DA:61,10026
DA:62,10026
DA:63,10026
DA:64,10026
DA:65,10026
DA:66,10026
DA:67,10026
DA:68,10026
DA:69,6315
DA:71,3711
DA:74,10026
DA:75,10026
DA:77,10026
DA:78,10026
DA:79,10026
DA:80,10026
DA:81,10026
DA:84,23
DA:85,23
DA:86,23
DA:87,23
DA:88,23
DA:89,23
DA:100,1
DA:101,1
DA:102,1
DA:103,1
DA:104,1
DA:105,1
DA:108,1
DA:109,1
DA:110,1
DA:111,1
DA:113,1
DA:114,1
DA:115,1
DA:118,1
DA:119,1
DA:120,1
DA:121,1
DA:123,1
DA:124,1
DA:126,1
DA:127,1
DA:128,1
DA:131,1
DA:132,1
DA:133,1
DA:134,1
DA:135,1
DA:137,1
DA:138,1
DA:139,1
DA:142,1
DA:143,309906
DA:144,309906
DA:145,309906
DA:146,309906
DA:147,309906
DA:148,32127
DA:149,29983
DA:150,31957
DA:151,30206
DA:152,31744
DA:153,29962
DA:154,32174
DA:155,30021
DA:156,31951
DA:157,29781
DA:159,309906
DA:161,1
DA:162,1
DA:163,10000
DA:164,10000
DA:165,10000
DA:166,10000
DA:168,10000
DA:169,10000
DA:171,309906
DA:172,309906
DA:173,309906
DA:174,309906
DA:175,309906
DA:176,309906
DA:178,10000
DA:179,10000
DA:181,1
BRF:0
BRH:0
LF:103
LH:102
end_of_record
SF:/Users/d072013/SAPDevelop/gql_parser/src/parser/mutation.rs
FN:1604,_RNCNvNtNtNtCs6qJP7SanZgw_10gql_parser6parser8mutation5testss_30parses_optional_call_statement0B9_
FN:1611,_RNCNvNtNtNtCs6qJP7SanZgw_10gql_parser6parser8mutation5testss_30parses_optional_call_statements_0B9_
FN:790,_RNvNtNtCs6qJP7SanZgw_10gql_parser6parser8mutation14parse_set_item
FN:1462,_RNvNtNtCs6qJP7SanZgw_10gql_parser6parser8mutation16parse_identifier
FN:1201,_RNvNtNtCs6qJP7SanZgw_10gql_parser6parser8mutation17parse_delete_item
FN:1017,_RNvNtNtCs6qJP7SanZgw_10gql_parser6parser8mutation17parse_remove_item
FN:745,_RNvNtNtCs6qJP7SanZgw_10gql_parser6parser8mutation19parse_set_item_list
FN:709,_RNvNtNtCs6qJP7SanZgw_10gql_parser6parser8mutation19parse_set_statement
FN:1155,_RNvNtNtCs6qJP7SanZgw_10gql_parser6parser8mutation22parse_delete_item_list
FN:1099,_RNvNtNtCs6qJP7SanZgw_10gql_parser6parser8mutation22parse_delete_statement
FN:286,_RNvNtNtCs6qJP7SanZgw_10gql_parser6parser8mutation22parse_insert_statement
FN:971,_RNvNtNtCs6qJP7SanZgw_10gql_parser6parser8mutation22parse_remove_item_list
FN:935,_RNvNtNtCs6qJP7SanZgw_10gql_parser6parser8mutation22parse_remove_statement
FN:1474,_RNvNtNtCs6qJP7SanZgw_10gql_parser6parser8mutation23end_after_last_consumed
FN:1450,_RNvNtNtCs6qJP7SanZgw_10gql_parser6parser8mutation24parse_regular_identifier
FN:1482,_RNvNtNtCs6qJP7SanZgw_10gql_parser6parser8mutation25is_result_statement_start
FN:472,_RNvNtNtCs6qJP7SanZgw_10gql_parser6parser8mutation25parse_insert_edge_pattern
FN:428,_RNvNtNtCs6qJP7SanZgw_10gql_parser6parser8mutation25parse_insert_node_pattern
FN:371,_RNvNtNtCs6qJP7SanZgw_10gql_parser6parser8mutation25parse_insert_path_pattern
FN:322,_RNvNtNtCs6qJP7SanZgw_10gql_parser6parser8mutation26parse_insert_graph_pattern
FN:1486,_RNvNtNtCs6qJP7SanZgw_10gql_parser6parser8mutation27is_linear_mutation_boundary
FN:1262,_RNvNtNtCs6qJP7SanZgw_10gql_parser6parser8mutation29parse_label_set_specification
FN:118,_RNvNtNtCs6qJP7SanZgw_10gql_parser6parser8mutation32parse_linear_data_modifying_body
FN:1240,_RNvNtNtCs6qJP7SanZgw_10gql_parser6parser8mutation32parse_primitive_result_statement
FN:627,_RNvNtNtCs6qJP7SanZgw_10gql_parser6parser8mutation33parse_optional_insert_edge_filler
FN:653,_RNvNtNtCs6qJP7SanZgw_10gql_parser6parser8mutation35parse_insert_element_pattern_filler
FN:1306,_RNvNtNtCs6qJP7SanZgw_10gql_parser6parser8mutation36parse_element_property_specification
FN:23,_RNvNtNtCs6qJP7SanZgw_10gql_parser6parser8mutation37parse_linear_data_modifying_statement
FN:170,_RNvNtNtCs6qJP7SanZgw_10gql_parser6parser8mutation37parse_simple_data_accessing_statement
FN:213,_RNvNtNtCs6qJP7SanZgw_10gql_parser6parser8mutation37parse_simple_data_modifying_statement
FN:1442,_RNvNtNtCs6qJP7SanZgw_10gql_parser6parser8mutation38parse_element_variable_declaration_opt
FN:245,_RNvNtNtCs6qJP7SanZgw_10gql_parser6parser8mutation40parse_primitive_data_modifying_statement
FN:83,_RNvNtNtCs6qJP7SanZgw_10gql_parser6parser8mutation45parse_ambient_linear_data_modifying_statement
FN:1222,_RNvNtNtCs6qJP7SanZgw_10gql_parser6parser8mutation45parse_call_data_modifying_procedure_statement
FN:40,_RNvNtNtCs6qJP7SanZgw_10gql_parser6parser8mutation45parse_focused_linear_data_modifying_statement
FN:830,_RNCNvNtNtCs6qJP7SanZgw_10gql_parser6parser8mutation14parse_set_items0_0B7_
FN:848,_RNCNvNtNtCs6qJP7SanZgw_10gql_parser6parser8mutation14parse_set_items1_0B7_
FN:879,_RNCNvNtNtCs6qJP7SanZgw_10gql_parser6parser8mutation14parse_set_items2_0B7_
FN:906,_RNCNvNtNtCs6qJP7SanZgw_10gql_parser6parser8mutation14parse_set_items3_0B7_
FN:816,_RNCNvNtNtCs6qJP7SanZgw_10gql_parser6parser8mutation14parse_set_items_0B7_
FN:1070,_RNCNvNtNtCs6qJP7SanZgw_10gql_parser6parser8mutation17parse_remove_items0_0B7_
FN:1043,_RNCNvNtNtCs6qJP7SanZgw_10gql_parser6parser8mutation17parse_remove_items_0B7_
FN:780,_RNCNvNtNtCs6qJP7SanZgw_10gql_parser6parser8mutation19parse_set_item_lists0_0B7_
FN:769,_RNCNvNtNtCs6qJP7SanZgw_10gql_parser6parser8mutation19parse_set_item_lists_0B7_
FN:728,_RNCNvNtNtCs6qJP7SanZgw_10gql_parser6parser8mutation19parse_set_statement0B7_
FN:1180,_RNCNvNtNtCs6qJP7SanZgw_10gql_parser6parser8mutation22parse_delete_item_lists_0B7_
FN:1137,_RNCNvNtNtCs6qJP7SanZgw_10gql_parser6parser8mutation22parse_delete_statements0_0B7_
FN:1119,_RNCNvNtNtCs6qJP7SanZgw_10gql_parser6parser8mutation22parse_delete_statements_0B7_
FN:305,_RNCNvNtNtCs6qJP7SanZgw_10gql_parser6parser8mutation22parse_insert_statement0B7_
FN:1007,_RNCNvNtNtCs6qJP7SanZgw_10gql_parser6parser8mutation22parse_remove_item_lists0_0B7_
FN:996,_RNCNvNtNtCs6qJP7SanZgw_10gql_parser6parser8mutation22parse_remove_item_lists_0B7_
FN:954,_RNCNvNtNtCs6qJP7SanZgw_10gql_parser6parser8mutation22parse_remove_statement0B7_
FN:493,_RNCNvNtNtCs6qJP7SanZgw_10gql_parser6parser8mutation25parse_insert_edge_pattern0B7_
FN:541,_RNCNvNtNtCs6qJP7SanZgw_10gql_parser6parser8mutation25parse_insert_edge_patterns0_0B7_
FN:556,_RNCNvNtNtCs6qJP7SanZgw_10gql_parser6parser8mutation25parse_insert_edge_patterns1_0B7_
FN:589,_RNCNvNtNtCs6qJP7SanZgw_10gql_parser6parser8mutation25parse_insert_edge_patterns2_0B7_
FN:604,_RNCNvNtNtCs6qJP7SanZgw_10gql_parser6parser8mutation25parse_insert_edge_patterns3_0B7_
FN:508,_RNCNvNtNtCs6qJP7SanZgw_10gql_parser6parser8mutation25parse_insert_edge_patterns_0B7_
FN:452,_RNCNvNtNtCs6qJP7SanZgw_10gql_parser6parser8mutation25parse_insert_node_pattern0B7_
FN:418,_RNCNvNtNtCs6qJP7SanZgw_10gql_parser6parser8mutation25parse_insert_path_patterns0_0B7_
FN:407,_RNCNvNtNtCs6qJP7SanZgw_10gql_parser6parser8mutation25parse_insert_path_patterns_0B7_
FN:350,_RNCNvNtNtCs6qJP7SanZgw_10gql_parser6parser8mutation26parse_insert_graph_patterns_0B7_
FN:1285,_RNCNvNtNtCs6qJP7SanZgw_10gql_parser6parser8mutation29parse_label_set_specifications_0B7_
FN:643,_RNCNvNtNtCs6qJP7SanZgw_10gql_parser6parser8mutation33parse_optional_insert_edge_filler0B7_
FN:1366,_RNCNvNtNtCs6qJP7SanZgw_10gql_parser6parser8mutation36parse_element_property_specifications0_0B7_
FN:1384,_RNCNvNtNtCs6qJP7SanZgw_10gql_parser6parser8mutation36parse_element_property_specifications1_0B7_
FN:1413,_RNCNvNtNtCs6qJP7SanZgw_10gql_parser6parser8mutation36parse_element_property_specifications2_0B7_
FN:1352,_RNCNvNtNtCs6qJP7SanZgw_10gql_parser6parser8mutation36parse_element_property_specifications_0B7_
FN:237,_RNCNvNtNtCs6qJP7SanZgw_10gql_parser6parser8mutation37parse_simple_data_modifying_statement0B7_
FN:100,_RNCNvNtNtCs6qJP7SanZgw_10gql_parser6parser8mutation45parse_ambient_linear_data_modifying_statements_0B7_
FN:64,_RNCNvNtNtCs6qJP7SanZgw_10gql_parser6parser8mutation45parse_focused_linear_data_modifying_statements_0B7_
FN:1505,_RNvNtNtNtCs6qJP7SanZgw_10gql_parser6parser8mutation5tests12parse_source
FN:1617,_RNvNtNtNtCs6qJP7SanZgw_10gql_parser6parser8mutation5testss_28parses_inline_call_statement
FN:1582,_RNvNtNtNtCs6qJP7SanZgw_10gql_parser6parser8mutation5testss_30parses_optional_call_statement
FN:1541,_RNvNtNtNtCs6qJP7SanZgw_10gql_parser6parser8mutation5testss_35parses_delete_with_expression_items
FN:1512,_RNvNtNtNtCs6qJP7SanZgw_10gql_parser6parser8mutation5testss_37parses_insert_set_remove_delete_chain
FN:1639,_RNvNtNtNtCs6qJP7SanZgw_10gql_parser6parser8mutation5testss_38parses_inline_call_with_variable_scope
FN:1560,_RNvNtNtNtCs6qJP7SanZgw_10gql_parser6parser8mutation5testss_40parses_set_all_properties_with_empty_map
FN:1525,_RNvNtNtNtCs6qJP7SanZgw_10gql_parser6parser8mutation5testss_45parses_focused_use_graph_mutation_with_return
FN:830,_RNCNvNtNtCs87GxMFlPkU4_10gql_parser6parser8mutation14parse_set_items0_0B7_
FN:848,_RNCNvNtNtCs87GxMFlPkU4_10gql_parser6parser8mutation14parse_set_items1_0B7_
FN:879,_RNCNvNtNtCs87GxMFlPkU4_10gql_parser6parser8mutation14parse_set_items2_0B7_
FN:906,_RNCNvNtNtCs87GxMFlPkU4_10gql_parser6parser8mutation14parse_set_items3_0B7_
FN:816,_RNCNvNtNtCs87GxMFlPkU4_10gql_parser6parser8mutation14parse_set_items_0B7_
FN:1070,_RNCNvNtNtCs87GxMFlPkU4_10gql_parser6parser8mutation17parse_remove_items0_0B7_
FN:1043,_RNCNvNtNtCs87GxMFlPkU4_10gql_parser6parser8mutation17parse_remove_items_0B7_
FN:780,_RNCNvNtNtCs87GxMFlPkU4_10gql_parser6parser8mutation19parse_set_item_lists0_0B7_
FN:769,_RNCNvNtNtCs87GxMFlPkU4_10gql_parser6parser8mutation19parse_set_item_lists_0B7_
FN:728,_RNCNvNtNtCs87GxMFlPkU4_10gql_parser6parser8mutation19parse_set_statement0B7_
FN:1180,_RNCNvNtNtCs87GxMFlPkU4_10gql_parser6parser8mutation22parse_delete_item_lists_0B7_
FN:1137,_RNCNvNtNtCs87GxMFlPkU4_10gql_parser6parser8mutation22parse_delete_statements0_0B7_
FN:1119,_RNCNvNtNtCs87GxMFlPkU4_10gql_parser6parser8mutation22parse_delete_statements_0B7_
FN:305,_RNCNvNtNtCs87GxMFlPkU4_10gql_parser6parser8mutation22parse_insert_statement0B7_
FN:1007,_RNCNvNtNtCs87GxMFlPkU4_10gql_parser6parser8mutation22parse_remove_item_lists0_0B7_
FN:996,_RNCNvNtNtCs87GxMFlPkU4_10gql_parser6parser8mutation22parse_remove_item_lists_0B7_
FN:954,_RNCNvNtNtCs87GxMFlPkU4_10gql_parser6parser8mutation22parse_remove_statement0B7_
FN:493,_RNCNvNtNtCs87GxMFlPkU4_10gql_parser6parser8mutation25parse_insert_edge_pattern0B7_
FN:541,_RNCNvNtNtCs87GxMFlPkU4_10gql_parser6parser8mutation25parse_insert_edge_patterns0_0B7_
FN:556,_RNCNvNtNtCs87GxMFlPkU4_10gql_parser6parser8mutation25parse_insert_edge_patterns1_0B7_
FN:589,_RNCNvNtNtCs87GxMFlPkU4_10gql_parser6parser8mutation25parse_insert_edge_patterns2_0B7_
FN:604,_RNCNvNtNtCs87GxMFlPkU4_10gql_parser6parser8mutation25parse_insert_edge_patterns3_0B7_
FN:508,_RNCNvNtNtCs87GxMFlPkU4_10gql_parser6parser8mutation25parse_insert_edge_patterns_0B7_
FN:452,_RNCNvNtNtCs87GxMFlPkU4_10gql_parser6parser8mutation25parse_insert_node_pattern0B7_
FN:418,_RNCNvNtNtCs87GxMFlPkU4_10gql_parser6parser8mutation25parse_insert_path_patterns0_0B7_
FN:407,_RNCNvNtNtCs87GxMFlPkU4_10gql_parser6parser8mutation25parse_insert_path_patterns_0B7_
FN:350,_RNCNvNtNtCs87GxMFlPkU4_10gql_parser6parser8mutation26parse_insert_graph_patterns_0B7_
FN:1285,_RNCNvNtNtCs87GxMFlPkU4_10gql_parser6parser8mutation29parse_label_set_specifications_0B7_
FN:643,_RNCNvNtNtCs87GxMFlPkU4_10gql_parser6parser8mutation33parse_optional_insert_edge_filler0B7_
FN:1366,_RNCNvNtNtCs87GxMFlPkU4_10gql_parser6parser8mutation36parse_element_property_specifications0_0B7_
FN:1384,_RNCNvNtNtCs87GxMFlPkU4_10gql_parser6parser8mutation36parse_element_property_specifications1_0B7_
FN:1413,_RNCNvNtNtCs87GxMFlPkU4_10gql_parser6parser8mutation36parse_element_property_specifications2_0B7_
FN:1352,_RNCNvNtNtCs87GxMFlPkU4_10gql_parser6parser8mutation36parse_element_property_specifications_0B7_
FN:237,_RNCNvNtNtCs87GxMFlPkU4_10gql_parser6parser8mutation37parse_simple_data_modifying_statement0B7_
FN:100,_RNCNvNtNtCs87GxMFlPkU4_10gql_parser6parser8mutation45parse_ambient_linear_data_modifying_statements_0B7_
FN:64,_RNCNvNtNtCs87GxMFlPkU4_10gql_parser6parser8mutation45parse_focused_linear_data_modifying_statements_0B7_
FN:790,_RNvNtNtCs87GxMFlPkU4_10gql_parser6parser8mutation14parse_set_item
FN:1462,_RNvNtNtCs87GxMFlPkU4_10gql_parser6parser8mutation16parse_identifier
FN:1201,_RNvNtNtCs87GxMFlPkU4_10gql_parser6parser8mutation17parse_delete_item
FN:1017,_RNvNtNtCs87GxMFlPkU4_10gql_parser6parser8mutation17parse_remove_item
FN:745,_RNvNtNtCs87GxMFlPkU4_10gql_parser6parser8mutation19parse_set_item_list
FN:709,_RNvNtNtCs87GxMFlPkU4_10gql_parser6parser8mutation19parse_set_statement
FN:1155,_RNvNtNtCs87GxMFlPkU4_10gql_parser6parser8mutation22parse_delete_item_list
FN:1099,_RNvNtNtCs87GxMFlPkU4_10gql_parser6parser8mutation22parse_delete_statement
FN:286,_RNvNtNtCs87GxMFlPkU4_10gql_parser6parser8mutation22parse_insert_statement
FN:971,_RNvNtNtCs87GxMFlPkU4_10gql_parser6parser8mutation22parse_remove_item_list
FN:935,_RNvNtNtCs87GxMFlPkU4_10gql_parser6parser8mutation22parse_remove_statement
FN:1474,_RNvNtNtCs87GxMFlPkU4_10gql_parser6parser8mutation23end_after_last_consumed
FN:1450,_RNvNtNtCs87GxMFlPkU4_10gql_parser6parser8mutation24parse_regular_identifier
FN:1482,_RNvNtNtCs87GxMFlPkU4_10gql_parser6parser8mutation25is_result_statement_start
FN:472,_RNvNtNtCs87GxMFlPkU4_10gql_parser6parser8mutation25parse_insert_edge_pattern
FN:428,_RNvNtNtCs87GxMFlPkU4_10gql_parser6parser8mutation25parse_insert_node_pattern
FN:371,_RNvNtNtCs87GxMFlPkU4_10gql_parser6parser8mutation25parse_insert_path_pattern
FN:322,_RNvNtNtCs87GxMFlPkU4_10gql_parser6parser8mutation26parse_insert_graph_pattern
FN:1486,_RNvNtNtCs87GxMFlPkU4_10gql_parser6parser8mutation27is_linear_mutation_boundary
FN:1262,_RNvNtNtCs87GxMFlPkU4_10gql_parser6parser8mutation29parse_label_set_specification
FN:118,_RNvNtNtCs87GxMFlPkU4_10gql_parser6parser8mutation32parse_linear_data_modifying_body
FN:1240,_RNvNtNtCs87GxMFlPkU4_10gql_parser6parser8mutation32parse_primitive_result_statement
FN:627,_RNvNtNtCs87GxMFlPkU4_10gql_parser6parser8mutation33parse_optional_insert_edge_filler
FN:653,_RNvNtNtCs87GxMFlPkU4_10gql_parser6parser8mutation35parse_insert_element_pattern_filler
FN:1306,_RNvNtNtCs87GxMFlPkU4_10gql_parser6parser8mutation36parse_element_property_specification
FN:23,_RNvNtNtCs87GxMFlPkU4_10gql_parser6parser8mutation37parse_linear_data_modifying_statement
FN:170,_RNvNtNtCs87GxMFlPkU4_10gql_parser6parser8mutation37parse_simple_data_accessing_statement
FN:213,_RNvNtNtCs87GxMFlPkU4_10gql_parser6parser8mutation37parse_simple_data_modifying_statement
FN:1442,_RNvNtNtCs87GxMFlPkU4_10gql_parser6parser8mutation38parse_element_variable_declaration_opt
FN:245,_RNvNtNtCs87GxMFlPkU4_10gql_parser6parser8mutation40parse_primitive_data_modifying_statement
FN:83,_RNvNtNtCs87GxMFlPkU4_10gql_parser6parser8mutation45parse_ambient_linear_data_modifying_statement
FN:1222,_RNvNtNtCs87GxMFlPkU4_10gql_parser6parser8mutation45parse_call_data_modifying_procedure_statement
FN:40,_RNvNtNtCs87GxMFlPkU4_10gql_parser6parser8mutation45parse_focused_linear_data_modifying_statement
FNDA:1,_RNCNvNtNtNtCs6qJP7SanZgw_10gql_parser6parser8mutation5testss_30parses_optional_call_statement0B9_
FNDA:1,_RNCNvNtNtNtCs6qJP7SanZgw_10gql_parser6parser8mutation5testss_30parses_optional_call_statements_0B9_
FNDA:2,_RNvNtNtCs6qJP7SanZgw_10gql_parser6parser8mutation14parse_set_item
FNDA:4,_RNvNtNtCs6qJP7SanZgw_10gql_parser6parser8mutation16parse_identifier
FNDA:24692,_RNvNtNtCs6qJP7SanZgw_10gql_parser6parser8mutation17parse_delete_item
FNDA:1,_RNvNtNtCs6qJP7SanZgw_10gql_parser6parser8mutation17parse_remove_item
FNDA:2,_RNvNtNtCs6qJP7SanZgw_10gql_parser6parser8mutation19parse_set_item_list
FNDA:2,_RNvNtNtCs6qJP7SanZgw_10gql_parser6parser8mutation19parse_set_statement
FNDA:24690,_RNvNtNtCs6qJP7SanZgw_10gql_parser6parser8mutation22parse_delete_item_list
FNDA:24690,_RNvNtNtCs6qJP7SanZgw_10gql_parser6parser8mutation22parse_delete_statement
FNDA:21079,_RNvNtNtCs6qJP7SanZgw_10gql_parser6parser8mutation22parse_insert_statement
FNDA:1,_RNvNtNtCs6qJP7SanZgw_10gql_parser6parser8mutation22parse_remove_item_list
FNDA:1,_RNvNtNtCs6qJP7SanZgw_10gql_parser6parser8mutation22parse_remove_statement
FNDA:38952,_RNvNtNtCs6qJP7SanZgw_10gql_parser6parser8mutation23end_after_last_consumed
FNDA:8,_RNvNtNtCs6qJP7SanZgw_10gql_parser6parser8mutation24parse_regular_identifier
FNDA:91723,_RNvNtNtCs6qJP7SanZgw_10gql_parser6parser8mutation25is_result_statement_start
FNDA:5,_RNvNtNtCs6qJP7SanZgw_10gql_parser6parser8mutation25parse_insert_edge_pattern
FNDA:21079,_RNvNtNtCs6qJP7SanZgw_10gql_parser6parser8mutation25parse_insert_node_pattern
FNDA:21079,_RNvNtNtCs6qJP7SanZgw_10gql_parser6parser8mutation25parse_insert_path_pattern
FNDA:21079,_RNvNtNtCs6qJP7SanZgw_10gql_parser6parser8mutation26parse_insert_graph_pattern
FNDA:80255,_RNvNtNtCs6qJP7SanZgw_10gql_parser6parser8mutation27is_linear_mutation_boundary
FNDA:1,_RNvNtNtCs6qJP7SanZgw_10gql_parser6parser8mutation29parse_label_set_specification
FNDA:38947,_RNvNtNtCs6qJP7SanZgw_10gql_parser6parser8mutation32parse_linear_data_modifying_body
FNDA:1,_RNvNtNtCs6qJP7SanZgw_10gql_parser6parser8mutation32parse_primitive_result_statement
FNDA:0,_RNvNtNtCs6qJP7SanZgw_10gql_parser6parser8mutation33parse_optional_insert_edge_filler
FNDA:5,_RNvNtNtCs6qJP7SanZgw_10gql_parser6parser8mutation35parse_insert_element_pattern_filler
FNDA:2,_RNvNtNtCs6qJP7SanZgw_10gql_parser6parser8mutation36parse_element_property_specification
FNDA:38947,_RNvNtNtCs6qJP7SanZgw_10gql_parser6parser8mutation37parse_linear_data_modifying_statement
FNDA:80249,_RNvNtNtCs6qJP7SanZgw_10gql_parser6parser8mutation37parse_simple_data_accessing_statement
FNDA:57235,_RNvNtNtCs6qJP7SanZgw_10gql_parser6parser8mutation37parse_simple_data_modifying_statement
FNDA:5,_RNvNtNtCs6qJP7SanZgw_10gql_parser6parser8mutation38parse_element_variable_declaration_opt
FNDA:45772,_RNvNtNtCs6qJP7SanZgw_10gql_parser6parser8mutation40parse_primitive_data_modifying_statement
FNDA:38946,_RNvNtNtCs6qJP7SanZgw_10gql_parser6parser8mutation45parse_ambient_linear_data_modifying_statement
FNDA:3,_RNvNtNtCs6qJP7SanZgw_10gql_parser6parser8mutation45parse_call_data_modifying_procedure_statement
FNDA:1,_RNvNtNtCs6qJP7SanZgw_10gql_parser6parser8mutation45parse_focused_linear_data_modifying_statement
FNDA:0,_RNCNvNtNtCs6qJP7SanZgw_10gql_parser6parser8mutation14parse_set_items0_0B7_
FNDA:0,_RNCNvNtNtCs6qJP7SanZgw_10gql_parser6parser8mutation14parse_set_items1_0B7_
FNDA:0,_RNCNvNtNtCs6qJP7SanZgw_10gql_parser6parser8mutation14parse_set_items2_0B7_
FNDA:0,_RNCNvNtNtCs6qJP7SanZgw_10gql_parser6parser8mutation14parse_set_items3_0B7_
FNDA:0,_RNCNvNtNtCs6qJP7SanZgw_10gql_parser6parser8mutation14parse_set_items_0B7_
FNDA:0,_RNCNvNtNtCs6qJP7SanZgw_10gql_parser6parser8mutation17parse_remove_items0_0B7_
FNDA:0,_RNCNvNtNtCs6qJP7SanZgw_10gql_parser6parser8mutation17parse_remove_items_0B7_
FNDA:2,_RNCNvNtNtCs6qJP7SanZgw_10gql_parser6parser8mutation19parse_set_item_lists0_0B7_
FNDA:0,_RNCNvNtNtCs6qJP7SanZgw_10gql_parser6parser8mutation19parse_set_item_lists_0B7_
FNDA:0,_RNCNvNtNtCs6qJP7SanZgw_10gql_parser6parser8mutation19parse_set_statement0B7_
FNDA:0,_RNCNvNtNtCs6qJP7SanZgw_10gql_parser6parser8mutation22parse_delete_item_lists_0B7_
FNDA:14046,_RNCNvNtNtCs6qJP7SanZgw_10gql_parser6parser8mutation22parse_delete_statements0_0B7_
FNDA:0,_RNCNvNtNtCs6qJP7SanZgw_10gql_parser6parser8mutation22parse_delete_statements_0B7_
FNDA:12643,_RNCNvNtNtCs6qJP7SanZgw_10gql_parser6parser8mutation22parse_insert_statement0B7_
FNDA:1,_RNCNvNtNtCs6qJP7SanZgw_10gql_parser6parser8mutation22parse_remove_item_lists0_0B7_
FNDA:0,_RNCNvNtNtCs6qJP7SanZgw_10gql_parser6parser8mutation22parse_remove_item_lists_0B7_
FNDA:0,_RNCNvNtNtCs6qJP7SanZgw_10gql_parser6parser8mutation22parse_remove_statement0B7_
FNDA:0,_RNCNvNtNtCs6qJP7SanZgw_10gql_parser6parser8mutation25parse_insert_edge_pattern0B7_
FNDA:0,_RNCNvNtNtCs6qJP7SanZgw_10gql_parser6parser8mutation25parse_insert_edge_patterns0_0B7_
FNDA:0,_RNCNvNtNtCs6qJP7SanZgw_10gql_parser6parser8mutation25parse_insert_edge_patterns1_0B7_
FNDA:0,_RNCNvNtNtCs6qJP7SanZgw_10gql_parser6parser8mutation25parse_insert_edge_patterns2_0B7_
FNDA:0,_RNCNvNtNtCs6qJP7SanZgw_10gql_parser6parser8mutation25parse_insert_edge_patterns3_0B7_
FNDA:0,_RNCNvNtNtCs6qJP7SanZgw_10gql_parser6parser8mutation25parse_insert_edge_patterns_0B7_
FNDA:0,_RNCNvNtNtCs6qJP7SanZgw_10gql_parser6parser8mutation25parse_insert_node_pattern0B7_
FNDA:5,_RNCNvNtNtCs6qJP7SanZgw_10gql_parser6parser8mutation25parse_insert_path_patterns0_0B7_
FNDA:0,_RNCNvNtNtCs6qJP7SanZgw_10gql_parser6parser8mutation25parse_insert_path_patterns_0B7_
FNDA:0,_RNCNvNtNtCs6qJP7SanZgw_10gql_parser6parser8mutation26parse_insert_graph_patterns_0B7_
FNDA:0,_RNCNvNtNtCs6qJP7SanZgw_10gql_parser6parser8mutation29parse_label_set_specifications_0B7_
FNDA:0,_RNCNvNtNtCs6qJP7SanZgw_10gql_parser6parser8mutation33parse_optional_insert_edge_filler0B7_
FNDA:0,_RNCNvNtNtCs6qJP7SanZgw_10gql_parser6parser8mutation36parse_element_property_specifications0_0B7_
FNDA:0,_RNCNvNtNtCs6qJP7SanZgw_10gql_parser6parser8mutation36parse_element_property_specifications1_0B7_
FNDA:0,_RNCNvNtNtCs6qJP7SanZgw_10gql_parser6parser8mutation36parse_element_property_specifications2_0B7_
FNDA:0,_RNCNvNtNtCs6qJP7SanZgw_10gql_parser6parser8mutation36parse_element_property_specifications_0B7_
FNDA:3,_RNCNvNtNtCs6qJP7SanZgw_10gql_parser6parser8mutation37parse_simple_data_modifying_statement0B7_
FNDA:10234,_RNCNvNtNtCs6qJP7SanZgw_10gql_parser6parser8mutation45parse_ambient_linear_data_modifying_statements_0B7_
FNDA:0,_RNCNvNtNtCs6qJP7SanZgw_10gql_parser6parser8mutation45parse_focused_linear_data_modifying_statements_0B7_
FNDA:7,_RNvNtNtNtCs6qJP7SanZgw_10gql_parser6parser8mutation5tests12parse_source
FNDA:1,_RNvNtNtNtCs6qJP7SanZgw_10gql_parser6parser8mutation5testss_28parses_inline_call_statement
FNDA:1,_RNvNtNtNtCs6qJP7SanZgw_10gql_parser6parser8mutation5testss_30parses_optional_call_statement
FNDA:1,_RNvNtNtNtCs6qJP7SanZgw_10gql_parser6parser8mutation5testss_35parses_delete_with_expression_items
FNDA:1,_RNvNtNtNtCs6qJP7SanZgw_10gql_parser6parser8mutation5testss_37parses_insert_set_remove_delete_chain
FNDA:1,_RNvNtNtNtCs6qJP7SanZgw_10gql_parser6parser8mutation5testss_38parses_inline_call_with_variable_scope
FNDA:1,_RNvNtNtNtCs6qJP7SanZgw_10gql_parser6parser8mutation5testss_40parses_set_all_properties_with_empty_map
FNDA:1,_RNvNtNtNtCs6qJP7SanZgw_10gql_parser6parser8mutation5testss_45parses_focused_use_graph_mutation_with_return
FNDA:0,_RNCNvNtNtCs87GxMFlPkU4_10gql_parser6parser8mutation14parse_set_items0_0B7_
FNDA:0,_RNCNvNtNtCs87GxMFlPkU4_10gql_parser6parser8mutation14parse_set_items1_0B7_
FNDA:0,_RNCNvNtNtCs87GxMFlPkU4_10gql_parser6parser8mutation14parse_set_items2_0B7_
FNDA:0,_RNCNvNtNtCs87GxMFlPkU4_10gql_parser6parser8mutation14parse_set_items3_0B7_
FNDA:0,_RNCNvNtNtCs87GxMFlPkU4_10gql_parser6parser8mutation14parse_set_items_0B7_
FNDA:0,_RNCNvNtNtCs87GxMFlPkU4_10gql_parser6parser8mutation17parse_remove_items0_0B7_
FNDA:0,_RNCNvNtNtCs87GxMFlPkU4_10gql_parser6parser8mutation17parse_remove_items_0B7_
FNDA:0,_RNCNvNtNtCs87GxMFlPkU4_10gql_parser6parser8mutation19parse_set_item_lists0_0B7_
FNDA:0,_RNCNvNtNtCs87GxMFlPkU4_10gql_parser6parser8mutation19parse_set_item_lists_0B7_
FNDA:0,_RNCNvNtNtCs87GxMFlPkU4_10gql_parser6parser8mutation19parse_set_statement0B7_
FNDA:0,_RNCNvNtNtCs87GxMFlPkU4_10gql_parser6parser8mutation22parse_delete_item_lists_0B7_
FNDA:0,_RNCNvNtNtCs87GxMFlPkU4_10gql_parser6parser8mutation22parse_delete_statements0_0B7_
FNDA:0,_RNCNvNtNtCs87GxMFlPkU4_10gql_parser6parser8mutation22parse_delete_statements_0B7_
FNDA:0,_RNCNvNtNtCs87GxMFlPkU4_10gql_parser6parser8mutation22parse_insert_statement0B7_
FNDA:0,_RNCNvNtNtCs87GxMFlPkU4_10gql_parser6parser8mutation22parse_remove_item_lists0_0B7_
FNDA:0,_RNCNvNtNtCs87GxMFlPkU4_10gql_parser6parser8mutation22parse_remove_item_lists_0B7_
FNDA:0,_RNCNvNtNtCs87GxMFlPkU4_10gql_parser6parser8mutation22parse_remove_statement0B7_
FNDA:0,_RNCNvNtNtCs87GxMFlPkU4_10gql_parser6parser8mutation25parse_insert_edge_pattern0B7_
FNDA:0,_RNCNvNtNtCs87GxMFlPkU4_10gql_parser6parser8mutation25parse_insert_edge_patterns0_0B7_
FNDA:0,_RNCNvNtNtCs87GxMFlPkU4_10gql_parser6parser8mutation25parse_insert_edge_patterns1_0B7_
FNDA:0,_RNCNvNtNtCs87GxMFlPkU4_10gql_parser6parser8mutation25parse_insert_edge_patterns2_0B7_
FNDA:0,_RNCNvNtNtCs87GxMFlPkU4_10gql_parser6parser8mutation25parse_insert_edge_patterns3_0B7_
FNDA:0,_RNCNvNtNtCs87GxMFlPkU4_10gql_parser6parser8mutation25parse_insert_edge_patterns_0B7_
FNDA:0,_RNCNvNtNtCs87GxMFlPkU4_10gql_parser6parser8mutation25parse_insert_node_pattern0B7_
FNDA:0,_RNCNvNtNtCs87GxMFlPkU4_10gql_parser6parser8mutation25parse_insert_path_patterns0_0B7_
FNDA:0,_RNCNvNtNtCs87GxMFlPkU4_10gql_parser6parser8mutation25parse_insert_path_patterns_0B7_
FNDA:0,_RNCNvNtNtCs87GxMFlPkU4_10gql_parser6parser8mutation26parse_insert_graph_patterns_0B7_
FNDA:0,_RNCNvNtNtCs87GxMFlPkU4_10gql_parser6parser8mutation29parse_label_set_specifications_0B7_
FNDA:0,_RNCNvNtNtCs87GxMFlPkU4_10gql_parser6parser8mutation33parse_optional_insert_edge_filler0B7_
FNDA:0,_RNCNvNtNtCs87GxMFlPkU4_10gql_parser6parser8mutation36parse_element_property_specifications0_0B7_
FNDA:0,_RNCNvNtNtCs87GxMFlPkU4_10gql_parser6parser8mutation36parse_element_property_specifications1_0B7_
FNDA:0,_RNCNvNtNtCs87GxMFlPkU4_10gql_parser6parser8mutation36parse_element_property_specifications2_0B7_
FNDA:0,_RNCNvNtNtCs87GxMFlPkU4_10gql_parser6parser8mutation36parse_element_property_specifications_0B7_
FNDA:0,_RNCNvNtNtCs87GxMFlPkU4_10gql_parser6parser8mutation37parse_simple_data_modifying_statement0B7_
FNDA:0,_RNCNvNtNtCs87GxMFlPkU4_10gql_parser6parser8mutation45parse_ambient_linear_data_modifying_statements_0B7_
FNDA:0,_RNCNvNtNtCs87GxMFlPkU4_10gql_parser6parser8mutation45parse_focused_linear_data_modifying_statements_0B7_
FNDA:0,_RNvNtNtCs87GxMFlPkU4_10gql_parser6parser8mutation14parse_set_item
FNDA:0,_RNvNtNtCs87GxMFlPkU4_10gql_parser6parser8mutation16parse_identifier
FNDA:0,_RNvNtNtCs87GxMFlPkU4_10gql_parser6parser8mutation17parse_delete_item
FNDA:0,_RNvNtNtCs87GxMFlPkU4_10gql_parser6parser8mutation17parse_remove_item
FNDA:0,_RNvNtNtCs87GxMFlPkU4_10gql_parser6parser8mutation19parse_set_item_list
FNDA:0,_RNvNtNtCs87GxMFlPkU4_10gql_parser6parser8mutation19parse_set_statement
FNDA:0,_RNvNtNtCs87GxMFlPkU4_10gql_parser6parser8mutation22parse_delete_item_list
FNDA:0,_RNvNtNtCs87GxMFlPkU4_10gql_parser6parser8mutation22parse_delete_statement
FNDA:0,_RNvNtNtCs87GxMFlPkU4_10gql_parser6parser8mutation22parse_insert_statement
FNDA:0,_RNvNtNtCs87GxMFlPkU4_10gql_parser6parser8mutation22parse_remove_item_list
FNDA:0,_RNvNtNtCs87GxMFlPkU4_10gql_parser6parser8mutation22parse_remove_statement
FNDA:0,_RNvNtNtCs87GxMFlPkU4_10gql_parser6parser8mutation23end_after_last_consumed
FNDA:0,_RNvNtNtCs87GxMFlPkU4_10gql_parser6parser8mutation24parse_regular_identifier
FNDA:0,_RNvNtNtCs87GxMFlPkU4_10gql_parser6parser8mutation25is_result_statement_start
FNDA:0,_RNvNtNtCs87GxMFlPkU4_10gql_parser6parser8mutation25parse_insert_edge_pattern
FNDA:0,_RNvNtNtCs87GxMFlPkU4_10gql_parser6parser8mutation25parse_insert_node_pattern
FNDA:0,_RNvNtNtCs87GxMFlPkU4_10gql_parser6parser8mutation25parse_insert_path_pattern
FNDA:0,_RNvNtNtCs87GxMFlPkU4_10gql_parser6parser8mutation26parse_insert_graph_pattern
FNDA:0,_RNvNtNtCs87GxMFlPkU4_10gql_parser6parser8mutation27is_linear_mutation_boundary
FNDA:0,_RNvNtNtCs87GxMFlPkU4_10gql_parser6parser8mutation29parse_label_set_specification
FNDA:0,_RNvNtNtCs87GxMFlPkU4_10gql_parser6parser8mutation32parse_linear_data_modifying_body
FNDA:0,_RNvNtNtCs87GxMFlPkU4_10gql_parser6parser8mutation32parse_primitive_result_statement
FNDA:0,_RNvNtNtCs87GxMFlPkU4_10gql_parser6parser8mutation33parse_optional_insert_edge_filler
FNDA:0,_RNvNtNtCs87GxMFlPkU4_10gql_parser6parser8mutation35parse_insert_element_pattern_filler
FNDA:0,_RNvNtNtCs87GxMFlPkU4_10gql_parser6parser8mutation36parse_element_property_specification
FNDA:0,_RNvNtNtCs87GxMFlPkU4_10gql_parser6parser8mutation37parse_linear_data_modifying_statement
FNDA:0,_RNvNtNtCs87GxMFlPkU4_10gql_parser6parser8mutation37parse_simple_data_accessing_statement
FNDA:0,_RNvNtNtCs87GxMFlPkU4_10gql_parser6parser8mutation37parse_simple_data_modifying_statement
FNDA:0,_RNvNtNtCs87GxMFlPkU4_10gql_parser6parser8mutation38parse_element_variable_declaration_opt
FNDA:0,_RNvNtNtCs87GxMFlPkU4_10gql_parser6parser8mutation40parse_primitive_data_modifying_statement
FNDA:0,_RNvNtNtCs87GxMFlPkU4_10gql_parser6parser8mutation45parse_ambient_linear_data_modifying_statement
FNDA:0,_RNvNtNtCs87GxMFlPkU4_10gql_parser6parser8mutation45parse_call_data_modifying_procedure_statement
FNDA:0,_RNvNtNtCs87GxMFlPkU4_10gql_parser6parser8mutation45parse_focused_linear_data_modifying_statement
FNF:79
FNH:49
DA:23,38947
DA:24,38947
DA:25,38947
DA:26,38947
DA:27,38947
DA:28,0
DA:29,38947
DA:31,38947
DA:32,1
DA:33,1
DA:34,38946
DA:36,38946
DA:37,38946
DA:38,38947
DA:40,1
DA:41,1
DA:42,1
DA:43,1
DA:44,1
DA:45,1
DA:47,1
DA:48,1
DA:50,1
DA:51,0
DA:54,1
DA:55,1
DA:56,1
DA:58,1
DA:59,0
DA:60,0
DA:61,0
DA:62,0
DA:63,0
DA:64,0
DA:67,0
DA:69,0
DA:70,1
DA:72,1
DA:73,1
DA:74,1
DA:75,1
DA:76,1
DA:77,1
DA:78,1
DA:79,1
DA:80,1
DA:81,1
DA:83,38946
DA:84,38946
DA:85,38946
DA:86,38946
DA:87,38946
DA:88,38946
DA:90,38946
DA:91,38946
DA:92,38946
DA:94,38946
DA:95,34599
DA:96,34599
DA:97,34599
DA:98,34599
DA:99,34599
DA:100,34599
DA:103,34599
DA:105,34599
DA:106,4347
DA:108,4347
DA:109,4347
DA:110,4347
DA:111,4347
DA:112,4347
DA:113,4347
DA:114,4347
DA:115,4347
DA:116,38946
DA:118,38947
DA:119,38947
DA:120,38947
DA:121,38947
DA:122,38947
DA:123,38947
DA:124,38947
DA:125,38947
DA:126,38947
DA:127,38947
DA:128,38947
DA:129,38947
DA:132,107736
DA:133,27480
DA:134,80256
DA:136,80256
DA:137,80255
DA:139,7
DA:140,80249
DA:142,80249
DA:143,80249
DA:144,80249
DA:145,80249
DA:147,80249
DA:148,4547
DA:150,75702
DA:151,11460
DA:152,64242
DA:157,38947
DA:158,38947
DA:159,1
DA:160,1
DA:161,1
DA:163,38946
DA:166,38947
DA:167,38947
DA:168,38947
DA:170,80249
DA:171,80249
DA:172,80249
DA:173,80249
DA:174,80249
DA:175,0
DA:176,80249
DA:179,80249
DA:180,80247
DA:181,0
DA:182,1
DA:186,3
DA:187,3
DA:188,3
DA:189,3
DA:190,3
DA:191,80246
DA:193,80246
DA:194,80246
DA:195,80246
DA:196,0
DA:197,0
DA:198,0
DA:199,0
DA:200,80246
DA:201,80246
DA:202,23014
DA:203,57232
DA:205,57232
DA:206,57232
DA:207,57232
DA:208,57232
DA:209,57232
DA:210,57232
DA:211,80249
DA:213,57235
DA:214,57235
DA:215,57235
DA:216,57235
DA:217,57235
DA:218,0
DA:219,57235
DA:221,57235
DA:228,45772
DA:229,45772
DA:230,45772
DA:231,45772
DA:232,45772
DA:235,3
DA:237,3
DA:238,3
DA:241,11460
DA:243,57235
DA:245,45772
DA:246,45772
DA:247,45772
DA:248,45772
DA:249,45772
DA:250,0
DA:251,45772
DA:253,45772
DA:255,21079
DA:256,21079
DA:257,21079
DA:258,21079
DA:259,21079
DA:262,2
DA:263,2
DA:264,2
DA:265,2
DA:266,2
DA:269,1
DA:270,1
DA:271,1
DA:272,1
DA:273,1
DA:276,24690
DA:277,24690
DA:278,24690
DA:279,24690
DA:280,24690
DA:282,0
DA:284,45772
DA:286,21079
DA:287,21079
DA:289,21079
DA:290,0
DA:291,21079
DA:293,21079
DA:294,21079
DA:296,21079
DA:297,21079
DA:299,21079
DA:300,21074
DA:301,21074
DA:302,21074
DA:303,21074
DA:304,21074
DA:305,21074
DA:308,21074
DA:310,21074
DA:313,5
DA:314,5
DA:315,5
DA:316,5
DA:317,5
DA:318,5
DA:319,5
DA:320,21079
DA:322,21079
DA:323,21079
DA:324,21079
DA:325,21079
DA:326,21079
DA:327,21079
DA:329,21079
DA:330,21079
DA:332,21079
DA:333,21074
DA:336,5
DA:338,5
DA:339,0
DA:341,0
DA:342,0
DA:344,0
DA:345,0
DA:346,0
DA:347,0
DA:348,0
DA:349,0
DA:350,0
DA:353,0
DA:355,0
DA:358,0
DA:361,5
DA:362,5
DA:363,5
DA:364,5
DA:365,5
DA:366,5
DA:367,5
DA:368,5
DA:369,21079
DA:371,21079
DA:372,21079
DA:373,21079
DA:375,21079
DA:376,21079
DA:378,21079
DA:379,21074
DA:382,5
DA:385,5
DA:386,5
DA:387,5
DA:389,5
DA:390,5
DA:391,5
DA:392,0
DA:393,0
DA:396,0
DA:398,0
DA:399,0
DA:401,0
DA:402,0
DA:403,0
DA:404,0
DA:405,0
DA:406,0
DA:407,0
DA:410,0
DA:412,0
DA:415,0
DA:418,5
DA:419,5
DA:420,5
DA:421,5
DA:422,5
DA:423,5
DA:424,5
DA:425,5
DA:426,21079
DA:428,21079
DA:429,21079
DA:431,21079
DA:432,21074
DA:433,5
DA:435,5
DA:436,5
DA:438,5
DA:439,5
DA:440,5
DA:441,5
DA:443,0
DA:446,5
DA:447,0
DA:448,0
DA:449,0
DA:450,0
DA:451,0
DA:452,0
DA:455,0
DA:457,0
DA:458,5
DA:460,5
DA:461,5
DA:463,5
DA:464,5
DA:465,5
DA:466,5
DA:467,5
DA:468,5
DA:469,5
DA:470,21079
DA:472,5
DA:473,5
DA:474,1
DA:475,4
DA:477,4
DA:478,4
DA:480,4
DA:481,0
DA:483,0
DA:484,0
DA:485,0
DA:487,0
DA:488,0
DA:489,0
DA:490,0
DA:491,0
DA:492,0
DA:493,0
DA:496,0
DA:498,0
DA:499,0
DA:500,0
DA:502,0
DA:503,0
DA:504,0
DA:505,0
DA:506,0
DA:507,0
DA:508,0
DA:511,0
DA:513,0
DA:514,0
DA:516,0
DA:517,0
DA:519,0
DA:520,0
DA:521,0
DA:522,0
DA:523,0
DA:524,0
DA:525,0
DA:526,4
DA:528,4
DA:529,0
DA:531,0
DA:532,0
DA:533,0
DA:535,0
DA:536,0
DA:537,0
DA:538,0
DA:539,0
DA:540,0
DA:541,0
DA:544,0
DA:546,0
DA:547,0
DA:548,0
DA:550,0
DA:551,0
DA:552,0
DA:553,0
DA:554,0
DA:555,0
DA:556,0
DA:559,0
DA:561,0
DA:562,0
DA:564,0
DA:565,0
DA:567,0
DA:568,0
DA:569,0
DA:570,0
DA:571,0
DA:572,0
DA:573,0
DA:574,4
DA:576,4
DA:577,0
DA:579,0
DA:580,0
DA:581,0
DA:583,0
DA:584,0
DA:585,0
DA:586,0
DA:587,0
DA:588,0
DA:589,0
DA:592,0
DA:594,0
DA:595,0
DA:596,0
DA:598,0
DA:599,0
DA:600,0
DA:601,0
DA:602,0
DA:603,0
DA:604,0
DA:607,0
DA:609,0
DA:610,0
DA:612,0
DA:613,0
DA:615,0
DA:616,0
DA:617,0
DA:618,0
DA:619,0
DA:620,0
DA:621,0
DA:622,4
DA:624,4
DA:625,5
DA:627,0
DA:628,0
DA:629,0
DA:630,0
DA:631,0
DA:632,0
DA:633,0
DA:634,0
DA:636,0
DA:637,0
DA:638,0
DA:639,0
DA:640,0
DA:641,0
DA:642,0
DA:643,0
DA:646,0
DA:648,0
DA:650,0
DA:651,0
DA:653,5
DA:654,5
DA:655,5
DA:656,5
DA:657,5
DA:658,5
DA:659,5
DA:661,5
DA:662,5
DA:663,5
DA:664,5
DA:666,5
DA:667,5
DA:668,5
DA:669,1
DA:670,1
DA:672,1
DA:673,1
DA:675,1
DA:676,1
DA:677,1
DA:678,1
DA:679,4
DA:681,5
DA:682,5
DA:683,1
DA:684,1
DA:685,1
DA:686,1
DA:687,1
DA:688,1
DA:689,1
DA:690,4
DA:692,5
DA:693,0
DA:694,5
DA:696,5
DA:697,5
DA:698,5
DA:699,5
DA:700,5
DA:701,5
DA:702,5
DA:703,5
DA:704,5
DA:705,5
DA:706,5
DA:707,5
DA:709,2
DA:710,2
DA:712,2
DA:713,0
DA:714,2
DA:716,2
DA:717,2
DA:719,2
DA:720,2
DA:722,2
DA:723,0
DA:724,0
DA:725,0
DA:726,0
DA:727,0
DA:728,0
DA:731,0
DA:733,0
DA:736,2
DA:737,2
DA:738,2
DA:739,2
DA:740,2
DA:741,2
DA:742,2
DA:743,2
DA:745,2
DA:746,2
DA:747,2
DA:749,2
DA:750,2
DA:752,2
DA:753,0
DA:756,2
DA:758,2
DA:759,0
DA:760,0
DA:761,0
DA:763,0
DA:764,0
DA:765,0
DA:766,0
DA:767,0
DA:768,0
DA:769,0
DA:772,0
DA:774,0
DA:777,0
DA:780,2
DA:781,2
DA:782,2
DA:783,2
DA:784,2
DA:785,2
DA:786,2
DA:787,2
DA:788,2
DA:790,2
DA:791,2
DA:792,2
DA:794,2
DA:795,0
DA:798,2
DA:799,0
DA:800,0
DA:801,0
DA:802,0
DA:804,0
DA:805,2
DA:807,2
DA:809,1
DA:810,1
DA:811,0
DA:812,0
DA:813,0
DA:814,0
DA:815,0
DA:816,0
DA:819,0
DA:821,0
DA:824,1
DA:825,0
DA:826,0
DA:827,0
DA:828,0
DA:829,0
DA:830,0
DA:833,0
DA:835,0
DA:836,1
DA:837,1
DA:839,1
DA:840,1
DA:842,1
DA:843,0
DA:844,0
DA:845,0
DA:846,0
DA:847,0
DA:848,0
DA:851,0
DA:853,0
DA:856,1
DA:857,1
DA:858,1
DA:859,1
DA:860,1
DA:861,1
DA:862,1
DA:863,1
DA:864,1
DA:865,1
DA:868,1
DA:869,1
DA:870,1
DA:871,1
DA:873,1
DA:874,0
DA:875,0
DA:876,0
DA:877,0
DA:878,0
DA:879,0
DA:882,0
DA:884,0
DA:887,1
DA:888,1
DA:889,1
DA:890,1
DA:891,1
DA:892,1
DA:893,1
DA:894,1
DA:897,0
DA:898,0
DA:900,0
DA:901,0
DA:902,0
DA:903,0
DA:904,0
DA:905,0
DA:906,0
DA:909,0
DA:911,0
DA:914,0
DA:915,0
DA:916,0
DA:917,0
DA:918,0
DA:919,0
DA:920,0
DA:921,0
DA:922,0
DA:925,0
DA:926,0
DA:927,0
DA:928,0
DA:930,0
DA:933,2
DA:935,1
DA:936,1
DA:938,1
DA:939,0
DA:940,1
DA:942,1
DA:943,1
DA:945,1
DA:946,1
DA:948,1
DA:949,0
DA:950,0
DA:951,0
DA:952,0
DA:953,0
DA:954,0
DA:957,0
DA:959,0
DA:962,1
DA:963,1
DA:964,1
DA:965,1
DA:966,1
DA:967,1
DA:968,1
DA:969,1
DA:971,1
DA:972,1
DA:973,1
DA:975,1
DA:976,1
DA:978,1
DA:979,0
DA:982,1
DA:984,1
DA:985,0
DA:987,0
DA:988,0
DA:990,0
DA:991,0
DA:992,0
DA:993,0
DA:994,0
DA:995,0
DA:996,0
DA:999,0
DA:1001,0
DA:1004,0
DA:1007,1
DA:1008,1
DA:1009,1
DA:1010,1
DA:1011,1
DA:1012,1
DA:1013,1
DA:1014,1
DA:1015,1
DA:1017,1
DA:1018,1
DA:1019,1
DA:1021,1
DA:1022,0
DA:1025,1
DA:1026,0
DA:1027,0
DA:1028,0
DA:1029,0
DA:1031,0
DA:1032,1
DA:1034,1
DA:1036,0
DA:1037,0
DA:1038,0
DA:1039,0
DA:1040,0
DA:1041,0
DA:1042,0
DA:1043,0
DA:1046,0
DA:1048,0
DA:1051,0
DA:1052,0
DA:1053,0
DA:1054,0
DA:1055,0
DA:1056,0
DA:1057,0
DA:1058,0
DA:1061,1
DA:1062,1
DA:1064,1
DA:1065,0
DA:1066,0
DA:1067,0
DA:1068,0
DA:1069,0
DA:1070,0
DA:1073,0
DA:1075,0
DA:1078,1
DA:1079,1
DA:1080,1
DA:1081,1
DA:1082,1
DA:1083,1
DA:1084,1
DA:1085,1
DA:1086,1
DA:1089,0
DA:1090,0
DA:1091,0
DA:1092,0
DA:1094,0
DA:1097,1
DA:1099,24690
DA:1100,24690
DA:1101,24690
DA:1103,24690
DA:1104,0
DA:1105,0
DA:1106,24690
DA:1107,0
DA:1108,0
DA:1110,24690
DA:1113,24690
DA:1114,0
DA:1115,0
DA:1116,0
DA:1117,0
DA:1118,0
DA:1119,0
DA:1122,0
DA:1124,0
DA:1125,24690
DA:1126,24690
DA:1128,24690
DA:1129,24690
DA:1131,24690
DA:1132,20154
DA:1133,20154
DA:1134,20154
DA:1135,20154
DA:1136,20154
DA:1137,20154
DA:1140,20154
DA:1142,20154
DA:1145,4536
DA:1146,4536
DA:1147,4536
DA:1148,4536
DA:1149,4536
DA:1150,4536
DA:1151,4536
DA:1152,4536
DA:1153,24690
DA:1155,24690
DA:1156,24690
DA:1157,24690
DA:1159,24690
DA:1160,24690
DA:1162,24690
DA:1163,20154
DA:1166,4536
DA:1168,4538
DA:1169,2
DA:1171,2
DA:1172,2
DA:1174,2
DA:1175,0
DA:1176,0
DA:1177,0
DA:1178,0
DA:1179,0
DA:1180,0
DA:1183,0
DA:1185,0
DA:1188,2
DA:1191,4536
DA:1192,4536
DA:1193,4536
DA:1194,4536
DA:1195,4536
DA:1196,4536
DA:1197,4536
DA:1198,4536
DA:1199,24690
DA:1201,24692
DA:1202,24692
DA:1203,24692
DA:1205,24692
DA:1206,24692
DA:1208,24692
DA:1209,20154
DA:1212,4538
DA:1213,4538
DA:1214,4538
DA:1215,4538
DA:1216,4538
DA:1217,4538
DA:1218,4538
DA:1219,4538
DA:1220,24692
DA:1222,3
DA:1223,3
DA:1224,3
DA:1225,3
DA:1226,3
DA:1227,3
DA:1228,0
DA:1231,3
DA:1232,3
DA:1233,3
DA:1234,3
DA:1235,3
DA:1236,3
DA:1237,3
DA:1238,3
DA:1240,1
DA:1241,1
DA:1242,1
DA:1243,1
DA:1244,1
DA:1245,0
DA:1246,1
DA:1248,1
DA:1250,1
DA:1251,1
DA:1254,0
DA:1255,0
DA:1256,0
DA:1258,0
DA:1260,1
DA:1262,1
DA:1263,1
DA:1264,1
DA:1265,1
DA:1266,1
DA:1267,1
DA:1269,1
DA:1270,0
DA:1273,1
DA:1274,1
DA:1276,1
DA:1277,0
DA:1279,0
DA:1280,0
DA:1281,0
DA:1282,0
DA:1283,0
DA:1284,0
DA:1285,0
DA:1288,0
DA:1290,0
DA:1293,0
DA:1294,0
DA:1297,1
DA:1298,1
DA:1299,1
DA:1300,1
DA:1301,1
DA:1302,1
DA:1303,1
DA:1304,1
DA:1306,2
DA:1307,2
DA:1308,2
DA:1309,2
DA:1310,2
DA:1311,2
DA:1313,2
DA:1314,0
DA:1315,2
DA:1317,2
DA:1318,2
DA:1320,2
DA:1322,2
DA:1323,1
DA:1324,1
DA:1325,1
DA:1326,0
DA:1327,0
DA:1328,0
DA:1329,0
DA:1331,0
DA:1332,1
DA:1334,1
DA:1335,1
DA:1336,1
DA:1337,1
DA:1338,1
DA:1339,1
DA:1340,1
DA:1341,1
DA:1344,1
DA:1346,1
DA:1347,0
DA:1348,0
DA:1349,0
DA:1350,0
DA:1351,0
DA:1352,0
DA:1355,0
DA:1357,0
DA:1360,1
DA:1361,0
DA:1362,0
DA:1363,0
DA:1364,0
DA:1365,0
DA:1366,0
DA:1369,0
DA:1371,0
DA:1372,1
DA:1373,1
DA:1375,1
DA:1376,1
DA:1378,1
DA:1379,0
DA:1380,0
DA:1381,0
DA:1382,0
DA:1383,0
DA:1384,0
DA:1387,0
DA:1389,0
DA:1392,1
DA:1393,1
DA:1394,1
DA:1395,1
DA:1396,1
DA:1397,1
DA:1399,1
DA:1400,0
DA:1401,0
DA:1402,1
DA:1404,1
DA:1407,1
DA:1408,0
DA:1409,0
DA:1410,0
DA:1411,0
DA:1412,0
DA:1413,0
DA:1416,0
DA:1418,0
DA:1419,1
DA:1421,1
DA:1422,1
DA:1424,1
DA:1425,0
DA:1426,0
DA:1427,0
DA:1428,0
DA:1430,0
DA:1431,1
DA:1433,1
DA:1434,1
DA:1435,1
DA:1436,1
DA:1437,1
DA:1438,1
DA:1439,1
DA:1440,2
DA:1442,5
DA:1443,5
DA:1444,5
DA:1445,5
DA:1446,5
DA:1447,5
DA:1448,5
DA:1450,8
DA:1451,8
DA:1452,8
DA:1453,8
DA:1454,0
DA:1455,0
DA:1457,8
DA:1458,8
DA:1459,8
DA:1460,8
DA:1462,4
DA:1463,4
DA:1464,4
DA:1465,4
DA:1466,0
DA:1467,0
DA:1469,4
DA:1470,4
DA:1471,4
DA:1472,4
DA:1474,38952
DA:1475,38952
DA:1476,38952
DA:1478,0
DA:1480,38952
DA:1482,91723
DA:1483,91723
DA:1484,91723
DA:1486,80255
DA:1487,80249
DA:1488,80255
DA:1498,80255
DA:1505,7
DA:1506,7
DA:1507,7
DA:1508,7
DA:1509,7
DA:1512,1
DA:1513,1
DA:1514,1
DA:1515,1
DA:1517,1
DA:1518,0
DA:1521,1
DA:1522,1
DA:1525,1
DA:1526,1
DA:1527,1
DA:1529,1
DA:1530,0
DA:1533,1
DA:1534,1
DA:1535,1
DA:1538,1
DA:1541,1
DA:1542,1
DA:1543,1
DA:1545,1
DA:1546,0
DA:1550,1
DA:1551,1
DA:1553,0
DA:1556,1
DA:1557,1
DA:1560,1
DA:1561,1
DA:1562,1
DA:1564,1
DA:1565,0
DA:1569,1
DA:1570,1
DA:1572,0
DA:1575,1
DA:1576,0
DA:1578,1
DA:1579,1
DA:1582,1
DA:1583,1
DA:1584,1
DA:1586,1
DA:1587,0
DA:1590,1
DA:1591,1
DA:1593,0
DA:1596,1
DA:1597,1
DA:1598,0
DA:1600,1
DA:1601,1
DA:1602,1
DA:1603,1
DA:1604,1
DA:1607,1
DA:1608,1
DA:1609,1
DA:1610,1
DA:1611,1
DA:1614,1
DA:1617,1
DA:1618,1
DA:1619,1
DA:1621,1
DA:1622,0
DA:1625,1
DA:1626,1
DA:1628,0
DA:1631,1
DA:1632,1
DA:1633,1
DA:1636,1
DA:1639,1
DA:1640,1
DA:1641,1
DA:1643,1
DA:1644,0
DA:1647,1
DA:1648,1
DA:1650,0
DA:1653,1
DA:1654,0
DA:1656,1
DA:1657,1
DA:1658,1
DA:1659,1
DA:1660,1
DA:1661,1
DA:1662,1
DA:1663,1
BRF:0
BRH:0
LF:1204
LH:745
end_of_record
SF:/Users/d072013/SAPDevelop/gql_parser/src/parser/patterns/element.rs
FN:497,_RNvNtNtNtCs6qJP7SanZgw_10gql_parser6parser8patterns7element17edge_pattern_span
FN:504,_RNvNtNtNtCs6qJP7SanZgw_10gql_parser6parser8patterns7element28regular_identifier_from_kind
FN:26,_RNCNvMNtNtNtCs6qJP7SanZgw_10gql_parser6parser8patterns7elementNtB6_13PatternParser18parse_node_pattern0Ba_
FN:297,_RNCNvMNtNtNtCs6qJP7SanZgw_10gql_parser6parser8patterns7elementNtB6_13PatternParser28parse_element_pattern_filler0Ba_
FN:449,_RNCNvMNtNtNtCs6qJP7SanZgw_10gql_parser6parser8patterns7elementNtB6_13PatternParser29parse_property_key_value_pair0Ba_
FN:485,_RNCNvMNtNtNtCs6qJP7SanZgw_10gql_parser6parser8patterns7elementNtB6_13PatternParser34parse_element_pattern_where_clause0Ba_
FN:391,_RNCNvMNtNtNtCs6qJP7SanZgw_10gql_parser6parser8patterns7elementNtB6_13PatternParser36parse_element_property_specification0Ba_
FN:44,_RNvMNtNtNtCs6qJP7SanZgw_10gql_parser6parser8patterns7elementNtB4_13PatternParser18parse_edge_pattern
FN:11,_RNvMNtNtNtCs6qJP7SanZgw_10gql_parser6parser8patterns7elementNtB4_13PatternParser18parse_node_pattern
FN:459,_RNvMNtNtNtCs6qJP7SanZgw_10gql_parser6parser8patterns7elementNtB4_13PatternParser19parse_property_name
FN:285,_RNvMNtNtNtCs6qJP7SanZgw_10gql_parser6parser8patterns7elementNtB4_13PatternParser28parse_element_pattern_filler
FN:423,_RNvMNtNtNtCs6qJP7SanZgw_10gql_parser6parser8patterns7elementNtB4_13PatternParser29parse_property_key_value_pair
FN:473,_RNvMNtNtNtCs6qJP7SanZgw_10gql_parser6parser8patterns7elementNtB4_13PatternParser34parse_element_pattern_where_clause
FN:376,_RNvMNtNtNtCs6qJP7SanZgw_10gql_parser6parser8patterns7elementNtB4_13PatternParser36parse_element_property_specification
FN:497,_RNvNtNtNtCs87GxMFlPkU4_10gql_parser6parser8patterns7element17edge_pattern_span
FN:504,_RNvNtNtNtCs87GxMFlPkU4_10gql_parser6parser8patterns7element28regular_identifier_from_kind
FN:44,_RNvMNtNtNtCs87GxMFlPkU4_10gql_parser6parser8patterns7elementNtB4_13PatternParser18parse_edge_pattern
FN:11,_RNvMNtNtNtCs87GxMFlPkU4_10gql_parser6parser8patterns7elementNtB4_13PatternParser18parse_node_pattern
FN:459,_RNvMNtNtNtCs87GxMFlPkU4_10gql_parser6parser8patterns7elementNtB4_13PatternParser19parse_property_name
FN:285,_RNvMNtNtNtCs87GxMFlPkU4_10gql_parser6parser8patterns7elementNtB4_13PatternParser28parse_element_pattern_filler
FN:423,_RNvMNtNtNtCs87GxMFlPkU4_10gql_parser6parser8patterns7elementNtB4_13PatternParser29parse_property_key_value_pair
FN:473,_RNvMNtNtNtCs87GxMFlPkU4_10gql_parser6parser8patterns7elementNtB4_13PatternParser34parse_element_pattern_where_clause
FN:376,_RNvMNtNtNtCs87GxMFlPkU4_10gql_parser6parser8patterns7elementNtB4_13PatternParser36parse_element_property_specification
FN:26,_RNCNvMNtNtNtCs87GxMFlPkU4_10gql_parser6parser8patterns7elementNtB6_13PatternParser18parse_node_pattern0Ba_
FN:297,_RNCNvMNtNtNtCs87GxMFlPkU4_10gql_parser6parser8patterns7elementNtB6_13PatternParser28parse_element_pattern_filler0Ba_
FN:449,_RNCNvMNtNtNtCs87GxMFlPkU4_10gql_parser6parser8patterns7elementNtB6_13PatternParser29parse_property_key_value_pair0Ba_
FN:485,_RNCNvMNtNtNtCs87GxMFlPkU4_10gql_parser6parser8patterns7elementNtB6_13PatternParser34parse_element_pattern_where_clause0Ba_
FN:391,_RNCNvMNtNtNtCs87GxMFlPkU4_10gql_parser6parser8patterns7elementNtB6_13PatternParser36parse_element_property_specification0Ba_
FNDA:10,_RNvNtNtNtCs6qJP7SanZgw_10gql_parser6parser8patterns7element17edge_pattern_span
FNDA:71,_RNvNtNtNtCs6qJP7SanZgw_10gql_parser6parser8patterns7element28regular_identifier_from_kind
FNDA:0,_RNCNvMNtNtNtCs6qJP7SanZgw_10gql_parser6parser8patterns7elementNtB6_13PatternParser18parse_node_pattern0Ba_
FNDA:34,_RNCNvMNtNtNtCs6qJP7SanZgw_10gql_parser6parser8patterns7elementNtB6_13PatternParser28parse_element_pattern_filler0Ba_
FNDA:8,_RNCNvMNtNtNtCs6qJP7SanZgw_10gql_parser6parser8patterns7elementNtB6_13PatternParser29parse_property_key_value_pair0Ba_
FNDA:19,_RNCNvMNtNtNtCs6qJP7SanZgw_10gql_parser6parser8patterns7elementNtB6_13PatternParser34parse_element_pattern_where_clause0Ba_
FNDA:0,_RNCNvMNtNtNtCs6qJP7SanZgw_10gql_parser6parser8patterns7elementNtB6_13PatternParser36parse_element_property_specification0Ba_
FNDA:5,_RNvMNtNtNtCs6qJP7SanZgw_10gql_parser6parser8patterns7elementNtB4_13PatternParser18parse_edge_pattern
FNDA:32,_RNvMNtNtNtCs6qJP7SanZgw_10gql_parser6parser8patterns7elementNtB4_13PatternParser18parse_node_pattern
FNDA:4,_RNvMNtNtNtCs6qJP7SanZgw_10gql_parser6parser8patterns7elementNtB4_13PatternParser19parse_property_name
FNDA:37,_RNvMNtNtNtCs6qJP7SanZgw_10gql_parser6parser8patterns7elementNtB4_13PatternParser28parse_element_pattern_filler
FNDA:4,_RNvMNtNtNtCs6qJP7SanZgw_10gql_parser6parser8patterns7elementNtB4_13PatternParser29parse_property_key_value_pair
FNDA:3,_RNvMNtNtNtCs6qJP7SanZgw_10gql_parser6parser8patterns7elementNtB4_13PatternParser34parse_element_pattern_where_clause
FNDA:4,_RNvMNtNtNtCs6qJP7SanZgw_10gql_parser6parser8patterns7elementNtB4_13PatternParser36parse_element_property_specification
FNDA:0,_RNvNtNtNtCs87GxMFlPkU4_10gql_parser6parser8patterns7element17edge_pattern_span
FNDA:0,_RNvNtNtNtCs87GxMFlPkU4_10gql_parser6parser8patterns7element28regular_identifier_from_kind
FNDA:0,_RNvMNtNtNtCs87GxMFlPkU4_10gql_parser6parser8patterns7elementNtB4_13PatternParser18parse_edge_pattern
FNDA:0,_RNvMNtNtNtCs87GxMFlPkU4_10gql_parser6parser8patterns7elementNtB4_13PatternParser18parse_node_pattern
FNDA:0,_RNvMNtNtNtCs87GxMFlPkU4_10gql_parser6parser8patterns7elementNtB4_13PatternParser19parse_property_name
FNDA:0,_RNvMNtNtNtCs87GxMFlPkU4_10gql_parser6parser8patterns7elementNtB4_13PatternParser28parse_element_pattern_filler
FNDA:0,_RNvMNtNtNtCs87GxMFlPkU4_10gql_parser6parser8patterns7elementNtB4_13PatternParser29parse_property_key_value_pair
FNDA:0,_RNvMNtNtNtCs87GxMFlPkU4_10gql_parser6parser8patterns7elementNtB4_13PatternParser34parse_element_pattern_where_clause
FNDA:0,_RNvMNtNtNtCs87GxMFlPkU4_10gql_parser6parser8patterns7elementNtB4_13PatternParser36parse_element_property_specification
FNDA:0,_RNCNvMNtNtNtCs87GxMFlPkU4_10gql_parser6parser8patterns7elementNtB6_13PatternParser18parse_node_pattern0Ba_
FNDA:0,_RNCNvMNtNtNtCs87GxMFlPkU4_10gql_parser6parser8patterns7elementNtB6_13PatternParser28parse_element_pattern_filler0Ba_
FNDA:0,_RNCNvMNtNtNtCs87GxMFlPkU4_10gql_parser6parser8patterns7elementNtB6_13PatternParser29parse_property_key_value_pair0Ba_
FNDA:0,_RNCNvMNtNtNtCs87GxMFlPkU4_10gql_parser6parser8patterns7elementNtB6_13PatternParser34parse_element_pattern_where_clause0Ba_
FNDA:0,_RNCNvMNtNtNtCs87GxMFlPkU4_10gql_parser6parser8patterns7elementNtB6_13PatternParser36parse_element_property_specification0Ba_
FNF:14
FNH:12
DA:11,32
DA:12,32
DA:13,0
DA:14,32
DA:16,32
DA:17,32
DA:19,32
DA:21,32
DA:22,2
DA:23,2
DA:24,2
DA:26,2
DA:27,2
DA:28,0
DA:29,2
DA:30,30
DA:31,30
DA:32,30
DA:34,32
DA:35,32
DA:36,32
DA:37,32
DA:38,32
DA:39,32
DA:40,32
DA:41,32
DA:42,32
DA:44,5
DA:45,5
DA:47,5
DA:49,0
DA:50,0
DA:51,0
DA:52,0
DA:53,0
DA:54,0
DA:55,0
DA:56,0
DA:57,0
DA:61,0
DA:62,0
DA:63,0
DA:65,0
DA:66,0
DA:67,0
DA:69,0
DA:70,0
DA:71,0
DA:72,0
DA:76,0
DA:79,0
DA:81,0
DA:82,0
DA:83,0
DA:84,0
DA:85,0
DA:86,0
DA:87,0
DA:88,0
DA:89,0
DA:90,0
DA:91,0
DA:92,0
DA:94,0
DA:95,0
DA:96,0
DA:97,0
DA:101,5
DA:102,5
DA:103,5
DA:104,5
DA:105,5
DA:106,5
DA:107,0
DA:108,0
DA:109,0
DA:113,0
DA:114,5
DA:115,5
DA:117,5
DA:118,5
DA:119,0
DA:121,0
DA:122,0
DA:123,0
DA:124,0
DA:128,0
DA:131,5
DA:133,5
DA:134,5
DA:135,5
DA:136,5
DA:137,5
DA:138,5
DA:139,5
DA:140,5
DA:141,5
DA:142,5
DA:143,5
DA:144,5
DA:146,0
DA:147,0
DA:148,0
DA:149,0
DA:153,0
DA:154,0
DA:155,0
DA:156,0
DA:157,0
DA:158,0
DA:159,0
DA:160,0
DA:161,0
DA:165,0
DA:166,0
DA:167,0
DA:169,0
DA:170,0
DA:171,0
DA:173,0
DA:174,0
DA:175,0
DA:176,0
DA:180,0
DA:183,0
DA:185,0
DA:186,0
DA:187,0
DA:188,0
DA:189,0
DA:190,0
DA:191,0
DA:192,0
DA:193,0
DA:194,0
DA:195,0
DA:196,0
DA:198,0
DA:199,0
DA:200,0
DA:201,0
DA:205,0
DA:206,0
DA:207,0
DA:208,0
DA:209,0
DA:210,0
DA:211,0
DA:212,0
DA:213,0
DA:217,0
DA:218,0
DA:219,0
DA:221,0
DA:222,0
DA:223,0
DA:224,0
DA:228,0
DA:229,0
DA:230,0
DA:232,0
DA:233,0
DA:234,0
DA:235,0
DA:236,0
DA:237,0
DA:238,0
DA:239,0
DA:240,0
DA:241,0
DA:242,0
DA:243,0
DA:245,0
DA:246,0
DA:247,0
DA:248,0
DA:249,0
DA:250,0
DA:251,0
DA:252,0
DA:253,0
DA:254,0
DA:255,0
DA:256,0
DA:260,0
DA:261,0
DA:262,0
DA:263,0
DA:264,0
DA:267,0
DA:268,0
DA:269,0
DA:270,0
DA:271,0
DA:272,0
DA:273,0
DA:274,0
DA:275,0
DA:276,0
DA:277,0
DA:278,0
DA:279,0
DA:281,0
DA:283,5
DA:285,37
DA:286,37
DA:287,37
DA:288,37
DA:289,37
DA:290,37
DA:292,37
DA:293,37
DA:294,34
DA:295,34
DA:296,34
DA:297,34
DA:298,34
DA:299,34
DA:302,0
DA:303,0
DA:304,0
DA:305,0
DA:306,0
DA:310,0
DA:311,0
DA:313,3
DA:316,37
DA:317,37
DA:318,19
DA:320,18
DA:323,37
DA:324,37
DA:325,37
DA:327,37
DA:328,4
DA:329,4
DA:330,33
DA:331,1
DA:332,1
DA:333,32
DA:336,35
DA:337,37
DA:340,2
DA:341,2
DA:342,2
DA:343,2
DA:344,2
DA:346,2
DA:347,2
DA:348,2
DA:349,2
DA:353,2
DA:354,0
DA:355,2
DA:356,2
DA:357,2
DA:358,0
DA:359,35
DA:361,37
DA:362,37
DA:363,37
DA:364,37
DA:365,37
DA:367,37
DA:368,37
DA:369,37
DA:370,37
DA:371,37
DA:372,37
DA:373,37
DA:374,37
DA:376,4
DA:377,4
DA:378,0
DA:379,4
DA:381,4
DA:382,4
DA:384,4
DA:386,4
DA:387,4
DA:390,4
DA:391,0
DA:392,0
DA:393,0
DA:394,0
DA:395,0
DA:396,0
DA:398,4
DA:400,4
DA:401,0
DA:402,0
DA:403,4
DA:404,4
DA:407,4
DA:408,0
DA:409,0
DA:410,0
DA:411,0
DA:412,4
DA:413,4
DA:414,4
DA:416,4
DA:417,4
DA:418,4
DA:419,4
DA:420,4
DA:421,4
DA:423,4
DA:424,4
DA:425,4
DA:426,4
DA:428,0
DA:429,0
DA:430,0
DA:431,0
DA:435,0
DA:439,4
DA:440,0
DA:441,0
DA:442,0
DA:444,0
DA:445,4
DA:446,4
DA:448,4
DA:449,8
DA:450,8
DA:451,8
DA:453,4
DA:454,4
DA:456,4
DA:457,4
DA:459,4
DA:460,4
DA:461,4
DA:462,4
DA:463,0
DA:464,4
DA:465,0
DA:466,0
DA:469,4
DA:470,4
DA:471,4
DA:473,3
DA:474,3
DA:475,3
DA:476,3
DA:477,3
DA:478,0
DA:479,3
DA:481,3
DA:482,3
DA:484,3
DA:485,19
DA:486,2
DA:487,3
DA:488,2
DA:490,2
DA:491,2
DA:492,2
DA:493,2
DA:494,3
DA:497,10
DA:498,10
DA:499,10
DA:500,0
DA:502,10
DA:504,71
DA:505,3
DA:506,68
DA:507,3
DA:508,3
DA:510,71
BRF:0
BRH:0
LF:376
LH:186
end_of_record
SF:/Users/d072013/SAPDevelop/gql_parser/src/parser/patterns/label.rs
FN:168,_RNvMNtNtNtCs6qJP7SanZgw_10gql_parser6parser8patterns5labelNtB4_13PatternParser16parse_label_name
FN:81,_RNvMNtNtNtCs6qJP7SanZgw_10gql_parser6parser8patterns5labelNtB4_13PatternParser17parse_label_unary
FN:96,_RNvMNtNtNtCs6qJP7SanZgw_10gql_parser6parser8patterns5labelNtB4_13PatternParser19parse_label_primary
FN:29,_RNvMNtNtNtCs6qJP7SanZgw_10gql_parser6parser8patterns5labelNtB4_13PatternParser22parse_label_expression
FN:57,_RNvMNtNtNtCs6qJP7SanZgw_10gql_parser6parser8patterns5labelNtB4_13PatternParser23parse_label_conjunction
FN:33,_RNvMNtNtNtCs6qJP7SanZgw_10gql_parser6parser8patterns5labelNtB4_13PatternParser23parse_label_disjunction
FN:11,_RNvMNtNtNtCs6qJP7SanZgw_10gql_parser6parser8patterns5labelNtB4_13PatternParser25parse_is_label_expression
FN:176,_RNvNtNtNtCs6qJP7SanZgw_10gql_parser6parser8patterns5label20identifier_from_kind
FN:176,_RNvNtNtNtCs87GxMFlPkU4_10gql_parser6parser8patterns5label20identifier_from_kind
FN:168,_RNvMNtNtNtCs87GxMFlPkU4_10gql_parser6parser8patterns5labelNtB4_13PatternParser16parse_label_name
FN:81,_RNvMNtNtNtCs87GxMFlPkU4_10gql_parser6parser8patterns5labelNtB4_13PatternParser17parse_label_unary
FN:96,_RNvMNtNtNtCs87GxMFlPkU4_10gql_parser6parser8patterns5labelNtB4_13PatternParser19parse_label_primary
FN:29,_RNvMNtNtNtCs87GxMFlPkU4_10gql_parser6parser8patterns5labelNtB4_13PatternParser22parse_label_expression
FN:57,_RNvMNtNtNtCs87GxMFlPkU4_10gql_parser6parser8patterns5labelNtB4_13PatternParser23parse_label_conjunction
FN:33,_RNvMNtNtNtCs87GxMFlPkU4_10gql_parser6parser8patterns5labelNtB4_13PatternParser23parse_label_disjunction
FN:11,_RNvMNtNtNtCs87GxMFlPkU4_10gql_parser6parser8patterns5labelNtB4_13PatternParser25parse_is_label_expression
FNDA:20,_RNvMNtNtNtCs6qJP7SanZgw_10gql_parser6parser8patterns5labelNtB4_13PatternParser16parse_label_name
FNDA:23,_RNvMNtNtNtCs6qJP7SanZgw_10gql_parser6parser8patterns5labelNtB4_13PatternParser17parse_label_unary
FNDA:22,_RNvMNtNtNtCs6qJP7SanZgw_10gql_parser6parser8patterns5labelNtB4_13PatternParser19parse_label_primary
FNDA:20,_RNvMNtNtNtCs6qJP7SanZgw_10gql_parser6parser8patterns5labelNtB4_13PatternParser22parse_label_expression
FNDA:21,_RNvMNtNtNtCs6qJP7SanZgw_10gql_parser6parser8patterns5labelNtB4_13PatternParser23parse_label_conjunction
FNDA:20,_RNvMNtNtNtCs6qJP7SanZgw_10gql_parser6parser8patterns5labelNtB4_13PatternParser23parse_label_disjunction
FNDA:19,_RNvMNtNtNtCs6qJP7SanZgw_10gql_parser6parser8patterns5labelNtB4_13PatternParser25parse_is_label_expression
FNDA:20,_RNvNtNtNtCs6qJP7SanZgw_10gql_parser6parser8patterns5label20identifier_from_kind
FNDA:0,_RNvNtNtNtCs87GxMFlPkU4_10gql_parser6parser8patterns5label20identifier_from_kind
FNDA:0,_RNvMNtNtNtCs87GxMFlPkU4_10gql_parser6parser8patterns5labelNtB4_13PatternParser16parse_label_name
FNDA:0,_RNvMNtNtNtCs87GxMFlPkU4_10gql_parser6parser8patterns5labelNtB4_13PatternParser17parse_label_unary
FNDA:0,_RNvMNtNtNtCs87GxMFlPkU4_10gql_parser6parser8patterns5labelNtB4_13PatternParser19parse_label_primary
FNDA:0,_RNvMNtNtNtCs87GxMFlPkU4_10gql_parser6parser8patterns5labelNtB4_13PatternParser22parse_label_expression
FNDA:0,_RNvMNtNtNtCs87GxMFlPkU4_10gql_parser6parser8patterns5labelNtB4_13PatternParser23parse_label_conjunction
FNDA:0,_RNvMNtNtNtCs87GxMFlPkU4_10gql_parser6parser8patterns5labelNtB4_13PatternParser23parse_label_disjunction
FNDA:0,_RNvMNtNtNtCs87GxMFlPkU4_10gql_parser6parser8patterns5labelNtB4_13PatternParser25parse_is_label_expression
FNF:8
FNH:8
DA:11,19
DA:12,19
DA:13,0
DA:14,19
DA:15,19
DA:17,19
DA:18,0
DA:19,0
DA:20,0
DA:23,0
DA:26,19
DA:27,19
DA:29,20
DA:30,20
DA:31,20
DA:33,20
DA:34,20
DA:36,21
DA:37,1
DA:38,1
DA:39,0
DA:40,0
DA:41,0
DA:43,0
DA:46,1
DA:47,1
DA:48,1
DA:49,1
DA:50,1
DA:51,1
DA:54,20
DA:55,20
DA:57,21
DA:58,21
DA:60,22
DA:61,1
DA:62,1
DA:63,0
DA:64,0
DA:65,0
DA:67,0
DA:70,1
DA:71,1
DA:72,1
DA:73,1
DA:74,1
DA:75,1
DA:78,21
DA:79,21
DA:81,23
DA:82,23
DA:83,1
DA:84,1
DA:85,1
DA:86,1
DA:87,1
DA:88,1
DA:89,1
DA:90,1
DA:91,22
DA:93,22
DA:94,23
DA:96,22
DA:97,22
DA:99,1
DA:100,1
DA:101,1
DA:104,1
DA:105,1
DA:106,1
DA:107,1
DA:108,0
DA:109,0
DA:110,0
DA:111,0
DA:112,1
DA:113,1
DA:114,1
DA:115,1
DA:116,1
DA:117,1
DA:118,1
DA:119,1
DA:122,0
DA:123,0
DA:125,0
DA:126,0
DA:127,0
DA:128,0
DA:132,0
DA:135,0
DA:136,0
DA:137,0
DA:138,0
DA:139,0
DA:140,0
DA:141,0
DA:145,0
DA:147,0
DA:148,0
DA:149,0
DA:150,0
DA:151,0
DA:152,0
DA:153,0
DA:154,0
DA:155,0
DA:156,0
DA:159,0
DA:162,20
DA:163,20
DA:166,22
DA:168,20
DA:169,20
DA:170,20
DA:171,20
DA:172,20
DA:173,20
DA:176,20
DA:177,0
DA:178,20
DA:179,0
DA:180,0
DA:182,20
BRF:0
BRH:0
LF:124
LH:78
end_of_record
SF:/Users/d072013/SAPDevelop/gql_parser/src/parser/patterns/mod.rs
FN:39,_RNCNvNtNtCs6qJP7SanZgw_10gql_parser6parser8patterns33parse_graph_pattern_binding_table0B7_
FN:34,_RNvNtNtCs6qJP7SanZgw_10gql_parser6parser8patterns33parse_graph_pattern_binding_table
FN:502,_RINvMs_NtNtCs6qJP7SanZgw_10gql_parser6parser8patternsNtB5_13PatternParser13skip_to_tokenNCNvB2_12skip_to_sync0EB9_
FN:502,_RINvMs_NtNtCs6qJP7SanZgw_10gql_parser6parser8patternsNtB5_13PatternParser13skip_to_tokenNCNvMNtB5_4pathBP_22parse_brace_quantifier0EB9_
FN:502,_RINvMs_NtNtCs6qJP7SanZgw_10gql_parser6parser8patternsNtB5_13PatternParser13skip_to_tokenNCNvMNtB5_4pathBP_22parse_brace_quantifiers_0EB9_
FN:502,_RINvMs_NtNtCs6qJP7SanZgw_10gql_parser6parser8patternsNtB5_13PatternParser13skip_to_tokenNCNvMNtB5_7elementBP_18parse_node_pattern0EB9_
FN:502,_RINvMs_NtNtCs6qJP7SanZgw_10gql_parser6parser8patternsNtB5_13PatternParser13skip_to_tokenNCNvMNtB5_7elementBP_36parse_element_property_specification0EB9_
FN:447,_RINvMs_NtNtCs6qJP7SanZgw_10gql_parser6parser8patternsNtB5_13PatternParser19find_expression_endNCNvB2_30parse_graph_pattern_yield_item0EB9_
FN:447,_RINvMs_NtNtCs6qJP7SanZgw_10gql_parser6parser8patternsNtB5_13PatternParser19find_expression_endNCNvB2_32parse_graph_pattern_where_clause0EB9_
FN:447,_RINvMs_NtNtCs6qJP7SanZgw_10gql_parser6parser8patternsNtB5_13PatternParser19find_expression_endNCNvMNtB5_4pathBP_43parse_parenthesized_path_pattern_expression0EB9_
FN:447,_RINvMs_NtNtCs6qJP7SanZgw_10gql_parser6parser8patternsNtB5_13PatternParser19find_expression_endNCNvMNtB5_7elementBP_29parse_property_key_value_pair0EB9_
FN:447,_RINvMs_NtNtCs6qJP7SanZgw_10gql_parser6parser8patternsNtB5_13PatternParser19find_expression_endNCNvMNtB5_7elementBP_34parse_element_pattern_where_clause0EB9_
FN:523,_RINvMs_NtNtCs6qJP7SanZgw_10gql_parser6parser8patternsNtB5_13PatternParser9try_parseNtNtNtB9_3ast5query10PathSearchNCNvMNtB5_4pathBP_25parse_path_pattern_prefix0EB9_
FN:523,_RINvMs_NtNtCs6qJP7SanZgw_10gql_parser6parser8patternsNtB5_13PatternParser9try_parseNtNtNtB9_3ast5query11NodePatternNCNvMNtB5_4pathBP_18parse_path_primarys0_0EB9_
FN:523,_RINvMs_NtNtCs6qJP7SanZgw_10gql_parser6parser8patternsNtB5_13PatternParser9try_parseNtNtNtB9_3ast5query21PathPatternExpressionNCNvMNtB5_4pathBP_18parse_path_primarys1_0EB9_
FN:523,_RINvMs_NtNtCs6qJP7SanZgw_10gql_parser6parser8patternsNtB5_13PatternParser9try_parseNtNtNtB9_3ast5query21PathPatternExpressionNCNvMNtB5_4pathBP_18parse_path_primarys_0EB9_
FN:523,_RINvMs_NtNtCs6qJP7SanZgw_10gql_parser6parser8patternsNtB5_13PatternParser9try_parseNtNtNtB9_3ast5query31SimplifiedPathPatternExpressionNCNvMNtB5_4pathBP_18parse_path_primary0EB9_
FN:523,_RINvMs_NtNtCs6qJP7SanZgw_10gql_parser6parser8patternsNtB5_13PatternParser9try_parseNtNtNtB9_3ast5query31SimplifiedPathPatternExpressionNCNvMNtB5_4pathBP_25parse_simplified_tertiary0EB9_
FN:499,_RNCNvMs_NtNtCs6qJP7SanZgw_10gql_parser6parser8patternsNtB6_13PatternParser12skip_to_sync0Ba_
FN:543,_RNCNvMs_NtNtCs6qJP7SanZgw_10gql_parser6parser8patternsNtB6_13PatternParser15current_span_or0Ba_
FN:404,_RNCNvMs_NtNtCs6qJP7SanZgw_10gql_parser6parser8patternsNtB6_13PatternParser19find_trailing_alias0Ba_
FN:352,_RNCNvMs_NtNtCs6qJP7SanZgw_10gql_parser6parser8patternsNtB6_13PatternParser30parse_graph_pattern_yield_item0Ba_
FN:376,_RNCNvMs_NtNtCs6qJP7SanZgw_10gql_parser6parser8patternsNtB6_13PatternParser30parse_graph_pattern_yield_items0_0Ba_
FN:291,_RNCNvMs_NtNtCs6qJP7SanZgw_10gql_parser6parser8patternsNtB6_13PatternParser32parse_graph_pattern_where_clause0Ba_
FN:59,_RNvMNtNtCs6qJP7SanZgw_10gql_parser6parser8patternsNtB2_16FillerTerminator7matches
FN:514,_RNvMs_NtNtCs6qJP7SanZgw_10gql_parser6parser8patternsNtB4_13PatternParser10checkpoint
FN:532,_RNvMs_NtNtCs6qJP7SanZgw_10gql_parser6parser8patternsNtB4_13PatternParser12current_kind
FN:498,_RNvMs_NtNtCs6qJP7SanZgw_10gql_parser6parser8patternsNtB4_13PatternParser12skip_to_sync
FN:536,_RNvMs_NtNtCs6qJP7SanZgw_10gql_parser6parser8patternsNtB4_13PatternParser13current_start
FN:540,_RNvMs_NtNtCs6qJP7SanZgw_10gql_parser6parser8patternsNtB4_13PatternParser15current_span_or
FN:175,_RNvMs_NtNtCs6qJP7SanZgw_10gql_parser6parser8patternsNtB4_13PatternParser16parse_match_mode
FN:547,_RNvMs_NtNtCs6qJP7SanZgw_10gql_parser6parser8patternsNtB4_13PatternParser17last_consumed_end
FN:258,_RNvMs_NtNtCs6qJP7SanZgw_10gql_parser6parser8patternsNtB4_13PatternParser17parse_keep_clause
FN:385,_RNvMs_NtNtCs6qJP7SanZgw_10gql_parser6parser8patternsNtB4_13PatternParser19find_trailing_alias
FN:106,_RNvMs_NtNtCs6qJP7SanZgw_10gql_parser6parser8patternsNtB4_13PatternParser19parse_graph_pattern
FN:480,_RNvMs_NtNtCs6qJP7SanZgw_10gql_parser6parser8patternsNtB4_13PatternParser21consume_path_or_paths
FN:418,_RNvMs_NtNtCs6qJP7SanZgw_10gql_parser6parser8patternsNtB4_13PatternParser22parse_expression_range
FN:222,_RNvMs_NtNtCs6qJP7SanZgw_10gql_parser6parser8patternsNtB4_13PatternParser23parse_path_pattern_list
FN:494,_RNvMs_NtNtCs6qJP7SanZgw_10gql_parser6parser8patternsNtB4_13PatternParser26skip_to_statement_boundary
FN:348,_RNvMs_NtNtCs6qJP7SanZgw_10gql_parser6parser8patternsNtB4_13PatternParser30parse_graph_pattern_yield_item
FN:282,_RNvMs_NtNtCs6qJP7SanZgw_10gql_parser6parser8patternsNtB4_13PatternParser32parse_graph_pattern_where_clause
FN:308,_RNvMs_NtNtCs6qJP7SanZgw_10gql_parser6parser8patternsNtB4_13PatternParser32parse_graph_pattern_yield_clause
FN:490,_RNvMs_NtNtCs6qJP7SanZgw_10gql_parser6parser8patternsNtB4_13PatternParser35skip_to_where_or_statement_boundary
FN:98,_RNvMs_NtNtCs6qJP7SanZgw_10gql_parser6parser8patternsNtB4_13PatternParser3new
FN:518,_RNvMs_NtNtCs6qJP7SanZgw_10gql_parser6parser8patternsNtB4_13PatternParser7restore
FN:599,_RNvNtNtCs6qJP7SanZgw_10gql_parser6parser8patterns13is_sync_token
FN:621,_RNvNtNtCs6qJP7SanZgw_10gql_parser6parser8patterns15is_edge_keyword
FN:563,_RNvNtNtCs6qJP7SanZgw_10gql_parser6parser8patterns17is_query_boundary
FN:627,_RNvNtNtCs6qJP7SanZgw_10gql_parser6parser8patterns18token_matches_word
FN:615,_RNvNtNtCs6qJP7SanZgw_10gql_parser6parser8patterns19is_bindings_keyword
FN:609,_RNvNtNtCs6qJP7SanZgw_10gql_parser6parser8patterns19is_elements_keyword
FN:26,_RNvNtNtCs6qJP7SanZgw_10gql_parser6parser8patterns19parse_graph_pattern
FN:555,_RNvNtNtCs6qJP7SanZgw_10gql_parser6parser8patterns20identifier_from_kind
FN:592,_RNvNtNtCs6qJP7SanZgw_10gql_parser6parser8patterns25is_path_pattern_delimiter
FN:502,_RINvMs_NtNtCs87GxMFlPkU4_10gql_parser6parser8patternsNtB5_13PatternParser13skip_to_tokenNCNvB2_12skip_to_sync0EB9_
FN:502,_RINvMs_NtNtCs87GxMFlPkU4_10gql_parser6parser8patternsNtB5_13PatternParser13skip_to_tokenNCNvMNtB5_4pathBP_22parse_brace_quantifier0EB9_
FN:502,_RINvMs_NtNtCs87GxMFlPkU4_10gql_parser6parser8patternsNtB5_13PatternParser13skip_to_tokenNCNvMNtB5_4pathBP_22parse_brace_quantifiers_0EB9_
FN:502,_RINvMs_NtNtCs87GxMFlPkU4_10gql_parser6parser8patternsNtB5_13PatternParser13skip_to_tokenNCNvMNtB5_7elementBP_18parse_node_pattern0EB9_
FN:502,_RINvMs_NtNtCs87GxMFlPkU4_10gql_parser6parser8patternsNtB5_13PatternParser13skip_to_tokenNCNvMNtB5_7elementBP_36parse_element_property_specification0EB9_
FN:447,_RINvMs_NtNtCs87GxMFlPkU4_10gql_parser6parser8patternsNtB5_13PatternParser19find_expression_endNCNvB2_30parse_graph_pattern_yield_item0EB9_
FN:447,_RINvMs_NtNtCs87GxMFlPkU4_10gql_parser6parser8patternsNtB5_13PatternParser19find_expression_endNCNvB2_32parse_graph_pattern_where_clause0EB9_
FN:447,_RINvMs_NtNtCs87GxMFlPkU4_10gql_parser6parser8patternsNtB5_13PatternParser19find_expression_endNCNvMNtB5_4pathBP_43parse_parenthesized_path_pattern_expression0EB9_
FN:447,_RINvMs_NtNtCs87GxMFlPkU4_10gql_parser6parser8patternsNtB5_13PatternParser19find_expression_endNCNvMNtB5_7elementBP_29parse_property_key_value_pair0EB9_
FN:447,_RINvMs_NtNtCs87GxMFlPkU4_10gql_parser6parser8patternsNtB5_13PatternParser19find_expression_endNCNvMNtB5_7elementBP_34parse_element_pattern_where_clause0EB9_
FN:523,_RINvMs_NtNtCs87GxMFlPkU4_10gql_parser6parser8patternsNtB5_13PatternParser9try_parseNtNtNtB9_3ast5query10PathSearchNCNvMNtB5_4pathBP_25parse_path_pattern_prefix0EB9_
FN:523,_RINvMs_NtNtCs87GxMFlPkU4_10gql_parser6parser8patternsNtB5_13PatternParser9try_parseNtNtNtB9_3ast5query11NodePatternNCNvMNtB5_4pathBP_18parse_path_primarys0_0EB9_
FN:523,_RINvMs_NtNtCs87GxMFlPkU4_10gql_parser6parser8patternsNtB5_13PatternParser9try_parseNtNtNtB9_3ast5query21PathPatternExpressionNCNvMNtB5_4pathBP_18parse_path_primarys1_0EB9_
FN:523,_RINvMs_NtNtCs87GxMFlPkU4_10gql_parser6parser8patternsNtB5_13PatternParser9try_parseNtNtNtB9_3ast5query21PathPatternExpressionNCNvMNtB5_4pathBP_18parse_path_primarys_0EB9_
FN:523,_RINvMs_NtNtCs87GxMFlPkU4_10gql_parser6parser8patternsNtB5_13PatternParser9try_parseNtNtNtB9_3ast5query31SimplifiedPathPatternExpressionNCNvMNtB5_4pathBP_18parse_path_primary0EB9_
FN:523,_RINvMs_NtNtCs87GxMFlPkU4_10gql_parser6parser8patternsNtB5_13PatternParser9try_parseNtNtNtB9_3ast5query31SimplifiedPathPatternExpressionNCNvMNtB5_4pathBP_25parse_simplified_tertiary0EB9_
FN:499,_RNCNvMs_NtNtCs87GxMFlPkU4_10gql_parser6parser8patternsNtB6_13PatternParser12skip_to_sync0Ba_
FN:543,_RNCNvMs_NtNtCs87GxMFlPkU4_10gql_parser6parser8patternsNtB6_13PatternParser15current_span_or0Ba_
FN:404,_RNCNvMs_NtNtCs87GxMFlPkU4_10gql_parser6parser8patternsNtB6_13PatternParser19find_trailing_alias0Ba_
FN:352,_RNCNvMs_NtNtCs87GxMFlPkU4_10gql_parser6parser8patternsNtB6_13PatternParser30parse_graph_pattern_yield_item0Ba_
FN:376,_RNCNvMs_NtNtCs87GxMFlPkU4_10gql_parser6parser8patternsNtB6_13PatternParser30parse_graph_pattern_yield_items0_0Ba_
FN:291,_RNCNvMs_NtNtCs87GxMFlPkU4_10gql_parser6parser8patternsNtB6_13PatternParser32parse_graph_pattern_where_clause0Ba_
FN:39,_RNCNvNtNtCs87GxMFlPkU4_10gql_parser6parser8patterns33parse_graph_pattern_binding_table0B7_
FN:59,_RNvMNtNtCs87GxMFlPkU4_10gql_parser6parser8patternsNtB2_16FillerTerminator7matches
FN:514,_RNvMs_NtNtCs87GxMFlPkU4_10gql_parser6parser8patternsNtB4_13PatternParser10checkpoint
FN:532,_RNvMs_NtNtCs87GxMFlPkU4_10gql_parser6parser8patternsNtB4_13PatternParser12current_kind
FN:498,_RNvMs_NtNtCs87GxMFlPkU4_10gql_parser6parser8patternsNtB4_13PatternParser12skip_to_sync
FN:536,_RNvMs_NtNtCs87GxMFlPkU4_10gql_parser6parser8patternsNtB4_13PatternParser13current_start
FN:540,_RNvMs_NtNtCs87GxMFlPkU4_10gql_parser6parser8patternsNtB4_13PatternParser15current_span_or
FN:175,_RNvMs_NtNtCs87GxMFlPkU4_10gql_parser6parser8patternsNtB4_13PatternParser16parse_match_mode
FN:547,_RNvMs_NtNtCs87GxMFlPkU4_10gql_parser6parser8patternsNtB4_13PatternParser17last_consumed_end
FN:258,_RNvMs_NtNtCs87GxMFlPkU4_10gql_parser6parser8patternsNtB4_13PatternParser17parse_keep_clause
FN:385,_RNvMs_NtNtCs87GxMFlPkU4_10gql_parser6parser8patternsNtB4_13PatternParser19find_trailing_alias
FN:106,_RNvMs_NtNtCs87GxMFlPkU4_10gql_parser6parser8patternsNtB4_13PatternParser19parse_graph_pattern
FN:480,_RNvMs_NtNtCs87GxMFlPkU4_10gql_parser6parser8patternsNtB4_13PatternParser21consume_path_or_paths
FN:418,_RNvMs_NtNtCs87GxMFlPkU4_10gql_parser6parser8patternsNtB4_13PatternParser22parse_expression_range
FN:222,_RNvMs_NtNtCs87GxMFlPkU4_10gql_parser6parser8patternsNtB4_13PatternParser23parse_path_pattern_list
FN:494,_RNvMs_NtNtCs87GxMFlPkU4_10gql_parser6parser8patternsNtB4_13PatternParser26skip_to_statement_boundary
FN:348,_RNvMs_NtNtCs87GxMFlPkU4_10gql_parser6parser8patternsNtB4_13PatternParser30parse_graph_pattern_yield_item
FN:282,_RNvMs_NtNtCs87GxMFlPkU4_10gql_parser6parser8patternsNtB4_13PatternParser32parse_graph_pattern_where_clause
FN:308,_RNvMs_NtNtCs87GxMFlPkU4_10gql_parser6parser8patternsNtB4_13PatternParser32parse_graph_pattern_yield_clause
FN:490,_RNvMs_NtNtCs87GxMFlPkU4_10gql_parser6parser8patternsNtB4_13PatternParser35skip_to_where_or_statement_boundary
FN:98,_RNvMs_NtNtCs87GxMFlPkU4_10gql_parser6parser8patternsNtB4_13PatternParser3new
FN:518,_RNvMs_NtNtCs87GxMFlPkU4_10gql_parser6parser8patternsNtB4_13PatternParser7restore
FN:599,_RNvNtNtCs87GxMFlPkU4_10gql_parser6parser8patterns13is_sync_token
FN:621,_RNvNtNtCs87GxMFlPkU4_10gql_parser6parser8patterns15is_edge_keyword
FN:563,_RNvNtNtCs87GxMFlPkU4_10gql_parser6parser8patterns17is_query_boundary
FN:627,_RNvNtNtCs87GxMFlPkU4_10gql_parser6parser8patterns18token_matches_word
FN:615,_RNvNtNtCs87GxMFlPkU4_10gql_parser6parser8patterns19is_bindings_keyword
FN:609,_RNvNtNtCs87GxMFlPkU4_10gql_parser6parser8patterns19is_elements_keyword
FN:26,_RNvNtNtCs87GxMFlPkU4_10gql_parser6parser8patterns19parse_graph_pattern
FN:555,_RNvNtNtCs87GxMFlPkU4_10gql_parser6parser8patterns20identifier_from_kind
FN:592,_RNvNtNtCs87GxMFlPkU4_10gql_parser6parser8patterns25is_path_pattern_delimiter
FN:34,_RNvNtNtCs87GxMFlPkU4_10gql_parser6parser8patterns33parse_graph_pattern_binding_table
FNDA:0,_RNCNvNtNtCs6qJP7SanZgw_10gql_parser6parser8patterns33parse_graph_pattern_binding_table0B7_
FNDA:0,_RNvNtNtCs6qJP7SanZgw_10gql_parser6parser8patterns33parse_graph_pattern_binding_table
FNDA:12948,_RINvMs_NtNtCs6qJP7SanZgw_10gql_parser6parser8patternsNtB5_13PatternParser13skip_to_tokenNCNvB2_12skip_to_sync0EB9_
FNDA:0,_RINvMs_NtNtCs6qJP7SanZgw_10gql_parser6parser8patternsNtB5_13PatternParser13skip_to_tokenNCNvMNtB5_4pathBP_22parse_brace_quantifier0EB9_
FNDA:0,_RINvMs_NtNtCs6qJP7SanZgw_10gql_parser6parser8patternsNtB5_13PatternParser13skip_to_tokenNCNvMNtB5_4pathBP_22parse_brace_quantifiers_0EB9_
FNDA:2,_RINvMs_NtNtCs6qJP7SanZgw_10gql_parser6parser8patternsNtB5_13PatternParser13skip_to_tokenNCNvMNtB5_7elementBP_18parse_node_pattern0EB9_
FNDA:0,_RINvMs_NtNtCs6qJP7SanZgw_10gql_parser6parser8patternsNtB5_13PatternParser13skip_to_tokenNCNvMNtB5_7elementBP_36parse_element_property_specification0EB9_
FNDA:0,_RINvMs_NtNtCs6qJP7SanZgw_10gql_parser6parser8patternsNtB5_13PatternParser19find_expression_endNCNvB2_30parse_graph_pattern_yield_item0EB9_
FNDA:5,_RINvMs_NtNtCs6qJP7SanZgw_10gql_parser6parser8patternsNtB5_13PatternParser19find_expression_endNCNvB2_32parse_graph_pattern_where_clause0EB9_
FNDA:0,_RINvMs_NtNtCs6qJP7SanZgw_10gql_parser6parser8patternsNtB5_13PatternParser19find_expression_endNCNvMNtB5_4pathBP_43parse_parenthesized_path_pattern_expression0EB9_
FNDA:4,_RINvMs_NtNtCs6qJP7SanZgw_10gql_parser6parser8patternsNtB5_13PatternParser19find_expression_endNCNvMNtB5_7elementBP_29parse_property_key_value_pair0EB9_
FNDA:3,_RINvMs_NtNtCs6qJP7SanZgw_10gql_parser6parser8patternsNtB5_13PatternParser19find_expression_endNCNvMNtB5_7elementBP_34parse_element_pattern_where_clause0EB9_
FNDA:8735,_RINvMs_NtNtCs6qJP7SanZgw_10gql_parser6parser8patternsNtB5_13PatternParser9try_parseNtNtNtB9_3ast5query10PathSearchNCNvMNtB5_4pathBP_25parse_path_pattern_prefix0EB9_
FNDA:32,_RINvMs_NtNtCs6qJP7SanZgw_10gql_parser6parser8patternsNtB5_13PatternParser9try_parseNtNtNtB9_3ast5query11NodePatternNCNvMNtB5_4pathBP_18parse_path_primarys0_0EB9_
FNDA:0,_RINvMs_NtNtCs6qJP7SanZgw_10gql_parser6parser8patternsNtB5_13PatternParser9try_parseNtNtNtB9_3ast5query21PathPatternExpressionNCNvMNtB5_4pathBP_18parse_path_primarys1_0EB9_
FNDA:0,_RINvMs_NtNtCs6qJP7SanZgw_10gql_parser6parser8patternsNtB5_13PatternParser9try_parseNtNtNtB9_3ast5query21PathPatternExpressionNCNvMNtB5_4pathBP_18parse_path_primarys_0EB9_
FNDA:0,_RINvMs_NtNtCs6qJP7SanZgw_10gql_parser6parser8patternsNtB5_13PatternParser9try_parseNtNtNtB9_3ast5query31SimplifiedPathPatternExpressionNCNvMNtB5_4pathBP_18parse_path_primary0EB9_
FNDA:0,_RINvMs_NtNtCs6qJP7SanZgw_10gql_parser6parser8patternsNtB5_13PatternParser9try_parseNtNtNtB9_3ast5query31SimplifiedPathPatternExpressionNCNvMNtB5_4pathBP_25parse_simplified_tertiary0EB9_
FNDA:28296,_RNCNvMs_NtNtCs6qJP7SanZgw_10gql_parser6parser8patternsNtB6_13PatternParser12skip_to_sync0Ba_
FNDA:17101,_RNCNvMs_NtNtCs6qJP7SanZgw_10gql_parser6parser8patternsNtB6_13PatternParser15current_span_or0Ba_
FNDA:0,_RNCNvMs_NtNtCs6qJP7SanZgw_10gql_parser6parser8patternsNtB6_13PatternParser19find_trailing_alias0Ba_
FNDA:0,_RNCNvMs_NtNtCs6qJP7SanZgw_10gql_parser6parser8patternsNtB6_13PatternParser30parse_graph_pattern_yield_item0Ba_
FNDA:0,_RNCNvMs_NtNtCs6qJP7SanZgw_10gql_parser6parser8patternsNtB6_13PatternParser30parse_graph_pattern_yield_items0_0Ba_
FNDA:30,_RNCNvMs_NtNtCs6qJP7SanZgw_10gql_parser6parser8patternsNtB6_13PatternParser32parse_graph_pattern_where_clause0Ba_
FNDA:19,_RNvMNtNtCs6qJP7SanZgw_10gql_parser6parser8patternsNtB2_16FillerTerminator7matches
FNDA:17539,_RNvMs_NtNtCs6qJP7SanZgw_10gql_parser6parser8patternsNtB4_13PatternParser10checkpoint
FNDA:87421,_RNvMs_NtNtCs6qJP7SanZgw_10gql_parser6parser8patternsNtB4_13PatternParser12current_kind
FNDA:12948,_RNvMs_NtNtCs6qJP7SanZgw_10gql_parser6parser8patternsNtB4_13PatternParser12skip_to_sync
FNDA:30535,_RNvMs_NtNtCs6qJP7SanZgw_10gql_parser6parser8patternsNtB4_13PatternParser13current_start
FNDA:22434,_RNvMs_NtNtCs6qJP7SanZgw_10gql_parser6parser8patternsNtB4_13PatternParser15current_span_or
FNDA:12973,_RNvMs_NtNtCs6qJP7SanZgw_10gql_parser6parser8patternsNtB4_13PatternParser16parse_match_mode
FNDA:67,_RNvMs_NtNtCs6qJP7SanZgw_10gql_parser6parser8patternsNtB4_13PatternParser17last_consumed_end
FNDA:0,_RNvMs_NtNtCs6qJP7SanZgw_10gql_parser6parser8patternsNtB4_13PatternParser17parse_keep_clause
FNDA:0,_RNvMs_NtNtCs6qJP7SanZgw_10gql_parser6parser8patternsNtB4_13PatternParser19find_trailing_alias
FNDA:22452,_RNvMs_NtNtCs6qJP7SanZgw_10gql_parser6parser8patternsNtB4_13PatternParser19parse_graph_pattern
FNDA:0,_RNvMs_NtNtCs6qJP7SanZgw_10gql_parser6parser8patternsNtB4_13PatternParser21consume_path_or_paths
FNDA:12,_RNvMs_NtNtCs6qJP7SanZgw_10gql_parser6parser8patternsNtB4_13PatternParser22parse_expression_range
FNDA:12973,_RNvMs_NtNtCs6qJP7SanZgw_10gql_parser6parser8patternsNtB4_13PatternParser23parse_path_pattern_list
FNDA:12948,_RNvMs_NtNtCs6qJP7SanZgw_10gql_parser6parser8patternsNtB4_13PatternParser26skip_to_statement_boundary
FNDA:0,_RNvMs_NtNtCs6qJP7SanZgw_10gql_parser6parser8patternsNtB4_13PatternParser30parse_graph_pattern_yield_item
